BL51 BANKED LINKER/LOCATER V6.05                                                        09/23/2016  17:07:17  PAGE 1


BL51 BANKED LINKER/LOCATER V6.05, INVOKED BY:
C:\KEIL\C51\BIN\BL51.EXE OBUMAIN.obj, C_Issue.obj, CardAPP.obj, CC1101.obj, Contact.obj, DSRC.obj, flash.obj, GSM.obj, H
>> DLC.obj, LIB.obj, MFCard.obj, NContact.obj, ProCard.obj, SERIAL.obj, TEST.obj, TFT_LCD.obj TO 01 RAMSIZE (256)


INPUT MODULES INCLUDED:
  OBUMAIN.obj (OBUMAIN)
  C_Issue.obj (CONTACTISSUE)
  CardAPP.obj (CARDAPP)
  CC1101.obj (CC1101)
  Contact.obj (CONTACT)
  DSRC.obj (DSRC)
  flash.obj (FLASH)
  GSM.obj (GSM)
  HDLC.obj (HDLC)
  LIB.obj (LIB)
  MFCard.obj (MFCARD)
  NContact.obj (NCONTACT)
  ProCard.obj (PROCARD)
  SERIAL.obj (SERIAL)
  TEST.obj (TEST)
  TFT_LCD.obj (LCD_SPACE)


LINK MAP OF MODULE:  01 (OBUMAIN)


            TYPE    BASE      LENGTH    RELOCATION   SEGMENT NAME
            -----------------------------------------------------

            * * * * * * *   D A T A   M E M O R Y   * * * * * * *
            REG     0000H     0008H     ABSOLUTE     "REG BANK 0"
            DATA    0008H     0018H     UNIT         ?DT?OBUMAIN?DATAVARD
            DATA    0020H     0006H     BIT_ADDR     ?BA?OBUMAIN?BITD
            DATA    0026H     005AH     UNIT         ?DT?OBUMAIN?DATAD
            IDATA   0080H     0080H     UNIT         ?IDT?OBUMAIN?IDATAD

            * * * * * * *  X D A T A   M E M O R Y  * * * * * * *
            XDATA   0000H     0100H     UNIT         ?XDT?OBUMAIN?XDATAD

            * * * * * * *   C O D E   M E M O R Y   * * * * * * *
            CODE    0000H     0003H     ABSOLUTE     
            CODE    0003H     0003H     ABSOLUTE     
            CODE    0006H     0001H     UNIT         ?CO?CC1101?FLASHSTR
                    0007H     0004H                  *** GAP ***
            CODE    000BH     0003H     ABSOLUTE     
                    000EH     0005H                  *** GAP ***
            CODE    0013H     0003H     ABSOLUTE     
                    0016H     0005H                  *** GAP ***
            CODE    001BH     0003H     ABSOLUTE     
            CODE    001EH     0011H     UNIT         ?CO?DSRC?COMMLIB
            CODE    002FH     0005H     ABSOLUTE     
            CODE    0034H     2640H     UNIT         ?CO?LCD?FONTLIB
            CODE    2674H     1463H     UNIT         ?PR?OBUMAIN?MATER
            CODE    3AD7H     0CF2H     UNIT         ?PR?HDLC?MATER
            CODE    47C9H     0894H     UNIT         ?PR?CARDAPP?MATER
            CODE    505DH     07E9H     UNIT         ?PR?DSRC?MATER
            CODE    5846H     05CDH     UNIT         ?PR?LIB?MATER
BL51 BANKED LINKER/LOCATER V6.05                                                      09/23/2016  17:07:17  PAGE 2


            CODE    5E13H     05ABH     UNIT         ?PR?SERIAL?MATER
            CODE    63BEH     0446H     UNIT         ?PR?LCD?MATER
            CODE    6804H     037AH     UNIT         ?PR?CONTACT?MATER
            CODE    6B7EH     02BEH     UNIT         ?PR?NCONTACT?MATER
            CODE    6E3CH     0234H     UNIT         ?PR?PROCARD?MATER
            CODE    7070H     021DH     UNIT         ?PR?CONTACTISSUE?MATER
            CODE    728DH     01EAH     UNIT         ?PR?OBUMAIN?TF0_TIMER_1
            CODE    7477H     0186H     UNIT         ?PR?GSM?MATER
            CODE    75FDH     0108H     UNIT         FLASH
            CODE    7705H     00CEH     UNIT         ?CO?GSM?FLASHSTR
            CODE    77D3H     0082H     UNIT         ?CO?CARDAPP?FLASHSTR
            CODE    7855H     0059H     UNIT         ?CO?HDLC?FLASHSTR
            CODE    78AEH     0052H     UNIT         ?PR?TEST?MATER2
            CODE    7900H     0034H     UNIT         ?CO?OBUMAIN?STR
            CODE    7934H     0029H     UNIT         ?PR?MFCARD?MATER
            CODE    795DH     0015H     UNIT         ?PR?CC1101?MATER
            CODE    7972H     0006H     UNIT         ?PR?TEST?MATER



SYMBOL TABLE OF MODULE:  01 (OBUMAIN)

  VALUE           TYPE          NAME
  ----------------------------------

  -------         MODULE        OBUMAIN
  C:728DH         SEGMENT       ?PR?OBUMAIN?TF0_TIMER_1
  C:2674H         SEGMENT       ?PR?OBUMAIN?MATER
  D:0008H         SEGMENT       ?DT?OBUMAIN?DATAVARD
  D:0020H         SEGMENT       ?BA?OBUMAIN?BITD
  D:0026H         SEGMENT       ?DT?OBUMAIN?DATAD
  I:0080H         SEGMENT       ?IDT?OBUMAIN?IDATAD
  X:0000H         SEGMENT       ?XDT?OBUMAIN?XDATAD
  C:7900H         SEGMENT       ?CO?OBUMAIN?STR
  C:2674H         PUBLIC        AP_START
  B:0025H.2       PUBLIC        BIT_5823RX_FLAG
  B:0020H.0       PUBLIC        BIT_9600
  B:0022H.7       PUBLIC        BIT_ACCESS
  B:0024H.2       PUBLIC        BIT_BJ1219
  B:0023H.4       PUBLIC        BIT_BST
  B:0020H.7       PUBLIC        BIT_BUFADDR
  B:0024H.6       PUBLIC        BIT_CD
  B:0021H.7       PUBLIC        BIT_CHANNELFLAG
  B:0023H.3       PUBLIC        BIT_CONTACTISSUE
  B:0022H.0       PUBLIC        BIT_ERR_FLAG
  B:0022H.3       PUBLIC        BIT_ESAMERR
  B:0021H.5       PUBLIC        BIT_ESAMICC
  B:0024H.4       PUBLIC        BIT_ESAMOK
  B:0020H.2       PUBLIC        BIT_FIRSTTX
  B:0023H.0       PUBLIC        BIT_GBICCINFO
  B:0022H.2       PUBLIC        BIT_GETRESULT
  B:0020H.4       PUBLIC        BIT_HARDFLAG
  B:0021H.2       PUBLIC        BIT_INSERTCARD
  B:0025H.4       PUBLIC        BIT_INSERTCARDVST
  B:0023H.6       PUBLIC        BIT_ISCONTACT
  B:0021H.1       PUBLIC        BIT_ISFRX
  B:0022H.6       PUBLIC        BIT_KEY
BL51 BANKED LINKER/LOCATER V6.05                                                      09/23/2016  17:07:17  PAGE 3


  B:0021H.3       PUBLIC        BIT_N
  B:0025H.7       PUBLIC        BIT_PPS
  B:0024H.7       PUBLIC        BIT_PRIVATEINFO
  B:0023H.7       PUBLIC        BIT_PROF
  B:0022H.1       PUBLIC        BIT_PROMF
  B:0023H.2       PUBLIC        BIT_RSTYPE
  B:0023H.1       PUBLIC        BIT_RXSERIALBAUD
  B:0021H.4       PUBLIC        BIT_SERFIRBYTE
  B:0020H.6       PUBLIC        BIT_SERIALOVERTIMERX
  B:0022H.5       PUBLIC        BIT_SETMMI
  B:0020H.1       PUBLIC        BIT_T0T1
  B:0020H.1       PUBLIC        BIT_TMP
  B:0020H.5       PUBLIC        BIT_VERIFY
  N:0080H         PUBLIC        CONST_LEN_RXBUF
  N:0080H         PUBLIC        CONST_LEN_TXBUF
  D:0017H         PUBLIC        DATA_CARDNO
  D:001CH         PUBLIC        DATA_CMDTYPE
  D:0010H         PUBLIC        DATA_DATAP
  D:000FH         PUBLIC        DATA_DSRCRXLEN
  D:000EH         PUBLIC        DATA_DSRCTXLEN
  D:0016H         PUBLIC        DATA_IRQEN
  D:001DH         PUBLIC        DATA_MFCOM
  D:0012H         PUBLIC        DATA_OBUID
  D:001FH         PUBLIC        DATA_POWERONTIMER
  D:0026H         PUBLIC        DATA_RXBUF
  D:0009H         PUBLIC        DATA_VARBAUDFULL
  D:0008H         PUBLIC        DATA_VARBAUDHALF
  D:0011H         PUBLIC        DATA_XDATAP
  D:000AH         PUBLIC        MONEY
  C:2779H         PUBLIC        OBUMAIN_MASTER_MEMORYCLR
  C:732FH         PUBLIC        SLEEP
  C:275AH         PUBLIC        START_USER
  C:002FH         PUBLIC        STR_SYS_OBUID
  X:009FH         PUBLIC        XDATA_433RXNUM
  X:009EH         PUBLIC        XDATA_54
  X:0082H         PUBLIC        XDATA_BEACONID
  X:008DH         PUBLIC        XDATA_FIX
  X:0090H         PUBLIC        XDATA_HIGHBAUD
  X:00ACH         PUBLIC        XDATA_HOLD
  X:008FH         PUBLIC        XDATA_ISSUECMD
  X:008EH         PUBLIC        XDATA_ISSUERSCTL
  X:008AH         PUBLIC        XDATA_NUM
  X:0093H         PUBLIC        XDATA_POWER
  X:0092H         PUBLIC        XDATA_RAND
  X:009AH         PUBLIC        XDATA_RTCMODE
  X:0099H         PUBLIC        XDATA_RTCTIME
  X:008BH         PUBLIC        XDATA_SOFTFIRSTSCANTIME
  X:008CH         PUBLIC        XDATA_SOFTSERIALP
  X:00FFH         PUBLIC        XDATA_TFTINIT_FLAG
  X:009BH         PUBLIC        XDATA_TOTALNUMH
  X:009CH         PUBLIC        XDATA_TOTALNUML
  X:0000H         PUBLIC        XDATA_TXBUF
  X:0086H         PUBLIC        XDATA_UNIXTIME
  C:3158H         PUBLIC        _FUN_OBUMAIN_BASEINIT
  C:30BBH         PUBLIC        _FUN_OBUMAIN_INITSYS
  C:73CAH         PUBLIC        _FUN_OBUMAIN_SYSUNSLEEP
  D:00E0H         SYMBOL        ACC
BL51 BANKED LINKER/LOCATER V6.05                                                      09/23/2016  17:07:17  PAGE 4


  C:269CH         SYMBOL        AP_START_1
  D:00F0H         SYMBOL        B
  D:0020H         SYMBOL        BITDBUF01
  D:0021H         SYMBOL        BITDBUF02
  D:0022H         SYMBOL        BITDBUF03
  D:0023H         SYMBOL        BITDBUF04
  D:0024H         SYMBOL        BITDBUF05
  D:0025H         SYMBOL        BITDBUF06
  B:0024H.5       SYMBOL        BIT_ACTIVECARD
  B:0024H.3       SYMBOL        BIT_BJPRE
  B:0020H.3       SYMBOL        BIT_CDJH
  B:0024H.0       SYMBOL        BIT_CD_SW
  B:0022H.4       SYMBOL        BIT_ESAM
  B:0025H.5       SYMBOL        BIT_ESAMTRAN
  B:0023H.5       SYMBOL        BIT_GETSECURE
  B:0025H.1       SYMBOL        BIT_INITCARD
  B:0024H.1       SYMBOL        BIT_INSERTER
  B:0021H.0       SYMBOL        BIT_ISRXNB
  B:0025H.6       SYMBOL        BIT_MMITIRMSTART
  B:0025H.3       SYMBOL        BIT_SEL1001
  B:0025H.0       SYMBOL        BIT_USEROK
  N:009CH         SYMBOL        BRT
  B:0020H.0       SYMBOL        BUSY
  C:36EBH         SYMBOL        CARDACTIVE_CASHCARD_COPYMONEY
  C:3883H         SYMBOL        CARDACTIVE_CASHCARD_COPYMONEY02
  C:393FH         SYMBOL        CC1101_SPIOSINGLESOFT02_S
  C:3946H         SYMBOL        CC1101_SPIOSINGLESOFT02_WRITEADDRLOOP
  C:3956H         SYMBOL        CC1101_SPIOSINGLESOFT02_WRITEDAOVLOOP
  N:00FAH         SYMBOL        CCAP0H
  N:00EAH         SYMBOL        CCAP0L
  N:00FBH         SYMBOL        CCAP1H
  N:00EBH         SYMBOL        CCAP1L
  N:00FCH         SYMBOL        CCAP2H
  N:00ECH         SYMBOL        CCAP2L
  N:00FDH         SYMBOL        CCAP3H
  N:00EDH         SYMBOL        CCAP3L
  N:00FEH         SYMBOL        CCAP4H
  N:00EEH         SYMBOL        CCAP4L
  N:00FFH         SYMBOL        CCAP5H
  N:00EFH         SYMBOL        CCAP5L
  N:00DAH         SYMBOL        CCAPM0
  N:00DBH         SYMBOL        CCAPM1
  N:00DCH         SYMBOL        CCAPM2
  N:00DDH         SYMBOL        CCAPM3
  N:00DEH         SYMBOL        CCAPM4
  N:00DFH         SYMBOL        CCAPM5
  B:00D8H.0       SYMBOL        CCF0
  B:00D8H.1       SYMBOL        CCF1
  B:00D8H.2       SYMBOL        CCF2
  B:00D8H.3       SYMBOL        CCF3
  B:00D8H.4       SYMBOL        CCF4
  B:00D8H.5       SYMBOL        CCF5
  N:00D8H         SYMBOL        CCON
  B:00D8H.7       SYMBOL        CF
  N:00F9H         SYMBOL        CH
  N:00E9H         SYMBOL        CL
  N:00D9H         SYMBOL        CMOD
BL51 BANKED LINKER/LOCATER V6.05                                                      09/23/2016  17:07:17  PAGE 5


  N:0002H         SYMBOL        CONST_ACTIONTYPE_GETRAND
  N:0000H         SYMBOL        CONST_ACTIONTYPE_GETSECURE
  N:0004H         SYMBOL        CONST_ACTIONTYPE_SETMMI
  N:0001H         SYMBOL        CONST_ACTIONTYPE_SETSECURE
  N:0003H         SYMBOL        CONST_ACTIONTYPE_TRANSFERCHANNEL
  N:0003H         SYMBOL        CONST_ACT_H
  N:0001H         SYMBOL        CONST_ACT_H_H
  N:0000H         SYMBOL        CONST_ACT_H_L
  N:0001H         SYMBOL        CONST_ACT_L
  N:0006H         SYMBOL        CONST_ACT_L_H
  N:000AH         SYMBOL        CONST_ACT_L_L
  N:0002H         SYMBOL        CONST_ACT_M
  N:0000H         SYMBOL        CONST_ACT_M_H
  N:0006H         SYMBOL        CONST_ACT_M_L
  N:0002H         SYMBOL        CONST_ACT_V
  N:0002H         SYMBOL        CONST_BAUD_115200
  N:0003H         SYMBOL        CONST_BAUD_115200PC
  N:0004H         SYMBOL        CONST_BAUD_230000
  N:0001H         SYMBOL        CONST_BAUD_38400
  N:0005H         SYMBOL        CONST_BAUD_38400PC
  N:0000H         SYMBOL        CONST_BAUD_9600
  N:0006H         SYMBOL        CONST_BAUD_9600PC
  N:000CH         SYMBOL        CONST_BAUD_BITFULL12
  N:000EH         SYMBOL        CONST_BAUD_BITFULL20
  N:0010H         SYMBOL        CONST_BAUD_BITFULL28
  N:000BH         SYMBOL        CONST_BAUD_BITFULL8
  N:000CH         SYMBOL        CONST_BAUD_BITHALF12
  N:00B3H         SYMBOL        CONST_BAUD_CURRENTBITFULL
  N:0058H         SYMBOL        CONST_BAUD_CURRENTBITHALF
  N:001DH         SYMBOL        CONST_BAUD_FULL115200
  N:000FH         SYMBOL        CONST_BAUD_FULL230000
  N:005DH         SYMBOL        CONST_BAUD_FULL38400
  N:00B3H         SYMBOL        CONST_BAUD_FULL9600
  N:000DH         SYMBOL        CONST_BAUD_HALF115200
  N:0008H         SYMBOL        CONST_BAUD_HALF230000
  N:002DH         SYMBOL        CONST_BAUD_HALF38400
  N:0058H         SYMBOL        CONST_BAUD_HALF9600
  N:00F8H         SYMBOL        CONST_BAUD_HAND115200
  N:00F3H         SYMBOL        CONST_BAUD_HAND115200PC
  N:00FCH         SYMBOL        CONST_BAUD_HAND230000
  N:00E9H         SYMBOL        CONST_BAUD_HAND38400
  N:00D8H         SYMBOL        CONST_BAUD_HAND38400PC
  N:00A3H         SYMBOL        CONST_BAUD_HAND9600
  N:0060H         SYMBOL        CONST_BAUD_HAND9600PC
  N:00FFH         SYMBOL        CONST_BLACK_H
  N:00FFH         SYMBOL        CONST_BLACK_L
  N:0014H         SYMBOL        CONST_BLUETOOTH_WORKTIME
  N:0020H         SYMBOL        CONST_BSTLIMIT
  N:0064H         SYMBOL        CONST_BSTLIMIT02
  N:0016H         SYMBOL        CONST_CARD_CONSUME
  N:0017H         SYMBOL        CONST_CARD_PASS
  N:0000H         SYMBOL        CONST_CELLFILE_H
  N:0009H         SYMBOL        CONST_CELLFILE_L
  N:0001H         SYMBOL        CONST_DPH_NORMAL
  N:0001H         SYMBOL        CONST_DPH_ONE
  N:0003H         SYMBOL        CONST_DPH_SERX
  N:0000H         SYMBOL        CONST_DPH_SETX
BL51 BANKED LINKER/LOCATER V6.05                                                      09/23/2016  17:07:17  PAGE 6


  N:0003H         SYMBOL        CONST_DPH_THREE
  N:0002H         SYMBOL        CONST_DPH_TWO
  N:0000H         SYMBOL        CONST_DPH_ZERO
  N:0007H         SYMBOL        CONST_DSRC_ACTION
  N:0009H         SYMBOL        CONST_DSRC_ACTIONTYPE
  N:0001H         SYMBOL        CONST_DSRC_CHANNELIDICC
  N:0002H         SYMBOL        CONST_DSRC_CHANNELIDSAM
  N:000AH         SYMBOL        CONST_DSRC_CONTAIN
  N:0008H         SYMBOL        CONST_DSRC_DID
  N:0000H         SYMBOL        CONST_DSRC_FILDIDAPPKEY
  N:0002H         SYMBOL        CONST_DSRC_FILDIDCONSUME
  N:0003H         SYMBOL        CONST_DSRC_FILDIDHOLD
  N:0001H         SYMBOL        CONST_DSRC_FILDIDVEHICLE
  N:000BH         SYMBOL        CONST_DSRC_FILL
  N:0006H         SYMBOL        CONST_DSRC_HEAD
  N:0005H         SYMBOL        CONST_DSRC_LLCCTRL
  N:0004H         SYMBOL        CONST_DSRC_MACCTRL
  N:0003H         SYMBOL        CONST_ETC_INPUT
  N:0002H         SYMBOL        CONST_FALSH_PREFLAG02H
  N:00F4H         SYMBOL        CONST_FALSH_PREFLAG02L
  N:0002H         SYMBOL        CONST_FALSH_PREFLAG03H
  N:00F5H         SYMBOL        CONST_FALSH_PREFLAG03L
  N:0002H         SYMBOL        CONST_FALSH_PREFLAG04H
  N:00F6H         SYMBOL        CONST_FALSH_PREFLAG04L
  N:0002H         SYMBOL        CONST_FALSH_PREFLAGH
  N:00F3H         SYMBOL        CONST_FALSH_PREFLAGL
  N:0001H         SYMBOL        CONST_FALSH_PREFLAGLEN
  N:0004H         SYMBOL        CONST_FLASHADD_BEACONIDUNIXTIMEH
  N:0000H         SYMBOL        CONST_FLASHADD_BEACONIDUNIXTIMEL
  N:0002H         SYMBOL        CONST_FLASH_0002H
  N:0058H         SYMBOL        CONST_FLASH_0002L
  N:0004H         SYMBOL        CONST_FLASH_0002LEN
  N:0002H         SYMBOL        CONST_FLASH_0012H
  N:005CH         SYMBOL        CONST_FLASH_0012L
  N:0028H         SYMBOL        CONST_FLASH_0012LEN
  N:0002H         SYMBOL        CONST_FLASH_0015H
  N:0084H         SYMBOL        CONST_FLASH_0015L
  N:0032H         SYMBOL        CONST_FLASH_0015LEN
  N:002BH         SYMBOL        CONST_FLASH_0015LENOLD
  N:002BH         SYMBOL        CONST_FLASH_0019GBLEN
  N:0002H         SYMBOL        CONST_FLASH_0019H
  N:00B6H         SYMBOL        CONST_FLASH_0019L
  N:003CH         SYMBOL        CONST_FLASH_0019LEN
  N:003FH         SYMBOL        CONST_FLASH_0019NEWGDLEN
  N:0004H         SYMBOL        CONST_FLASH_BEACONIDUNIXTIMEH
  N:0000H         SYMBOL        CONST_FLASH_BEACONIDUNIXTIMEL
  N:0008H         SYMBOL        CONST_FLASH_BEACONIDUNIXTIMELEN
  N:0002H         SYMBOL        CONST_FLASH_BLOCK01
  N:0001H         SYMBOL        CONST_FLASH_CARDTYPELEN
  N:00F3H         SYMBOL        CONST_FLASH_FILELEN
  N:0002H         SYMBOL        CONST_FLASH_LASTCARDH
  N:00F2H         SYMBOL        CONST_FLASH_LASTCARDL
  N:0002H         SYMBOL        CONST_FLASH_STARTHIGH
  N:0000H         SYMBOL        CONST_FLASH_STARTLOW
  N:0002H         SYMBOL        CONST_FLASH_SYSINFOH
  N:0000H         SYMBOL        CONST_FLASH_SYSINFOL
  N:0058H         SYMBOL        CONST_FLASH_SYSINFOLEN
BL51 BANKED LINKER/LOCATER V6.05                                                      09/23/2016  17:07:17  PAGE 7


  N:0002H         SYMBOL        CONST_GDO2_MCSM2
  N:0046H         SYMBOL        CONST_GDO2_VALUE
  N:00F0H         SYMBOL        CONST_GSM_MAXNUM
  N:0008H         SYMBOL        CONST_GSM_NUM
  N:0014H         SYMBOL        CONST_GSM_PJNUM
  N:0015H         SYMBOL        CONST_HANDSECOND
  N:0006H         SYMBOL        CONST_LEN_BITBUF
  N:0001H         SYMBOL        CONST_LEN_POWUP
  N:0026H         SYMBOL        CONST_LEN_RXBUFEND
  N:005AH         SYMBOL        CONST_LEN_RXBUFPRE
  N:0002H         SYMBOL        CONST_LEN_RXCRC
  N:0057H         SYMBOL        CONST_LEN_STACK
  N:0002H         SYMBOL        CONST_LEN_TXCRC
  N:0018H         SYMBOL        CONST_LEN_VARBUF
  N:0008H         SYMBOL        CONST_LEN_WORKBUF
  N:0008H         SYMBOL        CONST_LEN_WORKBUF1
  N:0000H         SYMBOL        CONST_LEN_WORKBUF2
  N:0002H         SYMBOL        CONST_LHX_FLAG
  N:0005H         SYMBOL        CONST_MAX_RXNUM
  N:0008H         SYMBOL        CONST_MCU_WKCTH
  N:00FFH         SYMBOL        CONST_MCU_WKCTL
  N:0002H         SYMBOL        CONST_MF_DECREMENT
  N:0003H         SYMBOL        CONST_MF_INCREMENT
  N:00C0H         SYMBOL        CONST_MF_RC500DECREMENT
  N:00C1H         SYMBOL        CONST_MF_RC500INCREMENT
  N:0000H         SYMBOL        CONST_MF_READ
  N:0004H         SYMBOL        CONST_MF_RESTOR
  N:0001H         SYMBOL        CONST_MF_WRITE
  N:0001H         SYMBOL        CONST_MTC_INPUT
  N:0018H         SYMBOL        CONST_PPS_115200
  N:0096H         SYMBOL        CONST_PPS_230000
  N:0013H         SYMBOL        CONST_PPS_38400
  N:0010H         SYMBOL        CONST_PPS_9600
  N:0001H         SYMBOL        CONST_PRO_4SPEED
  N:00FAH         SYMBOL        CONST_PRO_OVERTIME2S
  N:0090H         SYMBOL        CONST_RTCOVERFLOW
  N:00FFH         SYMBOL        CONST_RTC_OFF
  N:0055H         SYMBOL        CONST_RTC_ON
  N:000AH         SYMBOL        CONST_SE_CHANNEL
  N:0000H         SYMBOL        CONST_SE_RXBUF
  N:0000H         SYMBOL        CONST_SE_TXBUF
  N:0000H         SYMBOL        CONST_SOF
  N:0014H         SYMBOL        CONST_SOFTBYTESP
  N:0010H         SYMBOL        CONST_SOFTFIRSTSCANTIME
  N:00FFH         SYMBOL        CONST_SOFTFIRSTSCANTIMEXX
  N:0070H         SYMBOL        CONST_SOFTSECOND
  N:000CH         SYMBOL        CONST_SSRC_FID
  N:0007H         SYMBOL        CONST_STATE_5823INIER
  N:0008H         SYMBOL        CONST_STATE_5823SLEEPER
  N:0003H         SYMBOL        CONST_STATE_ACCEPTOVER
  N:0004H         SYMBOL        CONST_STATE_ACCEPTOVERLEN
  N:0006H         SYMBOL        CONST_STATE_ACTCARDINVALID
  N:0004H         SYMBOL        CONST_STATE_ACTIVEFAIL
  N:0006H         SYMBOL        CONST_STATE_AUTHER
  N:001DH         SYMBOL        CONST_STATE_BASE01ANTICOLL
  N:0015H         SYMBOL        CONST_STATE_BASE01CONTACT
  N:0014H         SYMBOL        CONST_STATE_BASE01ESAMDF01
BL51 BANKED LINKER/LOCATER V6.05                                                      09/23/2016  17:07:17  PAGE 8


  N:001FH         SYMBOL        CONST_STATE_BASE01RATS
  N:001CH         SYMBOL        CONST_STATE_BASE01RE
  N:001EH         SYMBOL        CONST_STATE_BASE01SEL
  N:0019H         SYMBOL        CONST_STATE_BASE02ANTICOLL
  N:0016H         SYMBOL        CONST_STATE_BASE02CONTACT
  N:001BH         SYMBOL        CONST_STATE_BASE02RATS
  N:0018H         SYMBOL        CONST_STATE_BASE02RE
  N:001AH         SYMBOL        CONST_STATE_BASE02SEL
  N:000BH         SYMBOL        CONST_STATE_BASEESAMDF01
  N:0013H         SYMBOL        CONST_STATE_BASEN01INIT
  N:000AH         SYMBOL        CONST_STATE_BASENINIT
  N:000DH         SYMBOL        CONST_STATE_CARDPREDEAL0002
  N:000EH         SYMBOL        CONST_STATE_CARDPREDEAL0012
  N:000FH         SYMBOL        CONST_STATE_CARDPREDEAL0015
  N:0010H         SYMBOL        CONST_STATE_CARDPREDEAL0019
  N:000CH         SYMBOL        CONST_STATE_CARDPREDEAL1001
  N:0011H         SYMBOL        CONST_STATE_CARDPREDEAL3F00
  N:0012H         SYMBOL        CONST_STATE_CARDPREDEAL81
  N:0023H         SYMBOL        CONST_STATE_ESAMER
  N:0021H         SYMBOL        CONST_STATE_EXMEMORYER
  N:0022H         SYMBOL        CONST_STATE_EXMEMORYER02
  N:00FFH         SYMBOL        CONST_STATE_FALSE
  N:0009H         SYMBOL        CONST_STATE_GETSECURESELFILEER
  N:0005H         SYMBOL        CONST_STATE_ILLEGALACTCARD
  N:0002H         SYMBOL        CONST_STATE_ILLEGALINPUTCARD
  N:0003H         SYMBOL        CONST_STATE_INPUTCARDINVALID
  N:0001H         SYMBOL        CONST_STATE_INPUTFAIL
  N:0020H         SYMBOL        CONST_STATE_MEMORYER
  N:0005H         SYMBOL        CONST_STATE_RSTCPUER
  N:0001H         SYMBOL        CONST_STATE_SERIALACCPET
  N:0002H         SYMBOL        CONST_STATE_SERIALOVERTIME
  N:0017H         SYMBOL        CONST_STATE_TEST
  N:0000H         SYMBOL        CONST_STATE_TRUE
  N:0055H         SYMBOL        CONST_SYS_55
  N:00AAH         SYMBOL        CONST_SYS_AA
  N:0004H         SYMBOL        CONST_SYS_OBUIDLEN
  N:000AH         SYMBOL        CONST_SYS_POWERONTIMER
  N:0088H         SYMBOL        CONST_SYS_PREFLAG
  N:0064H         SYMBOL        CONST_SYS_RTCOVERTIME
  N:00FFH         SYMBOL        CONST_SYS_TRADECONFINE
  N:0001H         SYMBOL        CONST_TIMEER02
  N:00FEH         SYMBOL        CONST_TIMEER03
  N:0001H         SYMBOL        CONST_TIMEER04
  N:00FFH         SYMBOL        CONST_VSTLIMIT
  N:0000H         SYMBOL        CONST_WHITE_H
  N:0031H         SYMBOL        CONST_WHITE_L
  N:0000H         SYMBOL        CONST_WORKSTAION_0
  N:0001H         SYMBOL        CONST_WORKSTAION_1
  N:0002H         SYMBOL        CONST_WORKSTAION_2
  N:0003H         SYMBOL        CONST_WORKSTAION_3
  N:0000H         SYMBOL        CONST_XDATA_TXBUF02
  N:0080H         SYMBOL        CONST_XDATA_TXBUF02LEN
  N:007DH         SYMBOL        CON_LEN_BUFLEN
  B:00D8H.6       SYMBOL        CR
  D:001EH         SYMBOL        DATA_NCONTACTTYPE
  D:0029H         SYMBOL        DATA_RXBUFCPUSTART
  D:0008H         SYMBOL        DATA_VER
BL51 BANKED LINKER/LOCATER V6.05                                                      09/23/2016  17:07:17  PAGE 9


  D:0008H         SYMBOL        DATA_WORKBUF2
  D:0083H         SYMBOL        DPH
  D:0082H         SYMBOL        DPL
  C:39B6H         SYMBOL        DR_00_0D
  C:39C1H         SYMBOL        DR_00_0D0EOV
  C:39BEH         SYMBOL        DR_00_0E
  B:00A8H.7       SYMBOL        EA
  B:00A8H.6       SYMBOL        EPCAI
  B:00A8H.6       SYMBOL        EPCA_LVD
  B:00A8H.4       SYMBOL        ES
  B:00A8H.1       SYMBOL        ET0
  B:00A8H.3       SYMBOL        ET1
  B:00A8H.0       SYMBOL        EX0
  B:00A8H.2       SYMBOL        EX1
  C:281EH         SYMBOL        FUN_OBUMAIN_RST
  I:00A8H         SYMBOL        IDATA_POWUP
  I:0080H         SYMBOL        IDATA_RXBUFTWOBLOCK
  I:00A6H         SYMBOL        IDATA_RXCRC
  I:00A9H         SYMBOL        IDATA_STACK
  X:0080H         SYMBOL        IDATA_TXCRC
  D:00A8H         SYMBOL        IE
  B:0088H.1       SYMBOL        IE0
  B:0088H.3       SYMBOL        IE1
  N:00AFH         SYMBOL        IE2
  C:2718H         SYMBOL        INCARD_POWUP
  C:272CH         SYMBOL        INCARD_POWUP_1
  C:72BEH         SYMBOL        INT_INSERTACTIVE
  C:72D4H         SYMBOL        INT_INSERTACTIVE_OVER
  C:72D5H         SYMBOL        INT_INSERTACTIVE_RET
  C:728DH         SYMBOL        INT_INVALID
  C:72F3H         SYMBOL        INT_T0_OVER
  C:72F4H         SYMBOL        INT_T0_RET
  C:72D8H         SYMBOL        INT_TIMER0
  C:72FAH         SYMBOL        INT_UNIXACTIVE
  C:731AH         SYMBOL        INT_UNIXACTIVE_01
  C:732EH         SYMBOL        INT_UNIXACTIVE_OVER
  C:72F7H         SYMBOL        INT_UNIXACTIVE_OVER2
  C:72A6H         SYMBOL        INT_WAVEACTIVE
  C:72A9H         SYMBOL        INT_WAVEACTIVE_S
  D:00B8H         SYMBOL        IP
  N:00B7H         SYMBOL        IPH
  N:00C7H         SYMBOL        ISP_CONTR
  B:0088H.0       SYMBOL        IT0
  B:0088H.2       SYMBOL        IT1
  C:335CH         SYMBOL        OBUMAIN_BASEINIT02_ESAMERRRR
  C:3364H         SYMBOL        OBUMAIN_BASEINIT02_ESAMRIGHT
  C:3287H         SYMBOL        OBUMAIN_BASEINIT02_INITCONTACT
  C:327EH         SYMBOL        OBUMAIN_BASEINIT02_INITCONTACTSEC
  C:3276H         SYMBOL        OBUMAIN_BASEINIT02_INITESAMCARD
  C:329BH         SYMBOL        OBUMAIN_BASEINIT02_INITNCONTACT
  C:3313H         SYMBOL        OBUMAIN_BASEINIT02_INITNCONTACTOVER
  C:3298H         SYMBOL        OBUMAIN_BASEINIT02_INITNCONTACTSEC
  C:3279H         SYMBOL        OBUMAIN_BASEINIT02_INITUSERCARD
  C:32EEH         SYMBOL        OBUMAIN_BASEINIT02_ISPRO
  C:3366H         SYMBOL        OBUMAIN_BASEINIT02_OVER02
  C:3317H         SYMBOL        OBUMAIN_BASEINIT02_PPS
  C:32D4H         SYMBOL        OBUMAIN_BASEINIT02_REQUEST
BL51 BANKED LINKER/LOCATER V6.05                                                      09/23/2016  17:07:17  PAGE 10


  C:32D2H         SYMBOL        OBUMAIN_BASEINIT02_REQUEST01
  C:3317H         SYMBOL        OBUMAIN_BASEINIT02_SELECTDF01
  C:3321H         SYMBOL        OBUMAIN_BASEINIT02_SELECTDF0102
  C:325DH         SYMBOL        OBUMAIN_BASEINIT02_TAMPERED
  C:325FH         SYMBOL        OBUMAIN_BASEINIT02_TAMPEREDOVER
  C:3603H         SYMBOL        OBUMAIN_BASEINIT_ESAMSYSINFOERR
  C:31B6H         SYMBOL        OBUMAIN_BASEINIT_INITCONTACT
  C:31B1H         SYMBOL        OBUMAIN_BASEINIT_INITCONTACTSEC
  C:31A9H         SYMBOL        OBUMAIN_BASEINIT_INITESAMCARD
  C:31C9H         SYMBOL        OBUMAIN_BASEINIT_INITNCONTACT
  C:3229H         SYMBOL        OBUMAIN_BASEINIT_INITNCONTACTOVER
  C:31C6H         SYMBOL        OBUMAIN_BASEINIT_INITNCONTACTSEC
  C:3227H         SYMBOL        OBUMAIN_BASEINIT_INITNSELDF01
  C:31ACH         SYMBOL        OBUMAIN_BASEINIT_INITUSERCARD
  C:3205H         SYMBOL        OBUMAIN_BASEINIT_ISPRO
  C:3230H         SYMBOL        OBUMAIN_BASEINIT_OVER
  C:3230H         SYMBOL        OBUMAIN_BASEINIT_OVER02
  C:322DH         SYMBOL        OBUMAIN_BASEINIT_PPS
  C:31EBH         SYMBOL        OBUMAIN_BASEINIT_REQUEST
  C:31E9H         SYMBOL        OBUMAIN_BASEINIT_REQUEST01
  C:322DH         SYMBOL        OBUMAIN_BASEINIT_SELECTDF01
  C:3182H         SYMBOL        OBUMAIN_BASEINIT_TAMPERED
  C:3184H         SYMBOL        OBUMAIN_BASEINIT_TAMPEREDOVER
  C:37A5H         SYMBOL        OBUMAIN_BEEP_APPAGAIN
  C:375AH         SYMBOL        OBUMAIN_BEEP_B
  C:377FH         SYMBOL        OBUMAIN_BEEP_ERR
  C:378EH         SYMBOL        OBUMAIN_BEEP_OVER
  C:3764H         SYMBOL        OBUMAIN_BEEP_SECUEED
  C:3767H         SYMBOL        OBUMAIN_BEEP_SECUEEDKQ
  C:377DH         SYMBOL        OBUMAIN_BEEP_SECUEEDKQOVER
  C:3778H         SYMBOL        OBUMAIN_BEEP_SECUEEDNOKQ
  C:2AE1H         SYMBOL        OBUMAIN_CARDACTIVE_0019IN
  C:28A2H         SYMBOL        OBUMAIN_CARDACTIVE_03
  C:29ABH         SYMBOL        OBUMAIN_CARDACTIVE_ACTIVEESAMHTHOK
  C:2946H         SYMBOL        OBUMAIN_CARDACTIVE_ACTIVEOBU
  C:2961H         SYMBOL        OBUMAIN_CARDACTIVE_ACTIVEOBU01
  C:29BFH         SYMBOL        OBUMAIN_CARDACTIVE_ACTIVEOVER
  C:2995H         SYMBOL        OBUMAIN_CARDACTIVE_ACTIVESELDF01OK
  C:2B25H         SYMBOL        OBUMAIN_CARDACTIVE_BEEP
  C:2B33H         SYMBOL        OBUMAIN_CARDACTIVE_BEEPLOOP
  C:29CCH         SYMBOL        OBUMAIN_CARDACTIVE_CARDDIS
  C:2895H         SYMBOL        OBUMAIN_CARDACTIVE_CARDDISZZ
  C:2A3BH         SYMBOL        OBUMAIN_CARDACTIVE_CMPHVCPLOOP
  C:29EAH         SYMBOL        OBUMAIN_CARDACTIVE_DISANDPOWERDOWN
  C:2B6DH         SYMBOL        OBUMAIN_CARDACTIVE_DISOVER
  C:28A5H         SYMBOL        OBUMAIN_CARDACTIVE_GDFXOBU
  C:28C0H         SYMBOL        OBUMAIN_CARDACTIVE_GDFXOBU01
  C:28F1H         SYMBOL        OBUMAIN_CARDACTIVE_GDFXOBUDISHV
  C:2B1AH         SYMBOL        OBUMAIN_CARDACTIVE_HVDIF
  C:2ADBH         SYMBOL        OBUMAIN_CARDACTIVE_INNEW
  C:2AD3H         SYMBOL        OBUMAIN_CARDACTIVE_INOLD
  C:2A87H         SYMBOL        OBUMAIN_CARDACTIVE_INSERT
  C:2A9EH         SYMBOL        OBUMAIN_CARDACTIVE_INSERT02
  C:2AB9H         SYMBOL        OBUMAIN_CARDACTIVE_INSERT03
  C:2B53H         SYMBOL        OBUMAIN_CARDACTIVE_KPCW
  C:2A7AH         SYMBOL        OBUMAIN_CARDACTIVE_LOWVO
  C:2B60H         SYMBOL        OBUMAIN_CARDACTIVE_NOCARD
BL51 BANKED LINKER/LOCATER V6.05                                                      09/23/2016  17:07:17  PAGE 11


  C:2B6BH         SYMBOL        OBUMAIN_CARDACTIVE_OVER
  C:2B44H         SYMBOL        OBUMAIN_CARDACTIVE_OVEROV
  C:291BH         SYMBOL        OBUMAIN_CARDACTIVE_READESAMHTHOK
  C:292FH         SYMBOL        OBUMAIN_CARDACTIVE_READOVER
  C:2905H         SYMBOL        OBUMAIN_CARDACTIVE_READSELDF01OK
  C:286EH         SYMBOL        OBUMAIN_CARDACTIVE_REBEACONID
  C:2873H         SYMBOL        OBUMAIN_CARDACTIVE_REBEACONID22
  C:2880H         SYMBOL        OBUMAIN_CARDACTIVE_REBEACONIDOVER
  C:2A27H         SYMBOL        OBUMAIN_CARDACTIVE_RXESAMHV
  C:2A11H         SYMBOL        OBUMAIN_CARDACTIVE_RXESAMHV1
  C:2B46H         SYMBOL        OBUMAIN_CARDACTIVE_SC
  C:2A5BH         SYMBOL        OBUMAIN_CARDACTIVE_SETOVLOW
  C:285DH         SYMBOL        OBUMAIN_CARDACTIVE_START
  C:2886H         SYMBOL        OBUMAIN_CARDACTIVE_ZC
  C:2B01H         SYMBOL        OBUMAIN_CARDACTIVE_ZCKQ
  C:2B17H         SYMBOL        OBUMAIN_CARDACTIVE_ZCKQOVER
  C:2B12H         SYMBOL        OBUMAIN_CARDACTIVE_ZCNOKQ
  C:288CH         SYMBOL        OBUMAIN_CARDACTIVE_ZCZZ
  C:390AH         SYMBOL        OBUMAIN_CARDINFODISPLAY02_0019IN
  C:381FH         SYMBOL        OBUMAIN_CARDINFODISPLAY02_CARDINFO
  C:3841H         SYMBOL        OBUMAIN_CARDINFODISPLAY02_CASHCARD
  C:387DH         SYMBOL        OBUMAIN_CARDINFODISPLAY02_CASHCARDCPV
  C:3806H         SYMBOL        OBUMAIN_CARDINFODISPLAY02_CKOVER
  C:37E7H         SYMBOL        OBUMAIN_CARDINFODISPLAY02_CPBF
  C:3829H         SYMBOL        OBUMAIN_CARDINFODISPLAY02_GETCPUINFO
  C:392AH         SYMBOL        OBUMAIN_CARDINFODISPLAY02_IN
  C:383EH         SYMBOL        OBUMAIN_CARDINFODISPLAY02_INFO
  C:3904H         SYMBOL        OBUMAIN_CARDINFODISPLAY02_INNEW
  C:38FCH         SYMBOL        OBUMAIN_CARDINFODISPLAY02_INOLD
  C:388EH         SYMBOL        OBUMAIN_CARDINFODISPLAY02_MONEY
  C:3806H         SYMBOL        OBUMAIN_CARDINFODISPLAY02_NOCARDINFO
  C:381CH         SYMBOL        OBUMAIN_CARDINFODISPLAY02_NOCARDSETMMIOV
  C:38D1H         SYMBOL        OBUMAIN_CARDINFODISPLAY02_OTHER
  C:38DFH         SYMBOL        OBUMAIN_CARDINFODISPLAY02_OVER
  C:3937H         SYMBOL        OBUMAIN_CARDINFODISPLAY02_OVER02
  C:38AFH         SYMBOL        OBUMAIN_CARDINFODISPLAY02_PASSCARD
  C:3803H         SYMBOL        OBUMAIN_CARDINFODISPLAY02_START
  C:364FH         SYMBOL        OBUMAIN_CARDINFODISPLAY_BDCP
  C:364FH         SYMBOL        OBUMAIN_CARDINFODISPLAY_BDCPLOOP
  C:364FH         SYMBOL        OBUMAIN_CARDINFODISPLAY_BDQLLOOP
  C:3687H         SYMBOL        OBUMAIN_CARDINFODISPLAY_CARDINFO
  C:36A9H         SYMBOL        OBUMAIN_CARDINFODISPLAY_CASHCARD
  C:36E5H         SYMBOL        OBUMAIN_CARDINFODISPLAY_CASHCARDCPV
  C:366EH         SYMBOL        OBUMAIN_CARDINFODISPLAY_CKOVER
  C:364FH         SYMBOL        OBUMAIN_CARDINFODISPLAY_CPBF
  C:2880H         SYMBOL        OBUMAIN_CARDINFODISPLAY_DISPLAYINFO
  C:3691H         SYMBOL        OBUMAIN_CARDINFODISPLAY_GETCPUINFO
  C:36A6H         SYMBOL        OBUMAIN_CARDINFODISPLAY_INFO
  C:36F6H         SYMBOL        OBUMAIN_CARDINFODISPLAY_MONEY
  C:366EH         SYMBOL        OBUMAIN_CARDINFODISPLAY_NOCARDINFO
  C:3684H         SYMBOL        OBUMAIN_CARDINFODISPLAY_NOCARDSETMMIOV
  C:3729H         SYMBOL        OBUMAIN_CARDINFODISPLAY_OTHER
  C:3742H         SYMBOL        OBUMAIN_CARDINFODISPLAY_OVER
  C:370FH         SYMBOL        OBUMAIN_CARDINFODISPLAY_PASSCARD
  C:366BH         SYMBOL        OBUMAIN_CARDINFODISPLAY_START
  C:3735H         SYMBOL        OBUMAIN_CARDINFODISPLAY_TRADEERR
  C:2886H         SYMBOL        OBUMAIN_CARDINFODISPLAY_ZC
BL51 BANKED LINKER/LOCATER V6.05                                                      09/23/2016  17:07:17  PAGE 12


  C:34A0H         SYMBOL        OBUMAIN_CARDPREDEAL_0019GB
  C:34EDH         SYMBOL        OBUMAIN_CARDPREDEAL_0019GDNEW
  C:34C7H         SYMBOL        OBUMAIN_CARDPREDEAL_0019GDOLD
  C:33ACH         SYMBOL        OBUMAIN_CARDPREDEAL_COPYMONEY
  C:362BH         SYMBOL        OBUMAIN_CARDPREDEAL_ESAMPREDEALOVER
  C:364BH         SYMBOL        OBUMAIN_CARDPREDEAL_OVER
  C:3385H         SYMBOL        OBUMAIN_CARDPREDEAL_PPS
  C:3385H         SYMBOL        OBUMAIN_CARDPREDEAL_PREDEALCPUCARD
  C:3537H         SYMBOL        OBUMAIN_CARDPREDEAL_PREDEALMF
  C:3394H         SYMBOL        OBUMAIN_CARDPREDEAL_READ0002
  C:33C4H         SYMBOL        OBUMAIN_CARDPREDEAL_READ0012
  C:33E8H         SYMBOL        OBUMAIN_CARDPREDEAL_READ0015
  C:344AH         SYMBOL        OBUMAIN_CARDPREDEAL_READ0019
  C:3539H         SYMBOL        OBUMAIN_CARDPREDEAL_READBLOCK01
  C:3556H         SYMBOL        OBUMAIN_CARDPREDEAL_READBLOCK0101
  C:3556H         SYMBOL        OBUMAIN_CARDPREDEAL_READBLOCK04
  C:3556H         SYMBOL        OBUMAIN_CARDPREDEAL_READBLOCK10
  C:3374H         SYMBOL        OBUMAIN_CARDPREDEAL_READSYSINFO
  C:3556H         SYMBOL        OBUMAIN_CARDPREDEAL_RECORDCARDTYPE
  C:35E7H         SYMBOL        OBUMAIN_CARDPREDEAL_SELECT3F00R
  C:3649H         SYMBOL        OBUMAIN_CARDPREDEAL_TAMPERED
  C:364BH         SYMBOL        OBUMAIN_CARDPREDEAL_TAMPEREDOVER
  C:337CH         SYMBOL        OBUMAIN_CARDPREDEAL_USER
  C:35C2H         SYMBOL        OBUMAIN_CARDPREDEAL_USEROVER
  C:33A5H         SYMBOL        OBUMAIN_CARDPREDEAL_WRITE0002
  C:33DBH         SYMBOL        OBUMAIN_CARDPREDEAL_WRITE0012
  C:33FFH         SYMBOL        OBUMAIN_CARDPREDEAL_WRITE0015
  C:343DH         SYMBOL        OBUMAIN_CARDPREDEAL_WRITE001502
  C:34B7H         SYMBOL        OBUMAIN_CARDPREDEAL_WRITE0019GB
  C:34DEH         SYMBOL        OBUMAIN_CARDPREDEAL_WRITE0019GD
  C:3504H         SYMBOL        OBUMAIN_CARDPREDEAL_WRITE0019NEWGD
  C:3528H         SYMBOL        OBUMAIN_CARDPREDEAL_WRITE0019NEWGD2
  C:3605H         SYMBOL        OBUMAIN_CARDPREDEAL_WRITESYSINFO
  C:27D7H         SYMBOL        OBUMAIN_CDACTIVE_01
  C:27E5H         SYMBOL        OBUMAIN_CDACTIVE_DISPLAYCD
  C:27FCH         SYMBOL        OBUMAIN_CDACTIVE_DISPLAYCDOVER
  C:27E3H         SYMBOL        OBUMAIN_CDACTIVE_DISPLAYMOVE
  C:27F5H         SYMBOL        OBUMAIN_CDACTIVE_DISPLAYNCD
  C:2804H         SYMBOL        OBUMAIN_CDACTIVE_REBEACONID
  C:2814H         SYMBOL        OBUMAIN_CDACTIVE_REBEACONIDOVER
  C:2816H         SYMBOL        OBUMAIN_CDACTIVE_REBEACONIDOVER02
  C:27B7H         SYMBOL        OBUMAIN_CDACTIVE_SELECT3F00
  C:3A6AH         SYMBOL        OBUMAIN_CHECKMEMORYANDEX2_CHECKMOVX
  C:3A74H         SYMBOL        OBUMAIN_CHECKMEMORYANDEX2_CHECKMOVXISOK
  C:3A81H         SYMBOL        OBUMAIN_CHECKMEMORYANDEX2_CHECKMOVXISOK2
  C:3A8FH         SYMBOL        OBUMAIN_CHECKMEMORYANDEX_CHECKMOV
  C:3AADH         SYMBOL        OBUMAIN_CHECKMEMORYANDEX_CHECKMOVERR
  C:3A98H         SYMBOL        OBUMAIN_CHECKMEMORYANDEX_CHECKMOVISOK
  C:3AA0H         SYMBOL        OBUMAIN_CHECKMEMORYANDEX_CHECKMOVISOK2
  C:3AAAH         SYMBOL        OBUMAIN_CHECKMEMORYANDEX_CHECKMOVXERR
  C:3AB0H         SYMBOL        OBUMAIN_CHECKMEMORYANDEX_CHECKMOVXERR03
  C:39B3H         SYMBOL        OBUMAIN_DR_00
  C:39C3H         SYMBOL        OBUMAIN_DR_01
  C:39CBH         SYMBOL        OBUMAIN_DR_02
  C:39D3H         SYMBOL        OBUMAIN_DR_03
  C:39DBH         SYMBOL        OBUMAIN_DR_04
  C:39E3H         SYMBOL        OBUMAIN_DR_05
BL51 BANKED LINKER/LOCATER V6.05                                                      09/23/2016  17:07:17  PAGE 13


  C:39EBH         SYMBOL        OBUMAIN_DR_06
  C:39F3H         SYMBOL        OBUMAIN_DR_OVER
  C:3AD6H         SYMBOL        OBUMAIN_ISINSERT_OVER
  C:26C5H         SYMBOL        OBUMAIN_MASTER_CHECKED
  C:2684H         SYMBOL        OBUMAIN_MASTER_CHECKMEMORYERR
  C:2687H         SYMBOL        OBUMAIN_MASTER_CHECKMEMORYOVER
  C:26ABH         SYMBOL        OBUMAIN_MASTER_MEMORYCLR00
  C:7371H         SYMBOL        OBUMAIN_PINSLEEP_RTCOFF
  C:7359H         SYMBOL        OBUMAIN_PINSLEEP_RTCON
  C:7387H         SYMBOL        OBUMAIN_PINSLEEP_RTCSWOVER
  C:742CH         SYMBOL        OBUMAIN_PINUNSLEEP_RTCOFF
  C:7412H         SYMBOL        OBUMAIN_PINUNSLEEP_RTCON
  C:7442H         SYMBOL        OBUMAIN_PINUNSLEEP_RTCSWOVER
  C:2821H         SYMBOL        OBUMAIN_RST_OVER
  C:37CCH         SYMBOL        OBUMAIN_SELECTDF01_ESAMRIGHT
  C:37CEH         SYMBOL        OBUMAIN_SELECTDF01_OVER
  C:37AAH         SYMBOL        OBUMAIN_SYS_OVER
  C:37DEH         SYMBOL        OBUMAIN_TIMERX_OVER
  C:2B84H         SYMBOL        OBUMAIN_WAVEACTIVENOCARD_DEAL
  C:2B9CH         SYMBOL        OBUMAIN_WAVEACTIVENOCARD_YD
  C:2E2AH         SYMBOL        OBUMAIN_WAVEACTIVE_10OV
  C:2F32H         SYMBOL        OBUMAIN_WAVEACTIVE_ACTIONTYPE
  C:2E63H         SYMBOL        OBUMAIN_WAVEACTIVE_AGAINVST
  C:2E63H         SYMBOL        OBUMAIN_WAVEACTIVE_AGAINVSTCON
  C:2D53H         SYMBOL        OBUMAIN_WAVEACTIVE_BEACONID
  C:2E42H         SYMBOL        OBUMAIN_WAVEACTIVE_BEACONID2
  C:2E10H         SYMBOL        OBUMAIN_WAVEACTIVE_BROADCAST
  C:2E7DH         SYMBOL        OBUMAIN_WAVEACTIVE_BROADCAST00
  C:2E86H         SYMBOL        OBUMAIN_WAVEACTIVE_BROADCAST01
  C:2E8FH         SYMBOL        OBUMAIN_WAVEACTIVE_BROADCAST02
  C:2E98H         SYMBOL        OBUMAIN_WAVEACTIVE_BROADCAST03
  C:2E3CH         SYMBOL        OBUMAIN_WAVEACTIVE_BROADCASTOV
  C:2E22H         SYMBOL        OBUMAIN_WAVEACTIVE_BST10
  C:2E27H         SYMBOL        OBUMAIN_WAVEACTIVE_BST100
  C:2E32H         SYMBOL        OBUMAIN_WAVEACTIVE_BSTOVER
  C:2FD9H         SYMBOL        OBUMAIN_WAVEACTIVE_DESL
  C:309EH         SYMBOL        OBUMAIN_WAVEACTIVE_DIP
  C:302CH         SYMBOL        OBUMAIN_WAVEACTIVE_DIP1
  C:304FH         SYMBOL        OBUMAIN_WAVEACTIVE_DIP2
  C:3079H         SYMBOL        OBUMAIN_WAVEACTIVE_DIP3
  C:3099H         SYMBOL        OBUMAIN_WAVEACTIVE_DIP4
  C:3017H         SYMBOL        OBUMAIN_WAVEACTIVE_DISPLAY
  C:2F1AH         SYMBOL        OBUMAIN_WAVEACTIVE_DSRCSENDOLD
  C:30A1H         SYMBOL        OBUMAIN_WAVEACTIVE_END
  C:2EA4H         SYMBOL        OBUMAIN_WAVEACTIVE_FRISTRX
  C:2EF5H         SYMBOL        OBUMAIN_WAVEACTIVE_FRISTRX02
  C:2CD3H         SYMBOL        OBUMAIN_WAVEACTIVE_GETBST
  C:2F79H         SYMBOL        OBUMAIN_WAVEACTIVE_GETRAND
  C:2F38H         SYMBOL        OBUMAIN_WAVEACTIVE_GETSECURE
  C:2DDDH         SYMBOL        OBUMAIN_WAVEACTIVE_HDLCTX01OVER
  C:2DDDH         SYMBOL        OBUMAIN_WAVEACTIVE_LOOP
  C:2F12H         SYMBOL        OBUMAIN_WAVEACTIVE_NBITHIGH
  C:2F17H         SYMBOL        OBUMAIN_WAVEACTIVE_NBITLOW
  C:2F30H         SYMBOL        OBUMAIN_WAVEACTIVE_NBITOVER
  C:2FE2H         SYMBOL        OBUMAIN_WAVEACTIVE_NOEA02X
  C:2DF0H         SYMBOL        OBUMAIN_WAVEACTIVE_NOEAOV
  C:2F2DH         SYMBOL        OBUMAIN_WAVEACTIVE_NOEAOV01
BL51 BANKED LINKER/LOCATER V6.05                                                      09/23/2016  17:07:17  PAGE 14


  C:2F28H         SYMBOL        OBUMAIN_WAVEACTIVE_NOSETMMI
  C:2E72H         SYMBOL        OBUMAIN_WAVEACTIVE_NOTBROADCAST
  C:2FD9H         SYMBOL        OBUMAIN_WAVEACTIVE_OTHER
  C:2D9EH         SYMBOL        OBUMAIN_WAVEACTIVE_OVDELAY
  C:2FE5H         SYMBOL        OBUMAIN_WAVEACTIVE_OVER
  C:2F09H         SYMBOL        OBUMAIN_WAVEACTIVE_OVERZZ
  C:2E63H         SYMBOL        OBUMAIN_WAVEACTIVE_PPS
  C:2C16H         SYMBOL        OBUMAIN_WAVEACTIVE_PRE
  C:2C4FH         SYMBOL        OBUMAIN_WAVEACTIVE_PRE02
  C:2C87H         SYMBOL        OBUMAIN_WAVEACTIVE_PRE03
  C:3014H         SYMBOL        OBUMAIN_WAVEACTIVE_PREDEAL
  C:2C30H         SYMBOL        OBUMAIN_WAVEACTIVE_PREPRE
  C:2C13H         SYMBOL        OBUMAIN_WAVEACTIVE_PRESS
  C:2FD9H         SYMBOL        OBUMAIN_WAVEACTIVE_RESPONSE
  C:2D3FH         SYMBOL        OBUMAIN_WAVEACTIVE_RXBST
  C:2F64H         SYMBOL        OBUMAIN_WAVEACTIVE_SE1001ED
  C:2F4AH         SYMBOL        OBUMAIN_WAVEACTIVE_SE1001PPS
  C:2EF7H         SYMBOL        OBUMAIN_WAVEACTIVE_SECONDRX
  C:2F41H         SYMBOL        OBUMAIN_WAVEACTIVE_SELECT1001
  C:2F6FH         SYMBOL        OBUMAIN_WAVEACTIVE_SELECTED
  C:2D6EH         SYMBOL        OBUMAIN_WAVEACTIVE_SENDVST
  C:2E5DH         SYMBOL        OBUMAIN_WAVEACTIVE_SENDVST2
  C:2FBEH         SYMBOL        OBUMAIN_WAVEACTIVE_SETMMI
  C:2DEAH         SYMBOL        OBUMAIN_WAVEACTIVE_SETMMIEA
  C:2F74H         SYMBOL        OBUMAIN_WAVEACTIVE_SETSECURE
  C:2E60H         SYMBOL        OBUMAIN_WAVEACTIVE_SLEEP
  C:2DA2H         SYMBOL        OBUMAIN_WAVEACTIVE_SPANESAMRST
  C:2DABH         SYMBOL        OBUMAIN_WAVEACTIVE_SPANESAMRSTH
  C:2DADH         SYMBOL        OBUMAIN_WAVEACTIVE_SPANESAMRSTHH
  C:2FD1H         SYMBOL        OBUMAIN_WAVEACTIVE_SWGSM
  C:2D1BH         SYMBOL        OBUMAIN_WAVEACTIVE_TAMPERED
  C:2D1DH         SYMBOL        OBUMAIN_WAVEACTIVE_TAMPEREDOVER
  C:2F7EH         SYMBOL        OBUMAIN_WAVEACTIVE_TRANSFERCHANNEL
  C:2FA7H         SYMBOL        OBUMAIN_WAVEACTIVE_TRANSFERCHANNELSELOV
  C:2FB9H         SYMBOL        OBUMAIN_WAVEACTIVE_TRANSFERPPS02
  C:2F8AH         SYMBOL        OBUMAIN_WAVEACTIVE_TRANSFERSEL1001
  C:2FB0H         SYMBOL        OBUMAIN_WAVEACTIVE_TRANSFERSELECTED
  C:2DBCH         SYMBOL        OBUMAIN_WAVEACTIVE_TXONE
  C:2C0DH         SYMBOL        OBUMAIN_WAVEACTIVE_VOLNORMAL
  C:2F0CH         SYMBOL        OBUMAIN_WAVEACTIVE_ZC01
  C:2CF7H         SYMBOL        OBUMAIN_WAVEACTIVE_ZLYD
  D:0080H         SYMBOL        P0
  D:0090H         SYMBOL        P1
  D:00A0H         SYMBOL        P2
  D:00B0H         SYMBOL        P3
  N:00C0H         SYMBOL        P4
  N:00F2H         SYMBOL        PCA_PWM0
  N:00F3H         SYMBOL        PCA_PWM1
  N:00F4H         SYMBOL        PCA_PWM2
  N:00F5H         SYMBOL        PCA_PWM3
  N:00F6H         SYMBOL        PCA_PWM4
  N:00F7H         SYMBOL        PCA_PWM5
  D:0087H         SYMBOL        PCON
  B:0080H.4       SYMBOL        PIN_522_MISO
  B:0080H.5       SYMBOL        PIN_522_MOSI
  B:00C0H.6       SYMBOL        PIN_522_RST
  B:0080H.7       SYMBOL        PIN_522_SCLK
BL51 BANKED LINKER/LOCATER V6.05                                                      09/23/2016  17:07:17  PAGE 15


  B:0080H.6       SYMBOL        PIN_522_SS
  B:0090H.0       SYMBOL        PIN_5823BK_CS
  B:0090H.2       SYMBOL        PIN_5823BK_IRQ
  B:0080H.0       SYMBOL        PIN_5823BK_MISO
  B:0080H.1       SYMBOL        PIN_5823BK_MOSI
  B:00C0H.2       SYMBOL        PIN_5823BK_SCLK
  B:0080H.3       SYMBOL        PIN_BELL_01
  B:0080H.2       SYMBOL        PIN_BELL_02
  B:0090H.1       SYMBOL        PIN_BK_CE
  B:00B0H.3       SYMBOL        PIN_CARD_EXIST
  B:0090H.6       SYMBOL        PIN_CC1101_GDO2
  B:00B0H.7       SYMBOL        PIN_CC1101_MISO
  B:00A0H.3       SYMBOL        PIN_CC1101_MOSI
  B:00A0H.2       SYMBOL        PIN_CC1101_SCLK
  B:00B0H.6       SYMBOL        PIN_CC1101_SS
  B:00A0H.5       SYMBOL        PIN_ESAM_RST
  B:00A0H.6       SYMBOL        PIN_ESAM_RX
  B:00A0H.6       SYMBOL        PIN_ESAM_TX
  B:00C0H.5       SYMBOL        PIN_GRE
  B:0090H.4       SYMBOL        PIN_LCD_CS
  B:0090H.7       SYMBOL        PIN_LCD_DC
  B:0090H.5       SYMBOL        PIN_LCD_RST
  B:00B0H.4       SYMBOL        PIN_LCD_SCL
  B:00C0H.3       SYMBOL        PIN_LCD_SDA
  B:00A0H.7       SYMBOL        PIN_PWRDWN
  B:0090H.3       SYMBOL        PIN_PWRDWN_LCD
  B:00A0H.4       SYMBOL        PIN_PWR_GSM
  B:00A0H.1       SYMBOL        PIN_PWR_LOWIO
  B:00C0H.1       SYMBOL        PIN_RED
  B:00B0H.0       SYMBOL        PIN_SOFTSERIALRX
  B:00B0H.1       SYMBOL        PIN_SOFTSERIALTXH
  B:00B0H.5       SYMBOL        PIN_UNFIX
  B:00A0H.0       SYMBOL        PIN_WAVE_CHANNEL1
  D:00D0H         SYMBOL        PSW
  N:00C0H         SYMBOL        READ_BURST
  N:00A2H         SYMBOL        REG_51_AUXR1
  N:008EH         SYMBOL        REG_5412AD_AUXR
  N:0094H         SYMBOL        REG_5412AD_P0M0
  N:0093H         SYMBOL        REG_5412AD_P0M1
  N:0092H         SYMBOL        REG_5412AD_P1M0
  N:0091H         SYMBOL        REG_5412AD_P1M1
  N:0096H         SYMBOL        REG_5412AD_P2M0
  N:0095H         SYMBOL        REG_5412AD_P2M1
  N:00B2H         SYMBOL        REG_5412AD_P3M0
  N:00B1H         SYMBOL        REG_5412AD_P3M1
  N:00B4H         SYMBOL        REG_5412AD_P4M0
  N:00B3H         SYMBOL        REG_5412AD_P4M1
  N:00BBH         SYMBOL        REG_5412AD_P4SW
  N:0085H         SYMBOL        REG_5412AD_SPCTL
  N:0086H         SYMBOL        REG_5412AD_SPDAT
  N:0084H         SYMBOL        REG_5412AD_SPSTAT
  N:00ABH         SYMBOL        REG_MCU_WKCTH
  N:00AAH         SYMBOL        REG_MCU_WKCTL
  N:000DH         SYMBOL        REG_RC522_BITFRAMINGREG
  N:000EH         SYMBOL        REG_RC522_COLLREG
  N:0002H         SYMBOL        REG_RC522_COMIENREG
  N:0004H         SYMBOL        REG_RC522_COMIRQREG
BL51 BANKED LINKER/LOCATER V6.05                                                      09/23/2016  17:07:17  PAGE 16


  N:0001H         SYMBOL        REG_RC522_COMMANDREG
  N:000CH         SYMBOL        REG_RC522_CONTROLREG
  N:0021H         SYMBOL        REG_RC522_CRCRESULTREGH
  N:0022H         SYMBOL        REG_RC522_CRCRESULTREGL
  N:0028H         SYMBOL        REG_RC522_CWGSPREG
  N:0019H         SYMBOL        REG_RC522_DEMODREG
  N:0003H         SYMBOL        REG_RC522_DIVIENREG
  N:0005H         SYMBOL        REG_RC522_DIVIRQREG
  N:0006H         SYMBOL        REG_RC522_ERRORREG
  N:0009H         SYMBOL        REG_RC522_FIFODATAREG
  N:000AH         SYMBOL        REG_RC522_FIFOLEVELREG
  N:0027H         SYMBOL        REG_RC522_GSNREG
  N:001CH         SYMBOL        REG_RC522_MIFAREREG
  N:0011H         SYMBOL        REG_RC522_MODEREG
  N:0029H         SYMBOL        REG_RC522_MODGSPREG
  N:0024H         SYMBOL        REG_RC522_MODWIDTHREG
  N:0000H         SYMBOL        REG_RC522_RC522PAGE
  N:0026H         SYMBOL        REG_RC522_RFCFGREG
  N:000FH         SYMBOL        REG_RC522_RFU
  N:0013H         SYMBOL        REG_RC522_RXMODEREG
  N:0017H         SYMBOL        REG_RC522_RXSELREG
  N:0018H         SYMBOL        REG_RC522_RXTHRESHOLDREG
  N:001FH         SYMBOL        REG_RC522_SERIALSPEEDREG
  N:0007H         SYMBOL        REG_RC522_STATUS1REG
  N:0008H         SYMBOL        REG_RC522_STATUS2REG
  N:002EH         SYMBOL        REG_RC522_TCOUNTERVALUEREGH
  N:002FH         SYMBOL        REG_RC522_TCOUNTERVALUEREGL
  N:002AH         SYMBOL        REG_RC522_TMODEREG
  N:002BH         SYMBOL        REG_RC522_TPRESCALERREG
  N:002CH         SYMBOL        REG_RC522_TRELOADREGH
  N:002DH         SYMBOL        REG_RC522_TRELOADREGL
  N:0015H         SYMBOL        REG_RC522_TXAUTOREG
  N:0014H         SYMBOL        REG_RC522_TXCONTROLREG
  N:0012H         SYMBOL        REG_RC522_TXMODEREG
  N:0016H         SYMBOL        REG_RC522_TXSELREG
  N:000BH         SYMBOL        REG_RC522_WATERLEVELREG
  N:009CH         SYMBOL        REG_SYS_BRT
  N:008FH         SYMBOL        REG_WAKECLK0
  B:00D8H.4       SYMBOL        REG_WAKECLK_04
  B:00D8H.5       SYMBOL        REG_WAKECLK_05
  N:00C1H         SYMBOL        REG_WDT_CONTR
  N:00EAH         SYMBOL        RELOAD2_CONTR
  B:0098H.4       SYMBOL        REN
  B:0098H.0       SYMBOL        RI
  B:00D0H.3       SYMBOL        RS0
  B:00D0H.4       SYMBOL        RS1
  N:009BH         SYMBOL        S2BUF
  N:009AH         SYMBOL        S2CON
  D:0098H         SYMBOL        SCON
  C:282FH         SYMBOL        SEG_OBUMAIN_CARDACTIVE
  C:27A1H         SYMBOL        SEG_OBUMAIN_CDACTIVE
  C:2BBBH         SYMBOL        SEG_OBUMAIN_WAVEACTIVE
  D:0081H         SYMBOL        SP
  C:2777H         SYMBOL        START_USER02
  C:792AH         SYMBOL        STR_CARDAPP_TIME
  C:792FH         SYMBOL        STR_CARDAPP_TIME02
  C:7934H         SYMBOL        STR_CMDUP
BL51 BANKED LINKER/LOCATER V6.05                                                      09/23/2016  17:07:17  PAGE 17


  C:7927H         SYMBOL        STR_DSRC_DF
  C:7921H         SYMBOL        STR_DSRC_SELDF
  C:7900H         SYMBOL        STR_READBLOCK01
  C:790BH         SYMBOL        STR_READBLOCK04
  C:7916H         SYMBOL        STR_READBLOCK10
  D:0088H         SYMBOL        TCON
  B:0088H.5       SYMBOL        TF0
  B:0088H.7       SYMBOL        TF1
  D:008CH         SYMBOL        TH0
  D:008DH         SYMBOL        TH1
  B:0098H.1       SYMBOL        TI
  N:0009H         SYMBOL        TI_CCXXX0_ADDR
  N:001DH         SYMBOL        TI_CCXXX0_AGCCTRL0
  N:001CH         SYMBOL        TI_CCXXX0_AGCCTRL1
  N:001BH         SYMBOL        TI_CCXXX0_AGCCTRL2
  N:002BH         SYMBOL        TI_CCXXX0_AGCTEST
  N:001AH         SYMBOL        TI_CCXXX0_BSCFG
  N:000AH         SYMBOL        TI_CCXXX0_CHANNR
  N:0015H         SYMBOL        TI_CCXXX0_DEVIATN
  N:0003H         SYMBOL        TI_CCXXX0_FIFOTHR
  N:0019H         SYMBOL        TI_CCXXX0_FOCCFG
  N:0022H         SYMBOL        TI_CCXXX0_FREND0
  N:0021H         SYMBOL        TI_CCXXX0_FREND1
  N:000FH         SYMBOL        TI_CCXXX0_FREQ0
  N:000EH         SYMBOL        TI_CCXXX0_FREQ1
  N:000DH         SYMBOL        TI_CCXXX0_FREQ2
  N:0032H         SYMBOL        TI_CCXXX0_FREQEST
  N:0026H         SYMBOL        TI_CCXXX0_FSCAL0
  N:0025H         SYMBOL        TI_CCXXX0_FSCAL1
  N:0024H         SYMBOL        TI_CCXXX0_FSCAL2
  N:0023H         SYMBOL        TI_CCXXX0_FSCAL3
  N:000CH         SYMBOL        TI_CCXXX0_FSCTRL0
  N:000BH         SYMBOL        TI_CCXXX0_FSCTRL1
  N:0029H         SYMBOL        TI_CCXXX0_FSTEST
  N:0002H         SYMBOL        TI_CCXXX0_IOCFG0
  N:0001H         SYMBOL        TI_CCXXX0_IOCFG1
  N:0000H         SYMBOL        TI_CCXXX0_IOCFG2
  N:0033H         SYMBOL        TI_CCXXX0_LQI
  N:0035H         SYMBOL        TI_CCXXX0_MARCSTATE
  N:0018H         SYMBOL        TI_CCXXX0_MCSM0
  N:0017H         SYMBOL        TI_CCXXX0_MCSM1
  N:0016H         SYMBOL        TI_CCXXX0_MCSM2
  N:0014H         SYMBOL        TI_CCXXX0_MDMCFG0
  N:0013H         SYMBOL        TI_CCXXX0_MDMCFG1
  N:0012H         SYMBOL        TI_CCXXX0_MDMCFG2
  N:0011H         SYMBOL        TI_CCXXX0_MDMCFG3
  N:0010H         SYMBOL        TI_CCXXX0_MDMCFG4
  N:007FH         SYMBOL        TI_CCXXX0_NUM_RXBYTES
  N:0030H         SYMBOL        TI_CCXXX0_PARTNUM
  N:003EH         SYMBOL        TI_CCXXX0_PATABLE
  N:0008H         SYMBOL        TI_CCXXX0_PKTCTRL0
  N:0007H         SYMBOL        TI_CCXXX0_PKTCTRL1
  N:0006H         SYMBOL        TI_CCXXX0_PKTLEN
  N:0038H         SYMBOL        TI_CCXXX0_PKTSTATUS
  N:002AH         SYMBOL        TI_CCXXX0_PTEST
  N:0028H         SYMBOL        TI_CCXXX0_RCCTRL0
  N:0027H         SYMBOL        TI_CCXXX0_RCCTRL1
BL51 BANKED LINKER/LOCATER V6.05                                                      09/23/2016  17:07:17  PAGE 18


  N:0034H         SYMBOL        TI_CCXXX0_RSSI
  N:003BH         SYMBOL        TI_CCXXX0_RXBYTES
  N:003FH         SYMBOL        TI_CCXXX0_RXFIFO
  N:0037H         SYMBOL        TI_CCXXX0_SAFC
  N:0033H         SYMBOL        TI_CCXXX0_SCAL
  N:003AH         SYMBOL        TI_CCXXX0_SFRX
  N:003BH         SYMBOL        TI_CCXXX0_SFTX
  N:0036H         SYMBOL        TI_CCXXX0_SIDLE
  N:003DH         SYMBOL        TI_CCXXX0_SNOP
  N:0039H         SYMBOL        TI_CCXXX0_SPWD
  N:0030H         SYMBOL        TI_CCXXX0_SRES
  N:0034H         SYMBOL        TI_CCXXX0_SRX
  N:0035H         SYMBOL        TI_CCXXX0_STX
  N:0038H         SYMBOL        TI_CCXXX0_SWOR
  N:003CH         SYMBOL        TI_CCXXX0_SWORRST
  N:0032H         SYMBOL        TI_CCXXX0_SXOFF
  N:0005H         SYMBOL        TI_CCXXX0_SYNC0
  N:0004H         SYMBOL        TI_CCXXX0_SYNC1
  N:002EH         SYMBOL        TI_CCXXX0_TEST0
  N:002DH         SYMBOL        TI_CCXXX0_TEST1
  N:002CH         SYMBOL        TI_CCXXX0_TEST2
  N:003AH         SYMBOL        TI_CCXXX0_TXBYTES
  N:003FH         SYMBOL        TI_CCXXX0_TXFIFO
  N:0039H         SYMBOL        TI_CCXXX0_VCO_VC_DAC
  N:0031H         SYMBOL        TI_CCXXX0_VERSION
  N:0020H         SYMBOL        TI_CCXXX0_WORCTRL
  N:001FH         SYMBOL        TI_CCXXX0_WOREVT0
  N:001EH         SYMBOL        TI_CCXXX0_WOREVT1
  N:0037H         SYMBOL        TI_CCXXX0_WORTIME0
  N:0036H         SYMBOL        TI_CCXXX0_WORTIME1
  D:008AH         SYMBOL        TL0
  D:008BH         SYMBOL        TL1
  D:0089H         SYMBOL        TMOD
  B:0088H.4       SYMBOL        TR0
  B:0088H.6       SYMBOL        TR1
  C:73E6H         SYMBOL        UNSLEEP
  N:008FH         SYMBOL        WAKE_CLKO
  C:2CAEH         SYMBOL        WAVEACTIVE_PRE03_LOOP
  C:2CC1H         SYMBOL        WAVEACTIVE_PRE03_PREDEAL
  B:00B0H.2       SYMBOL        WKO_BK
  X:0097H         SYMBOL        XDATA_BSTNUM
  X:0082H         SYMBOL        XDATA_BUF
  X:00ABH         SYMBOL        XDATA_HDDIF
  X:00A1H         SYMBOL        XDATA_LASTBEACONID
  X:00A9H         SYMBOL        XDATA_LOADCELLTOUSER
  X:0098H         SYMBOL        XDATA_SC
  X:0096H         SYMBOL        XDATA_SETMMI
  X:00A0H         SYMBOL        XDATA_SETMMINUM
  X:009DH         SYMBOL        XDATA_SP
  X:0082H         SYMBOL        XDATA_VARSTART
  X:00AAH         SYMBOL        XDATA_VSTDELAY
  X:0091H         SYMBOL        XDATA_VSTNUM
  C:393DH         SYMBOL        _FUN_CC1101_SPIOSINGLESOFT02
  C:3233H         SYMBOL        _FUN_OBUMAIN_BASEINIT02
  C:37DFH         SYMBOL        _FUN_OBUMAIN_BDCB
  C:3754H         SYMBOL        _FUN_OBUMAIN_BEEP
  C:364CH         SYMBOL        _FUN_OBUMAIN_CARDINFODISPLAY
BL51 BANKED LINKER/LOCATER V6.05                                                      09/23/2016  17:07:17  PAGE 19


  C:37E4H         SYMBOL        _FUN_OBUMAIN_CARDINFODISPLAY02
  C:3369H         SYMBOL        _FUN_OBUMAIN_CARDPREDEAL
  C:3A60H         SYMBOL        _FUN_OBUMAIN_CHECKMEMORYANDEX
  C:39B3H         SYMBOL        _FUN_OBUMAIN_DR
  C:3A28H         SYMBOL        _FUN_OBUMAIN_ERRSHOW
  C:3A5FH         SYMBOL        _FUN_OBUMAIN_ERRSHOW02
  C:39F4H         SYMBOL        _FUN_OBUMAIN_ERRSHOW03
  C:3AB3H         SYMBOL        _FUN_OBUMAIN_ISINSERT
  C:732FH         SYMBOL        _FUN_OBUMAIN_PINSLEEP
  C:73E6H         SYMBOL        _FUN_OBUMAIN_PINUNSLEEP
  C:398CH         SYMBOL        _FUN_OBUMAIN_PREPU
  C:395CH         SYMBOL        _FUN_OBUMAIN_PRESLEEP
  C:37E0H         SYMBOL        _FUN_OBUMAIN_RTCUP
  C:37B0H         SYMBOL        _FUN_OBUMAIN_SELECTDF01
  C:73D8H         SYMBOL        _FUN_OBUMAIN_SYSUNSLEEP02
  C:37CFH         SYMBOL        _FUN_OBUMAIN_TIMERX
  C:0000H         LINE#         47
  C:0003H         LINE#         50
  C:000BH         LINE#         53
  C:0013H         LINE#         56
  C:001BH         LINE#         59
  C:728DH         LINE#         92
  C:728FH         LINE#         93
  C:7291H         LINE#         94
  C:7294H         LINE#         95
  C:7297H         LINE#         97
  C:729AH         LINE#         98
  C:729DH         LINE#         99
  C:729FH         LINE#         100
  C:72A1H         LINE#         101
  C:72A3H         LINE#         102
  C:72A5H         LINE#         103
  C:72A6H         LINE#         112
  C:72A9H         LINE#         114
  C:72ACH         LINE#         115
  C:72AEH         LINE#         116
  C:72B0H         LINE#         118
  C:72B2H         LINE#         119
  C:72B5H         LINE#         120
  C:72B7H         LINE#         121
  C:72B9H         LINE#         122
  C:72BBH         LINE#         123
  C:72BDH         LINE#         124
  C:72BEH         LINE#         133
  C:72C0H         LINE#         134
  C:72C3H         LINE#         135
  C:72C5H         LINE#         136
  C:72C7H         LINE#         137
  C:72C9H         LINE#         138
  C:72CCH         LINE#         139
  C:72CEH         LINE#         140
  C:72D0H         LINE#         141
  C:72D2H         LINE#         142
  C:72D4H         LINE#         144
  C:72D5H         LINE#         147
  C:72D7H         LINE#         148
  C:72D8H         LINE#         157
BL51 BANKED LINKER/LOCATER V6.05                                                      09/23/2016  17:07:17  PAGE 20


  C:72DAH         LINE#         158
  C:72DCH         LINE#         159
  C:72DEH         LINE#         160
  C:72E0H         LINE#         161
  C:72E2H         LINE#         163
  C:72E4H         LINE#         164
  C:72E6H         LINE#         165
  C:72E8H         LINE#         166
  C:72EBH         LINE#         167
  C:72EDH         LINE#         168
  C:72EFH         LINE#         169
  C:72F1H         LINE#         170
  C:72F3H         LINE#         172
  C:72F4H         LINE#         175
  C:72F6H         LINE#         176
  C:72F7H         LINE#         187
  C:72F9H         LINE#         188
  C:72FAH         LINE#         192
  C:72FCH         LINE#         193
  C:72FEH         LINE#         194
  C:7300H         LINE#         195
  C:7303H         LINE#         196
  C:7305H         LINE#         199
  C:7308H         LINE#         200
  C:730AH         LINE#         202
  C:730CH         LINE#         203
  C:730EH         LINE#         204
  C:7311H         LINE#         205
  C:7313H         LINE#         207
  C:7316H         LINE#         208
  C:7318H         LINE#         209
  C:731AH         LINE#         211
  C:731DH         LINE#         212
  C:731FH         LINE#         213
  C:7321H         LINE#         214
  C:7323H         LINE#         216
  C:7326H         LINE#         217
  C:7328H         LINE#         218
  C:732AH         LINE#         219
  C:732CH         LINE#         220
  C:732EH         LINE#         223
  C:732FH         LINE#         238
  C:7331H         LINE#         239
  C:7333H         LINE#         240
  C:7335H         LINE#         242
  C:7338H         LINE#         243
  C:733BH         LINE#         245
  C:733EH         LINE#         246
  C:7341H         LINE#         248
  C:7344H         LINE#         249
  C:7347H         LINE#         251
  C:734AH         LINE#         252
  C:734DH         LINE#         254
  C:734FH         LINE#         256
  C:7352H         LINE#         257
  C:7354H         LINE#         258
  C:7355H         LINE#         259
BL51 BANKED LINKER/LOCATER V6.05                                                      09/23/2016  17:07:17  PAGE 21


  C:7357H         LINE#         260
  C:7359H         LINE#         263
  C:735CH         LINE#         264
  C:735FH         LINE#         266
  C:7361H         LINE#         268
  C:7363H         LINE#         269
  C:7365H         LINE#         270
  C:7367H         LINE#         271
  C:7369H         LINE#         272
  C:736BH         LINE#         274
  C:736DH         LINE#         275
  C:736FH         LINE#         277
  C:7371H         LINE#         280
  C:7374H         LINE#         281
  C:7377H         LINE#         283
  C:7379H         LINE#         284
  C:737BH         LINE#         285
  C:737DH         LINE#         286
  C:737FH         LINE#         287
  C:7381H         LINE#         288
  C:7383H         LINE#         290
  C:7385H         LINE#         291
  C:7387H         LINE#         295
  C:7389H         LINE#         296
  C:738BH         LINE#         297
  C:738DH         LINE#         300
  C:738FH         LINE#         301
  C:7391H         LINE#         302
  C:7393H         LINE#         304
  C:7395H         LINE#         307
  C:7397H         LINE#         308
  C:7399H         LINE#         309
  C:739BH         LINE#         310
  C:739DH         LINE#         311
  C:739FH         LINE#         314
  C:73A1H         LINE#         315
  C:73A3H         LINE#         316
  C:73A5H         LINE#         317
  C:73A7H         LINE#         318
  C:73A9H         LINE#         321
  C:73ABH         LINE#         322
  C:73ADH         LINE#         323
  C:73AFH         LINE#         326
  C:73B1H         LINE#         327
  C:73B3H         LINE#         330
  C:73B5H         LINE#         331
  C:73B7H         LINE#         334
  C:73B9H         LINE#         335
  C:73BBH         LINE#         338
  C:73BDH         LINE#         339
  C:73BFH         LINE#         340
  C:73C1H         LINE#         341
  C:73C3H         LINE#         342
  C:73C5H         LINE#         343
  C:73C7H         LINE#         344
  C:73C9H         LINE#         345
  C:73CAH         LINE#         349
BL51 BANKED LINKER/LOCATER V6.05                                                      09/23/2016  17:07:17  PAGE 22


  C:73CDH         LINE#         351
  C:73D0H         LINE#         353
  C:73D3H         LINE#         354
  C:73D5H         LINE#         355
  C:73D7H         LINE#         357
  C:73D8H         LINE#         359
  C:73DBH         LINE#         360
  C:73DEH         LINE#         361
  C:73E1H         LINE#         362
  C:73E3H         LINE#         363
  C:73E5H         LINE#         364
  C:73E6H         LINE#         385
  C:73E8H         LINE#         386
  C:73EAH         LINE#         387
  C:73ECH         LINE#         390
  C:73EFH         LINE#         391
  C:73F2H         LINE#         393
  C:73F5H         LINE#         394
  C:73F8H         LINE#         397
  C:73FBH         LINE#         398
  C:73FEH         LINE#         400
  C:7401H         LINE#         401
  C:7404H         LINE#         403
  C:7406H         LINE#         404
  C:7408H         LINE#         406
  C:740BH         LINE#         407
  C:740DH         LINE#         408
  C:740EH         LINE#         409
  C:7410H         LINE#         410
  C:7412H         LINE#         413
  C:7415H         LINE#         414
  C:7418H         LINE#         416
  C:741AH         LINE#         417
  C:741CH         LINE#         418
  C:741EH         LINE#         419
  C:7420H         LINE#         420
  C:7422H         LINE#         421
  C:7424H         LINE#         422
  C:7426H         LINE#         424
  C:7428H         LINE#         425
  C:742AH         LINE#         426
  C:742CH         LINE#         430
  C:742FH         LINE#         431
  C:7432H         LINE#         433
  C:7434H         LINE#         434
  C:7436H         LINE#         435
  C:7438H         LINE#         436
  C:743AH         LINE#         437
  C:743CH         LINE#         438
  C:743EH         LINE#         440
  C:7440H         LINE#         441
  C:7442H         LINE#         445
  C:7444H         LINE#         447
  C:7446H         LINE#         448
  C:7448H         LINE#         449
  C:744AH         LINE#         450
  C:744CH         LINE#         461
BL51 BANKED LINKER/LOCATER V6.05                                                      09/23/2016  17:07:17  PAGE 23


  C:744EH         LINE#         462
  C:7450H         LINE#         463
  C:7452H         LINE#         464
  C:7454H         LINE#         465
  C:7456H         LINE#         468
  C:7458H         LINE#         469
  C:745AH         LINE#         473
  C:745CH         LINE#         476
  C:745EH         LINE#         477
  C:7460H         LINE#         480
  C:7462H         LINE#         481
  C:7464H         LINE#         484
  C:7466H         LINE#         485
  C:7468H         LINE#         488
  C:746AH         LINE#         490
  C:746CH         LINE#         491
  C:746EH         LINE#         492
  C:7470H         LINE#         493
  C:7472H         LINE#         494
  C:7474H         LINE#         495
  C:7476H         LINE#         498
  C:2674H         LINE#         507
  C:2677H         LINE#         508
  C:267AH         LINE#         509
  C:267CH         LINE#         510
  C:267EH         LINE#         512
  C:2681H         LINE#         513
  C:2682H         LINE#         514
  C:2684H         LINE#         517
  C:2687H         LINE#         524
  C:2689H         LINE#         525
  C:268BH         LINE#         526
  C:268CH         LINE#         532
  C:268EH         LINE#         533
  C:2691H         LINE#         537
  C:2694H         LINE#         538
  C:2697H         LINE#         541
  C:2699H         LINE#         542
  C:269BH         LINE#         543
  C:269CH         LINE#         546
  C:269FH         LINE#         547
  C:26A2H         LINE#         548
  C:26A5H         LINE#         549
  C:26A7H         LINE#         550
  C:26A9H         LINE#         551
  C:26ABH         LINE#         554
  C:26ADH         LINE#         555
  C:26AFH         LINE#         565
  C:26B1H         LINE#         567
  C:26B3H         LINE#         568
  C:26B6H         LINE#         569
  C:26B8H         LINE#         572
  C:26BBH         LINE#         573
  C:26BCH         LINE#         574
  C:26BEH         LINE#         575
  C:26C0H         LINE#         576
  C:26C3H         LINE#         577
BL51 BANKED LINKER/LOCATER V6.05                                                      09/23/2016  17:07:17  PAGE 24


  C:26C5H         LINE#         581
  C:26C7H         LINE#         582
  C:26C9H         LINE#         584
  C:26CCH         LINE#         585
  C:26CEH         LINE#         586
  C:26CFH         LINE#         588
  C:26D2H         LINE#         589
  C:26D5H         LINE#         591
  C:26D7H         LINE#         592
  C:26D9H         LINE#         602
  C:26DCH         LINE#         603
  C:26DFH         LINE#         606
  C:26E1H         LINE#         607
  C:26E3H         LINE#         608
  C:26E5H         LINE#         609
  C:26E7H         LINE#         612
  C:26EAH         LINE#         613
  C:26ECH         LINE#         614
  C:26EEH         LINE#         615
  C:26F0H         LINE#         616
  C:26F2H         LINE#         617
  C:26F4H         LINE#         618
  C:26F6H         LINE#         619
  C:26F8H         LINE#         621
  C:26FAH         LINE#         622
  C:26FCH         LINE#         623
  C:26FEH         LINE#         624
  C:2700H         LINE#         625
  C:2702H         LINE#         626
  C:2704H         LINE#         628
  C:2706H         LINE#         629
  C:2708H         LINE#         634
  C:270AH         LINE#         635
  C:270BH         LINE#         637
  C:270EH         LINE#         638
  C:2710H         LINE#         639
  C:2711H         LINE#         640
  C:2712H         LINE#         642
  C:2715H         LINE#         643
  C:2717H         LINE#         644
  C:2718H         LINE#         647
  C:271AH         LINE#         648
  C:271BH         LINE#         650
  C:271DH         LINE#         651
  C:271FH         LINE#         653
  C:2722H         LINE#         654
  C:2725H         LINE#         656
  C:2727H         LINE#         657
  C:2729H         LINE#         658
  C:272CH         LINE#         661
  C:272FH         LINE#         662
  C:2731H         LINE#         663
  C:2733H         LINE#         664
  C:2735H         LINE#         665
  C:2737H         LINE#         666
  C:2739H         LINE#         667
  C:273BH         LINE#         668
BL51 BANKED LINKER/LOCATER V6.05                                                      09/23/2016  17:07:17  PAGE 25


  C:273DH         LINE#         670
  C:273FH         LINE#         671
  C:2741H         LINE#         672
  C:2743H         LINE#         673
  C:2745H         LINE#         675
  C:2747H         LINE#         676
  C:2749H         LINE#         679
  C:274BH         LINE#         680
  C:274DH         LINE#         681
  C:274FH         LINE#         682
  C:2752H         LINE#         683
  C:2755H         LINE#         685
  C:2756H         LINE#         686
  C:2757H         LINE#         688
  C:275AH         LINE#         697
  C:275CH         LINE#         698
  C:275FH         LINE#         699
  C:2761H         LINE#         700
  C:2764H         LINE#         701
  C:2766H         LINE#         702
  C:2769H         LINE#         705
  C:276BH         LINE#         706
  C:276DH         LINE#         707
  C:2770H         LINE#         708
  C:2772H         LINE#         709
  C:2774H         LINE#         710
  C:2777H         LINE#         713
  C:2779H         LINE#         715
  C:277BH         LINE#         716
  C:277DH         LINE#         719
  C:277FH         LINE#         720
  C:2780H         LINE#         721
  C:2783H         LINE#         722
  C:2784H         LINE#         723
  C:2785H         LINE#         724
  C:2786H         LINE#         726
  C:2789H         LINE#         727
  C:278BH         LINE#         728
  C:278CH         LINE#         729
  C:278FH         LINE#         731
  C:2792H         LINE#         732
  C:2793H         LINE#         734
  C:2795H         LINE#         735
  C:2797H         LINE#         736
  C:2799H         LINE#         738
  C:279AH         LINE#         739
  C:279CH         LINE#         740
  C:279EH         LINE#         741
  C:27A0H         LINE#         743
  C:27A1H         LINE#         757
  C:27A3H         LINE#         758
  C:27A5H         LINE#         759
  C:27A7H         LINE#         761
  C:27AAH         LINE#         768
  C:27ACH         LINE#         769
  C:27AEH         LINE#         770
  C:27B1H         LINE#         771
BL51 BANKED LINKER/LOCATER V6.05                                                      09/23/2016  17:07:17  PAGE 26


  C:27B4H         LINE#         773
  C:27B7H         LINE#         804
  C:27BAH         LINE#         807
  C:27BCH         LINE#         808
  C:27BEH         LINE#         809
  C:27C0H         LINE#         810
  C:27C2H         LINE#         811
  C:27C4H         LINE#         812
  C:27C6H         LINE#         813
  C:27C9H         LINE#         816
  C:27CBH         LINE#         817
  C:27CCH         LINE#         818
  C:27CDH         LINE#         819
  C:27CEH         LINE#         820
  C:27CFH         LINE#         824
  C:27D2H         LINE#         825
  C:27D4H         LINE#         826
  C:27D7H         LINE#         830
  C:27D9H         LINE#         831
  C:27DBH         LINE#         832
  C:27DDH         LINE#         833
  C:27DFH         LINE#         834
  C:27E2H         LINE#         835
  C:27E3H         LINE#         839
  C:27E5H         LINE#         841
  C:27E7H         LINE#         842
  C:27E9H         LINE#         843
  C:27ECH         LINE#         844
  C:27EEH         LINE#         845
  C:27F1H         LINE#         846
  C:27F3H         LINE#         847
  C:27F5H         LINE#         850
  C:27F7H         LINE#         851
  C:27FAH         LINE#         852
  C:27FCH         LINE#         855
  C:27FFH         LINE#         856
  C:2801H         LINE#         857
  C:2804H         LINE#         861
  C:2807H         LINE#         863
  C:280AH         LINE#         864
  C:280DH         LINE#         865
  C:280FH         LINE#         866
  C:2811H         LINE#         867
  C:2814H         LINE#         870
  C:2816H         LINE#         876
  C:2818H         LINE#         877
  C:281BH         LINE#         878
  C:281EH         LINE#         896
  C:2821H         LINE#         899
  C:2822H         LINE#         900
  C:2823H         LINE#         901
  C:2824H         LINE#         902
  C:2825H         LINE#         903
  C:2826H         LINE#         904
  C:2827H         LINE#         905
  C:2828H         LINE#         906
  C:2829H         LINE#         907
BL51 BANKED LINKER/LOCATER V6.05                                                      09/23/2016  17:07:17  PAGE 27


  C:282AH         LINE#         908
  C:282BH         LINE#         909
  C:282CH         LINE#         910
  C:282DH         LINE#         912
  C:282FH         LINE#         919
  C:2832H         LINE#         920
  C:2835H         LINE#         921
  C:2837H         LINE#         922
  C:2839H         LINE#         924
  C:283BH         LINE#         925
  C:283DH         LINE#         926
  C:283FH         LINE#         927
  C:2841H         LINE#         928
  C:2843H         LINE#         929
  C:2846H         LINE#         932
  C:2847H         LINE#         933
  C:2849H         LINE#         935
  C:284BH         LINE#         936
  C:284DH         LINE#         938
  C:284FH         LINE#         939
  C:2850H         LINE#         940
  C:2852H         LINE#         941
  C:2854H         LINE#         943
  C:2856H         LINE#         944
  C:2857H         LINE#         945
  C:2859H         LINE#         946
  C:285BH         LINE#         948
  C:285DH         LINE#         951
  C:2860H         LINE#         952
  C:2863H         LINE#         956
  C:2866H         LINE#         957
  C:2868H         LINE#         958
  C:286BH         LINE#         959
  C:286EH         LINE#         965
  C:2871H         LINE#         966
  C:2873H         LINE#         971
  C:2876H         LINE#         972
  C:2879H         LINE#         973
  C:287BH         LINE#         974
  C:287DH         LINE#         975
  C:2880H         LINE#         979
  C:2883H         LINE#         980
  C:2886H         LINE#         985
  C:2889H         LINE#         986
  C:288CH         LINE#         996
  C:288FH         LINE#         997
  C:2890H         LINE#         998
  C:2892H         LINE#         999
  C:2895H         LINE#         1002
  C:2896H         LINE#         1003
  C:2898H         LINE#         1004
  C:289AH         LINE#         1006
  C:289BH         LINE#         1007
  C:289DH         LINE#         1008
  C:289FH         LINE#         1009
  C:28A2H         LINE#         1012
  C:28A5H         LINE#         1023
BL51 BANKED LINKER/LOCATER V6.05                                                      09/23/2016  17:07:17  PAGE 28


  C:28A8H         LINE#         1025
  C:28ABH         LINE#         1027
  C:28ADH         LINE#         1028
  C:28B0H         LINE#         1029
  C:28B3H         LINE#         1030
  C:28B5H         LINE#         1031
  C:28B8H         LINE#         1032
  C:28BAH         LINE#         1033
  C:28BDH         LINE#         1034
  C:28C0H         LINE#         1037
  C:28C2H         LINE#         1038
  C:28C5H         LINE#         1039
  C:28C7H         LINE#         1040
  C:28CAH         LINE#         1041
  C:28CCH         LINE#         1042
  C:28CEH         LINE#         1044
  C:28D0H         LINE#         1045
  C:28D3H         LINE#         1046
  C:28D5H         LINE#         1047
  C:28D8H         LINE#         1049
  C:28DAH         LINE#         1050
  C:28DDH         LINE#         1051
  C:28DFH         LINE#         1052
  C:28E2H         LINE#         1054
  C:28E4H         LINE#         1055
  C:28E7H         LINE#         1056
  C:28E9H         LINE#         1066
  C:28EBH         LINE#         1068
  C:28ECH         LINE#         1069
  C:28EEH         LINE#         1070
  C:28F1H         LINE#         1074
  C:28F3H         LINE#         1075
  C:28F5H         LINE#         1076
  C:28F7H         LINE#         1077
  C:28F9H         LINE#         1078
  C:28FBH         LINE#         1079
  C:28FDH         LINE#         1080
  C:2900H         LINE#         1081
  C:2901H         LINE#         1082
  C:2903H         LINE#         1083
  C:2905H         LINE#         1086
  C:2907H         LINE#         1087
  C:2909H         LINE#         1088
  C:290BH         LINE#         1089
  C:290DH         LINE#         1090
  C:290FH         LINE#         1091
  C:2911H         LINE#         1092
  C:2913H         LINE#         1093
  C:2916H         LINE#         1094
  C:2917H         LINE#         1095
  C:2919H         LINE#         1096
  C:291BH         LINE#         1102
  C:291DH         LINE#         1103
  C:291FH         LINE#         1104
  C:2921H         LINE#         1105
  C:2924H         LINE#         1107
  C:2926H         LINE#         1108
BL51 BANKED LINKER/LOCATER V6.05                                                      09/23/2016  17:07:17  PAGE 29


  C:2928H         LINE#         1110
  C:292AH         LINE#         1111
  C:292BH         LINE#         1112
  C:292CH         LINE#         1113
  C:292FH         LINE#         1116
  C:2931H         LINE#         1117
  C:2934H         LINE#         1118
  C:2936H         LINE#         1119
  C:2939H         LINE#         1121
  C:293BH         LINE#         1122
  C:293EH         LINE#         1123
  C:2940H         LINE#         1124
  C:2943H         LINE#         1126
  C:2946H         LINE#         1138
  C:2949H         LINE#         1141
  C:294CH         LINE#         1143
  C:294EH         LINE#         1144
  C:2951H         LINE#         1145
  C:2954H         LINE#         1147
  C:2956H         LINE#         1148
  C:2959H         LINE#         1149
  C:295BH         LINE#         1150
  C:295EH         LINE#         1151
  C:2961H         LINE#         1154
  C:2963H         LINE#         1155
  C:2966H         LINE#         1156
  C:2968H         LINE#         1157
  C:296BH         LINE#         1158
  C:296DH         LINE#         1159
  C:296FH         LINE#         1161
  C:2972H         LINE#         1163
  C:2974H         LINE#         1164
  C:2977H         LINE#         1166
  C:2979H         LINE#         1167
  C:297CH         LINE#         1168
  C:297EH         LINE#         1169
  C:2981H         LINE#         1171
  C:2983H         LINE#         1172
  C:2985H         LINE#         1173
  C:2987H         LINE#         1174
  C:2989H         LINE#         1175
  C:298BH         LINE#         1176
  C:298DH         LINE#         1177
  C:2990H         LINE#         1178
  C:2991H         LINE#         1179
  C:2993H         LINE#         1180
  C:2995H         LINE#         1183
  C:2997H         LINE#         1184
  C:2999H         LINE#         1185
  C:299BH         LINE#         1186
  C:299DH         LINE#         1187
  C:299FH         LINE#         1188
  C:29A1H         LINE#         1189
  C:29A3H         LINE#         1190
  C:29A6H         LINE#         1191
  C:29A7H         LINE#         1192
  C:29A9H         LINE#         1193
BL51 BANKED LINKER/LOCATER V6.05                                                      09/23/2016  17:07:17  PAGE 30


  C:29ABH         LINE#         1198
  C:29ADH         LINE#         1199
  C:29AFH         LINE#         1200
  C:29B1H         LINE#         1201
  C:29B4H         LINE#         1203
  C:29B6H         LINE#         1204
  C:29B8H         LINE#         1206
  C:29BAH         LINE#         1207
  C:29BBH         LINE#         1208
  C:29BCH         LINE#         1209
  C:29BFH         LINE#         1212
  C:29C1H         LINE#         1213
  C:29C4H         LINE#         1214
  C:29C6H         LINE#         1215
  C:29C9H         LINE#         1216
  C:29CCH         LINE#         1220
  C:29CFH         LINE#         1231
  C:29D2H         LINE#         1234
  C:29D5H         LINE#         1236
  C:29D7H         LINE#         1237
  C:29DAH         LINE#         1238
  C:29DDH         LINE#         1239
  C:29DFH         LINE#         1240
  C:29E2H         LINE#         1241
  C:29E4H         LINE#         1242
  C:29E7H         LINE#         1243
  C:29EAH         LINE#         1247
  C:29EBH         LINE#         1248
  C:29EDH         LINE#         1250
  C:29F0H         LINE#         1251
  C:29F2H         LINE#         1252
  C:29F3H         LINE#         1262
  C:29F5H         LINE#         1263
  C:29F8H         LINE#         1264
  C:29FAH         LINE#         1265
  C:29FCH         LINE#         1266
  C:29FDH         LINE#         1268
  C:29FFH         LINE#         1269
  C:2A01H         LINE#         1270
  C:2A03H         LINE#         1271
  C:2A05H         LINE#         1272
  C:2A07H         LINE#         1273
  C:2A09H         LINE#         1274
  C:2A0CH         LINE#         1275
  C:2A0DH         LINE#         1276
  C:2A0FH         LINE#         1277
  C:2A11H         LINE#         1281
  C:2A13H         LINE#         1282
  C:2A15H         LINE#         1283
  C:2A17H         LINE#         1284
  C:2A19H         LINE#         1285
  C:2A1BH         LINE#         1286
  C:2A1DH         LINE#         1287
  C:2A1FH         LINE#         1288
  C:2A22H         LINE#         1290
  C:2A23H         LINE#         1291
  C:2A25H         LINE#         1292
BL51 BANKED LINKER/LOCATER V6.05                                                      09/23/2016  17:07:17  PAGE 31


  C:2A27H         LINE#         1303
  C:2A2AH         LINE#         1304
  C:2A2DH         LINE#         1305
  C:2A30H         LINE#         1306
  C:2A32H         LINE#         1307
  C:2A35H         LINE#         1309
  C:2A37H         LINE#         1310
  C:2A39H         LINE#         1311
  C:2A3BH         LINE#         1315
  C:2A3EH         LINE#         1316
  C:2A40H         LINE#         1317
  C:2A41H         LINE#         1318
  C:2A43H         LINE#         1321
  C:2A46H         LINE#         1322
  C:2A48H         LINE#         1323
  C:2A49H         LINE#         1324
  C:2A4BH         LINE#         1325
  C:2A4DH         LINE#         1327
  C:2A4EH         LINE#         1328
  C:2A4FH         LINE#         1330
  C:2A51H         LINE#         1333
  C:2A53H         LINE#         1334
  C:2A56H         LINE#         1335
  C:2A58H         LINE#         1336
  C:2A5AH         LINE#         1337
  C:2A5BH         LINE#         1342
  C:2A5DH         LINE#         1343
  C:2A5EH         LINE#         1344
  C:2A5FH         LINE#         1345
  C:2A60H         LINE#         1346
  C:2A61H         LINE#         1348
  C:2A64H         LINE#         1350
  C:2A66H         LINE#         1351
  C:2A68H         LINE#         1352
  C:2A6AH         LINE#         1353
  C:2A6DH         LINE#         1356
  C:2A6FH         LINE#         1357
  C:2A72H         LINE#         1358
  C:2A75H         LINE#         1359
  C:2A77H         LINE#         1360
  C:2A7AH         LINE#         1364
  C:2A7CH         LINE#         1365
  C:2A7EH         LINE#         1366
  C:2A80H         LINE#         1368
  C:2A83H         LINE#         1373
  C:2A85H         LINE#         1374
  C:2A87H         LINE#         1380
  C:2A89H         LINE#         1382
  C:2A8CH         LINE#         1383
  C:2A8EH         LINE#         1384
  C:2A8FH         LINE#         1385
  C:2A91H         LINE#         1386
  C:2A93H         LINE#         1387
  C:2A96H         LINE#         1388
  C:2A99H         LINE#         1389
  C:2A9BH         LINE#         1390
  C:2A9EH         LINE#         1394
BL51 BANKED LINKER/LOCATER V6.05                                                      09/23/2016  17:07:17  PAGE 32


  C:2AA0H         LINE#         1396
  C:2AA3H         LINE#         1397
  C:2AA5H         LINE#         1398
  C:2AA6H         LINE#         1399
  C:2AA8H         LINE#         1400
  C:2AAAH         LINE#         1402
  C:2AACH         LINE#         1403
  C:2AAFH         LINE#         1404
  C:2AB2H         LINE#         1405
  C:2AB4H         LINE#         1406
  C:2AB7H         LINE#         1407
  C:2AB9H         LINE#         1416
  C:2ABCH         LINE#         1417
  C:2ABFH         LINE#         1418
  C:2AC1H         LINE#         1419
  C:2AC3H         LINE#         1420
  C:2AC6H         LINE#         1422
  C:2AC9H         LINE#         1423
  C:2ACCH         LINE#         1424
  C:2ACDH         LINE#         1425
  C:2ACFH         LINE#         1426
  C:2AD1H         LINE#         1427
  C:2AD3H         LINE#         1431
  C:2AD6H         LINE#         1432
  C:2AD9H         LINE#         1434
  C:2ADBH         LINE#         1437
  C:2ADEH         LINE#         1438
  C:2AE1H         LINE#         1444
  C:2AE4H         LINE#         1445
  C:2AE6H         LINE#         1446
  C:2AE9H         LINE#         1447
  C:2AEBH         LINE#         1450
  C:2AEEH         LINE#         1451
  C:2AF0H         LINE#         1452
  C:2AF1H         LINE#         1453
  C:2AF3H         LINE#         1454
  C:2AF5H         LINE#         1456
  C:2AF8H         LINE#         1457
  C:2AFAH         LINE#         1458
  C:2AFBH         LINE#         1459
  C:2AFDH         LINE#         1460
  C:2AFFH         LINE#         1462
  C:2B01H         LINE#         1465
  C:2B03H         LINE#         1466
  C:2B06H         LINE#         1467
  C:2B08H         LINE#         1468
  C:2B0BH         LINE#         1469
  C:2B0DH         LINE#         1470
  C:2B10H         LINE#         1471
  C:2B12H         LINE#         1474
  C:2B14H         LINE#         1475
  C:2B17H         LINE#         1478
  C:2B1AH         LINE#         1506
  C:2B1DH         LINE#         1508
  C:2B1FH         LINE#         1509
  C:2B22H         LINE#         1510
  C:2B25H         LINE#         1512
BL51 BANKED LINKER/LOCATER V6.05                                                      09/23/2016  17:07:17  PAGE 33


  C:2B28H         LINE#         1513
  C:2B2BH         LINE#         1514
  C:2B2DH         LINE#         1515
  C:2B2FH         LINE#         1517
  C:2B31H         LINE#         1518
  C:2B33H         LINE#         1520
  C:2B35H         LINE#         1521
  C:2B37H         LINE#         1522
  C:2B39H         LINE#         1523
  C:2B3CH         LINE#         1524
  C:2B3EH         LINE#         1525
  C:2B40H         LINE#         1526
  C:2B42H         LINE#         1527
  C:2B44H         LINE#         1530
  C:2B46H         LINE#         1534
  C:2B49H         LINE#         1536
  C:2B4BH         LINE#         1537
  C:2B4EH         LINE#         1538
  C:2B51H         LINE#         1539
  C:2B53H         LINE#         1543
  C:2B56H         LINE#         1545
  C:2B58H         LINE#         1546
  C:2B5BH         LINE#         1547
  C:2B5EH         LINE#         1548
  C:2B60H         LINE#         1552
  C:2B63H         LINE#         1554
  C:2B65H         LINE#         1555
  C:2B68H         LINE#         1556
  C:2B6BH         LINE#         1559
  C:2B6DH         LINE#         1563
  C:2B6FH         LINE#         1564
  C:2B72H         LINE#         1565
  C:2B74H         LINE#         1566
  C:2B77H         LINE#         1567
  C:2B79H         LINE#         1568
  C:2B7CH         LINE#         1569
  C:2B7EH         LINE#         1570
  C:2B81H         LINE#         1571
  C:2B84H         LINE#         1590
  C:2B87H         LINE#         1591
  C:2B8AH         LINE#         1592
  C:2B8DH         LINE#         1593
  C:2B8FH         LINE#         1594
  C:2B92H         LINE#         1596
  C:2B94H         LINE#         1598
  C:2B97H         LINE#         1599
  C:2B99H         LINE#         1600
  C:2B9AH         LINE#         1601
  C:2B9CH         LINE#         1604
  C:2B9FH         LINE#         1605
  C:2BA1H         LINE#         1606
  C:2BA3H         LINE#         1609
  C:2BA6H         LINE#         1611
  C:2BA9H         LINE#         1613
  C:2BABH         LINE#         1614
  C:2BADH         LINE#         1615
  C:2BAFH         LINE#         1616
BL51 BANKED LINKER/LOCATER V6.05                                                      09/23/2016  17:07:17  PAGE 34


  C:2BB1H         LINE#         1617
  C:2BB3H         LINE#         1618
  C:2BB5H         LINE#         1619
  C:2BB8H         LINE#         1621
  C:2BBBH         LINE#         1636
  C:2BBDH         LINE#         1637
  C:2BBFH         LINE#         1639
  C:2BC1H         LINE#         1640
  C:2BC3H         LINE#         1641
  C:2BC5H         LINE#         1642
  C:2BC7H         LINE#         1644
  C:2BC9H         LINE#         1645
  C:2BCCH         LINE#         1646
  C:2BCEH         LINE#         1647
  C:2BD1H         LINE#         1650
  C:2BD3H         LINE#         1651
  C:2BD4H         LINE#         1653
  C:2BD7H         LINE#         1654
  C:2BD9H         LINE#         1655
  C:2BDAH         LINE#         1656
  C:2BDBH         LINE#         1658
  C:2BDEH         LINE#         1659
  C:2BE0H         LINE#         1660
  C:2BE1H         LINE#         1673
  C:2BE4H         LINE#         1674
  C:2BE7H         LINE#         1675
  C:2BEAH         LINE#         1676
  C:2BECH         LINE#         1677
  C:2BEFH         LINE#         1679
  C:2BF2H         LINE#         1680
  C:2BF5H         LINE#         1681
  C:2BF8H         LINE#         1682
  C:2BFAH         LINE#         1683
  C:2BFDH         LINE#         1686
  C:2BFFH         LINE#         1687
  C:2C00H         LINE#         1688
  C:2C02H         LINE#         1689
  C:2C04H         LINE#         1690
  C:2C06H         LINE#         1691
  C:2C08H         LINE#         1692
  C:2C0AH         LINE#         1693
  C:2C0BH         LINE#         1694
  C:2C0DH         LINE#         1703
  C:2C10H         LINE#         1704
  C:2C13H         LINE#         1706
  C:2C16H         LINE#         1710
  C:2C19H         LINE#         1711
  C:2C1CH         LINE#         1712
  C:2C1FH         LINE#         1713
  C:2C21H         LINE#         1714
  C:2C24H         LINE#         1717
  C:2C26H         LINE#         1719
  C:2C29H         LINE#         1720
  C:2C2BH         LINE#         1721
  C:2C2CH         LINE#         1722
  C:2C2EH         LINE#         1723
  C:2C30H         LINE#         1728
BL51 BANKED LINKER/LOCATER V6.05                                                      09/23/2016  17:07:17  PAGE 35


  C:2C33H         LINE#         1729
  C:2C35H         LINE#         1730
  C:2C37H         LINE#         1733
  C:2C3AH         LINE#         1735
  C:2C3DH         LINE#         1741
  C:2C3FH         LINE#         1742
  C:2C41H         LINE#         1743
  C:2C43H         LINE#         1744
  C:2C45H         LINE#         1745
  C:2C47H         LINE#         1746
  C:2C49H         LINE#         1747
  C:2C4CH         LINE#         1748
  C:2C4FH         LINE#         1751
  C:2C52H         LINE#         1752
  C:2C55H         LINE#         1753
  C:2C58H         LINE#         1754
  C:2C5AH         LINE#         1755
  C:2C5DH         LINE#         1758
  C:2C5FH         LINE#         1760
  C:2C62H         LINE#         1761
  C:2C64H         LINE#         1762
  C:2C65H         LINE#         1763
  C:2C67H         LINE#         1764
  C:2C69H         LINE#         1766
  C:2C6CH         LINE#         1767
  C:2C6EH         LINE#         1768
  C:2C70H         LINE#         1771
  C:2C73H         LINE#         1772
  C:2C76H         LINE#         1774
  C:2C78H         LINE#         1775
  C:2C7AH         LINE#         1776
  C:2C7CH         LINE#         1777
  C:2C7EH         LINE#         1778
  C:2C80H         LINE#         1779
  C:2C82H         LINE#         1780
  C:2C85H         LINE#         1782
  C:2C87H         LINE#         1784
  C:2C8AH         LINE#         1787
  C:2C8CH         LINE#         1788
  C:2C8EH         LINE#         1789
  C:2C90H         LINE#         1790
  C:2C92H         LINE#         1791
  C:2C94H         LINE#         1792
  C:2C96H         LINE#         1793
  C:2C98H         LINE#         1794
  C:2C9BH         LINE#         1797
  C:2C9EH         LINE#         1798
  C:2CA1H         LINE#         1799
  C:2CA3H         LINE#         1800
  C:2CA5H         LINE#         1801
  C:2CA8H         LINE#         1804
  C:2CAAH         LINE#         1805
  C:2CACH         LINE#         1806
  C:2CAEH         LINE#         1809
  C:2CB1H         LINE#         1810
  C:2CB3H         LINE#         1811
  C:2CB4H         LINE#         1812
BL51 BANKED LINKER/LOCATER V6.05                                                      09/23/2016  17:07:17  PAGE 36


  C:2CB6H         LINE#         1813
  C:2CB7H         LINE#         1814
  C:2CB9H         LINE#         1815
  C:2CBBH         LINE#         1816
  C:2CBCH         LINE#         1817
  C:2CBDH         LINE#         1818
  C:2CBFH         LINE#         1820
  C:2CC1H         LINE#         1824
  C:2CC4H         LINE#         1826
  C:2CC6H         LINE#         1827
  C:2CC8H         LINE#         1828
  C:2CCAH         LINE#         1829
  C:2CCCH         LINE#         1830
  C:2CCEH         LINE#         1831
  C:2CD0H         LINE#         1832
  C:2CD3H         LINE#         1837
  C:2CD6H         LINE#         1842
  C:2CD9H         LINE#         1845
  C:2CDBH         LINE#         1846
  C:2CDDH         LINE#         1848
  C:2CE0H         LINE#         1849
  C:2CE2H         LINE#         1850
  C:2CE3H         LINE#         1851
  C:2CE4H         LINE#         1853
  C:2CE7H         LINE#         1854
  C:2CE9H         LINE#         1855
  C:2CEAH         LINE#         1857
  C:2CEDH         LINE#         1858
  C:2CF0H         LINE#         1859
  C:2CF2H         LINE#         1860
  C:2CF4H         LINE#         1861
  C:2CF7H         LINE#         1868
  C:2CFAH         LINE#         1869
  C:2CFDH         LINE#         1880
  C:2D00H         LINE#         1881
  C:2D03H         LINE#         1882
  C:2D06H         LINE#         1883
  C:2D08H         LINE#         1884
  C:2D0BH         LINE#         1886
  C:2D0DH         LINE#         1888
  C:2D10H         LINE#         1889
  C:2D12H         LINE#         1890
  C:2D13H         LINE#         1891
  C:2D15H         LINE#         1893
  C:2D17H         LINE#         1894
  C:2D19H         LINE#         1895
  C:2D1BH         LINE#         1898
  C:2D1DH         LINE#         1902
  C:2D1FH         LINE#         1903
  C:2D20H         LINE#         1904
  C:2D22H         LINE#         1905
  C:2D24H         LINE#         1906
  C:2D25H         LINE#         1907
  C:2D26H         LINE#         1908
  C:2D28H         LINE#         1909
  C:2D2AH         LINE#         1910
  C:2D2BH         LINE#         1911
BL51 BANKED LINKER/LOCATER V6.05                                                      09/23/2016  17:07:17  PAGE 37


  C:2D2CH         LINE#         1912
  C:2D2EH         LINE#         1913
  C:2D30H         LINE#         1914
  C:2D31H         LINE#         1915
  C:2D32H         LINE#         1916
  C:2D34H         LINE#         1917
  C:2D36H         LINE#         1920
  C:2D38H         LINE#         1921
  C:2D39H         LINE#         1922
  C:2D3BH         LINE#         1923
  C:2D3DH         LINE#         1925
  C:2D3FH         LINE#         1928
  C:2D41H         LINE#         1929
  C:2D43H         LINE#         1930
  C:2D45H         LINE#         1933
  C:2D46H         LINE#         1934
  C:2D48H         LINE#         1935
  C:2D4AH         LINE#         1936
  C:2D4BH         LINE#         1937
  C:2D4DH         LINE#         1941
  C:2D4FH         LINE#         1942
  C:2D51H         LINE#         1943
  C:2D53H         LINE#         1946
  C:2D56H         LINE#         1947
  C:2D58H         LINE#         1948
  C:2D59H         LINE#         1949
  C:2D5AH         LINE#         1950
  C:2D5CH         LINE#         1951
  C:2D5DH         LINE#         1952
  C:2D5EH         LINE#         1953
  C:2D60H         LINE#         1956
  C:2D62H         LINE#         1957
  C:2D64H         LINE#         1958
  C:2D66H         LINE#         1959
  C:2D69H         LINE#         1960
  C:2D6BH         LINE#         1961
  C:2D6EH         LINE#         1965
  C:2D71H         LINE#         1966
  C:2D72H         LINE#         1967
  C:2D74H         LINE#         1969
  C:2D77H         LINE#         1970
  C:2D79H         LINE#         1971
  C:2D7AH         LINE#         1974
  C:2D7DH         LINE#         1975
  C:2D80H         LINE#         1976
  C:2D83H         LINE#         1982
  C:2D86H         LINE#         1983
  C:2D88H         LINE#         1984
  C:2D8BH         LINE#         1985
  C:2D8DH         LINE#         1986
  C:2D8FH         LINE#         1990
  C:2D91H         LINE#         1992
  C:2D94H         LINE#         1993
  C:2D96H         LINE#         1994
  C:2D97H         LINE#         1995
  C:2D99H         LINE#         1996
  C:2D9BH         LINE#         1997
BL51 BANKED LINKER/LOCATER V6.05                                                      09/23/2016  17:07:17  PAGE 38


  C:2D9EH         LINE#         2002
  C:2DA0H         LINE#         2003
  C:2DA2H         LINE#         2005
  C:2DA5H         LINE#         2006
  C:2DA7H         LINE#         2007
  C:2DA9H         LINE#         2008
  C:2DABH         LINE#         2024
  C:2DADH         LINE#         2026
  C:2DB0H         LINE#         2040
  C:2DB2H         LINE#         2041
  C:2DB4H         LINE#         2042
  C:2DB6H         LINE#         2046
  C:2DB9H         LINE#         2049
  C:2DBCH         LINE#         2054
  C:2DBEH         LINE#         2055
  C:2DBFH         LINE#         2056
  C:2DC0H         LINE#         2057
  C:2DC1H         LINE#         2058
  C:2DC2H         LINE#         2060
  C:2DC5H         LINE#         2061
  C:2DC7H         LINE#         2062
  C:2DCAH         LINE#         2063
  C:2DCDH         LINE#         2065
  C:2DD0H         LINE#         2068
  C:2DD2H         LINE#         2069
  C:2DD5H         LINE#         2070
  C:2DD8H         LINE#         2071
  C:2DDAH         LINE#         2072
  C:2DDDH         LINE#         2085
  C:2DDFH         LINE#         2086
  C:2DE2H         LINE#         2087
  C:2DE5H         LINE#         2088
  C:2DE8H         LINE#         2089
  C:2DEAH         LINE#         2091
  C:2DEDH         LINE#         2092
  C:2DF0H         LINE#         2097
  C:2DF2H         LINE#         2098
  C:2DF3H         LINE#         2099
  C:2DF5H         LINE#         2100
  C:2DF7H         LINE#         2101
  C:2DF8H         LINE#         2102
  C:2DF9H         LINE#         2103
  C:2DFBH         LINE#         2104
  C:2DFDH         LINE#         2105
  C:2DFEH         LINE#         2106
  C:2DFFH         LINE#         2107
  C:2E01H         LINE#         2108
  C:2E03H         LINE#         2109
  C:2E04H         LINE#         2110
  C:2E05H         LINE#         2111
  C:2E07H         LINE#         2112
  C:2E09H         LINE#         2116
  C:2E0BH         LINE#         2117
  C:2E0CH         LINE#         2118
  C:2E0EH         LINE#         2119
  C:2E10H         LINE#         2123
  C:2E12H         LINE#         2125
BL51 BANKED LINKER/LOCATER V6.05                                                      09/23/2016  17:07:17  PAGE 39


  C:2E15H         LINE#         2126
  C:2E17H         LINE#         2127
  C:2E18H         LINE#         2128
  C:2E19H         LINE#         2130
  C:2E1CH         LINE#         2131
  C:2E1EH         LINE#         2132
  C:2E1FH         LINE#         2133
  C:2E22H         LINE#         2135
  C:2E25H         LINE#         2136
  C:2E27H         LINE#         2138
  C:2E2AH         LINE#         2140
  C:2E2CH         LINE#         2141
  C:2E2FH         LINE#         2142
  C:2E32H         LINE#         2145
  C:2E34H         LINE#         2146
  C:2E36H         LINE#         2147
  C:2E39H         LINE#         2148
  C:2E3CH         LINE#         2153
  C:2E3EH         LINE#         2154
  C:2E40H         LINE#         2155
  C:2E42H         LINE#         2158
  C:2E45H         LINE#         2159
  C:2E47H         LINE#         2160
  C:2E48H         LINE#         2161
  C:2E49H         LINE#         2162
  C:2E4BH         LINE#         2163
  C:2E4CH         LINE#         2164
  C:2E4DH         LINE#         2165
  C:2E4FH         LINE#         2168
  C:2E51H         LINE#         2169
  C:2E53H         LINE#         2170
  C:2E55H         LINE#         2171
  C:2E58H         LINE#         2172
  C:2E5AH         LINE#         2173
  C:2E5DH         LINE#         2176
  C:2E60H         LINE#         2179
  C:2E63H         LINE#         2183
  C:2E66H         LINE#         2184
  C:2E69H         LINE#         2185
  C:2E6CH         LINE#         2186
  C:2E6FH         LINE#         2194
  C:2E72H         LINE#         2197
  C:2E74H         LINE#         2198
  C:2E76H         LINE#         2199
  C:2E77H         LINE#         2200
  C:2E78H         LINE#         2201
  C:2E7AH         LINE#         2202
  C:2E7DH         LINE#         2205
  C:2E7EH         LINE#         2206
  C:2E7FH         LINE#         2207
  C:2E80H         LINE#         2208
  C:2E81H         LINE#         2209
  C:2E83H         LINE#         2210
  C:2E86H         LINE#         2214
  C:2E87H         LINE#         2215
  C:2E88H         LINE#         2216
  C:2E89H         LINE#         2217
BL51 BANKED LINKER/LOCATER V6.05                                                      09/23/2016  17:07:17  PAGE 40


  C:2E8AH         LINE#         2218
  C:2E8CH         LINE#         2219
  C:2E8FH         LINE#         2223
  C:2E90H         LINE#         2224
  C:2E91H         LINE#         2225
  C:2E92H         LINE#         2226
  C:2E93H         LINE#         2227
  C:2E95H         LINE#         2228
  C:2E98H         LINE#         2232
  C:2E9AH         LINE#         2233
  C:2E9BH         LINE#         2235
  C:2E9EH         LINE#         2236
  C:2EA0H         LINE#         2237
  C:2EA1H         LINE#         2239
  C:2EA4H         LINE#         2243
  C:2EA6H         LINE#         2244
  C:2EA7H         LINE#         2246
  C:2EA9H         LINE#         2247
  C:2EABH         LINE#         2248
  C:2EADH         LINE#         2251
  C:2EAFH         LINE#         2252
  C:2EB1H         LINE#         2254
  C:2EB4H         LINE#         2255
  C:2EB6H         LINE#         2256
  C:2EB7H         LINE#         2257
  C:2EB8H         LINE#         2259
  C:2EBBH         LINE#         2260
  C:2EBDH         LINE#         2261
  C:2EBEH         LINE#         2262
  C:2EC1H         LINE#         2263
  C:2EC4H         LINE#         2264
  C:2EC6H         LINE#         2265
  C:2EC8H         LINE#         2266
  C:2ECBH         LINE#         2269
  C:2ECEH         LINE#         2270
  C:2ED1H         LINE#         2271
  C:2ED3H         LINE#         2272
  C:2ED6H         LINE#         2274
  C:2ED9H         LINE#         2275
  C:2EDCH         LINE#         2276
  C:2EDEH         LINE#         2277
  C:2EE0H         LINE#         2278
  C:2EE3H         LINE#         2282
  C:2EE5H         LINE#         2283
  C:2EE6H         LINE#         2285
  C:2EE8H         LINE#         2286
  C:2EEAH         LINE#         2288
  C:2EECH         LINE#         2289
  C:2EEDH         LINE#         2290
  C:2EEFH         LINE#         2291
  C:2EF2H         LINE#         2292
  C:2EF5H         LINE#         2296
  C:2EF7H         LINE#         2298
  C:2EF9H         LINE#         2299
  C:2EFAH         LINE#         2301
  C:2EFCH         LINE#         2302
  C:2EFEH         LINE#         2304
BL51 BANKED LINKER/LOCATER V6.05                                                      09/23/2016  17:07:17  PAGE 41


  C:2F00H         LINE#         2305
  C:2F01H         LINE#         2306
  C:2F03H         LINE#         2307
  C:2F06H         LINE#         2308
  C:2F09H         LINE#         2310
  C:2F0CH         LINE#         2312
  C:2F0EH         LINE#         2313
  C:2F0FH         LINE#         2314
  C:2F12H         LINE#         2316
  C:2F15H         LINE#         2317
  C:2F17H         LINE#         2319
  C:2F1AH         LINE#         2321
  C:2F1CH         LINE#         2322
  C:2F1EH         LINE#         2323
  C:2F20H         LINE#         2324
  C:2F22H         LINE#         2326
  C:2F24H         LINE#         2327
  C:2F26H         LINE#         2328
  C:2F27H         LINE#         2329
  C:2F28H         LINE#         2331
  C:2F2AH         LINE#         2332
  C:2F2DH         LINE#         2334
  C:2F30H         LINE#         2336
  C:2F32H         LINE#         2338
  C:2F34H         LINE#         2339
  C:2F35H         LINE#         2340
  C:2F38H         LINE#         2343
  C:2F3BH         LINE#         2344
  C:2F3EH         LINE#         2345
  C:2F41H         LINE#         2347
  C:2F43H         LINE#         2348
  C:2F45H         LINE#         2349
  C:2F47H         LINE#         2350
  C:2F4AH         LINE#         2352
  C:2F4CH         LINE#         2353
  C:2F4EH         LINE#         2354
  C:2F50H         LINE#         2355
  C:2F52H         LINE#         2356
  C:2F54H         LINE#         2357
  C:2F56H         LINE#         2358
  C:2F59H         LINE#         2359
  C:2F5AH         LINE#         2360
  C:2F5CH         LINE#         2361
  C:2F5EH         LINE#         2362
  C:2F61H         LINE#         2363
  C:2F64H         LINE#         2366
  C:2F66H         LINE#         2367
  C:2F68H         LINE#         2368
  C:2F6AH         LINE#         2369
  C:2F6CH         LINE#         2370
  C:2F6FH         LINE#         2372
  C:2F72H         LINE#         2373
  C:2F74H         LINE#         2375
  C:2F77H         LINE#         2376
  C:2F79H         LINE#         2378
  C:2F7CH         LINE#         2379
  C:2F7EH         LINE#         2381
BL51 BANKED LINKER/LOCATER V6.05                                                      09/23/2016  17:07:17  PAGE 42


  C:2F81H         LINE#         2383
  C:2F84H         LINE#         2384
  C:2F87H         LINE#         2385
  C:2F8AH         LINE#         2387
  C:2F8DH         LINE#         2389
  C:2F8FH         LINE#         2390
  C:2F91H         LINE#         2391
  C:2F93H         LINE#         2392
  C:2F96H         LINE#         2394
  C:2F98H         LINE#         2395
  C:2F9AH         LINE#         2396
  C:2F9CH         LINE#         2397
  C:2F9EH         LINE#         2398
  C:2FA0H         LINE#         2399
  C:2FA2H         LINE#         2400
  C:2FA5H         LINE#         2401
  C:2FA7H         LINE#         2403
  C:2FA9H         LINE#         2404
  C:2FABH         LINE#         2405
  C:2FADH         LINE#         2406
  C:2FB0H         LINE#         2408
  C:2FB2H         LINE#         2409
  C:2FB3H         LINE#         2410
  C:2FB5H         LINE#         2411
  C:2FB7H         LINE#         2412
  C:2FB9H         LINE#         2415
  C:2FBCH         LINE#         2416
  C:2FBEH         LINE#         2419
  C:2FC1H         LINE#         2420
  C:2FC3H         LINE#         2421
  C:2FC4H         LINE#         2422
  C:2FC6H         LINE#         2424
  C:2FC9H         LINE#         2425
  C:2FCBH         LINE#         2426
  C:2FCCH         LINE#         2427
  C:2FCFH         LINE#         2428
  C:2FD1H         LINE#         2430
  C:2FD4H         LINE#         2431
  C:2FD7H         LINE#         2433
  C:2FD9H         LINE#         2439
  C:2FDCH         LINE#         2440
  C:2FDFH         LINE#         2441
  C:2FE2H         LINE#         2444
  C:2FE5H         LINE#         2446
  C:2FE7H         LINE#         2447
  C:2FE9H         LINE#         2448
  C:2FEBH         LINE#         2449
  C:2FEEH         LINE#         2452
  C:2FF1H         LINE#         2453
  C:2FF4H         LINE#         2454
  C:2FF6H         LINE#         2455
  C:2FF9H         LINE#         2458
  C:2FFCH         LINE#         2459
  C:2FFFH         LINE#         2460
  C:3001H         LINE#         2461
  C:3004H         LINE#         2464
  C:3007H         LINE#         2466
BL51 BANKED LINKER/LOCATER V6.05                                                      09/23/2016  17:07:17  PAGE 43


  C:300AH         LINE#         2467
  C:300DH         LINE#         2468
  C:300FH         LINE#         2469
  C:3011H         LINE#         2470
  C:3014H         LINE#         2472
  C:3017H         LINE#         2476
  C:3019H         LINE#         2477
  C:301BH         LINE#         2478
  C:301DH         LINE#         2493
  C:3020H         LINE#         2495
  C:3022H         LINE#         2496
  C:3024H         LINE#         2497
  C:3027H         LINE#         2498
  C:3028H         LINE#         2499
  C:302AH         LINE#         2500
  C:302CH         LINE#         2505
  C:302EH         LINE#         2506
  C:3031H         LINE#         2507
  C:3034H         LINE#         2509
  C:3036H         LINE#         2510
  C:3039H         LINE#         2512
  C:303BH         LINE#         2513
  C:303EH         LINE#         2515
  C:3040H         LINE#         2516
  C:3043H         LINE#         2518
  C:3045H         LINE#         2519
  C:3048H         LINE#         2521
  C:304AH         LINE#         2522
  C:304DH         LINE#         2524
  C:304FH         LINE#         2527
  C:3050H         LINE#         2528
  C:3052H         LINE#         2529
  C:3054H         LINE#         2531
  C:3056H         LINE#         2532
  C:3058H         LINE#         2533
  C:305BH         LINE#         2534
  C:305EH         LINE#         2536
  C:3060H         LINE#         2537
  C:3063H         LINE#         2539
  C:3065H         LINE#         2540
  C:3068H         LINE#         2542
  C:306AH         LINE#         2543
  C:306DH         LINE#         2545
  C:306FH         LINE#         2546
  C:3072H         LINE#         2548
  C:3074H         LINE#         2549
  C:3077H         LINE#         2551
  C:3079H         LINE#         2555
  C:307AH         LINE#         2556
  C:307CH         LINE#         2557
  C:307EH         LINE#         2559
  C:3080H         LINE#         2560
  C:3082H         LINE#         2561
  C:3085H         LINE#         2562
  C:3088H         LINE#         2564
  C:308AH         LINE#         2565
  C:308DH         LINE#         2567
BL51 BANKED LINKER/LOCATER V6.05                                                      09/23/2016  17:07:17  PAGE 44


  C:308FH         LINE#         2568
  C:3092H         LINE#         2570
  C:3094H         LINE#         2571
  C:3097H         LINE#         2573
  C:3099H         LINE#         2577
  C:309AH         LINE#         2578
  C:309CH         LINE#         2579
  C:309EH         LINE#         2582
  C:30A1H         LINE#         2587
  C:30A3H         LINE#         2588
  C:30A6H         LINE#         2589
  C:30A8H         LINE#         2590
  C:30ABH         LINE#         2591
  C:30ADH         LINE#         2592
  C:30B0H         LINE#         2593
  C:30B2H         LINE#         2594
  C:30B5H         LINE#         2595
  C:30B8H         LINE#         2596
  C:30BAH         LINE#         2598
  C:30BBH         LINE#         2608
  C:30BCH         LINE#         2609
  C:30BFH         LINE#         2611
  C:30C1H         LINE#         2612
  C:30C3H         LINE#         2613
  C:30C5H         LINE#         2615
  C:30C7H         LINE#         2616
  C:30C9H         LINE#         2618
  C:30CBH         LINE#         2619
  C:30CDH         LINE#         2620
  C:30CFH         LINE#         2621
  C:30D1H         LINE#         2622
  C:30D3H         LINE#         2624
  C:30D5H         LINE#         2625
  C:30D7H         LINE#         2626
  C:30D9H         LINE#         2627
  C:30DBH         LINE#         2628
  C:30DDH         LINE#         2629
  C:30DFH         LINE#         2630
  C:30E1H         LINE#         2631
  C:30E3H         LINE#         2632
  C:30E5H         LINE#         2633
  C:30E7H         LINE#         2634
  C:30E9H         LINE#         2635
  C:30EBH         LINE#         2636
  C:30EDH         LINE#         2637
  C:30EFH         LINE#         2638
  C:30F1H         LINE#         2639
  C:30F3H         LINE#         2640
  C:30F5H         LINE#         2641
  C:30F7H         LINE#         2642
  C:30F9H         LINE#         2643
  C:30FBH         LINE#         2644
  C:30FDH         LINE#         2646
  C:30FFH         LINE#         2647
  C:3101H         LINE#         2649
  C:3103H         LINE#         2652
  C:3105H         LINE#         2653
BL51 BANKED LINKER/LOCATER V6.05                                                      09/23/2016  17:07:17  PAGE 45


  C:3107H         LINE#         2654
  C:3109H         LINE#         2655
  C:310BH         LINE#         2656
  C:310DH         LINE#         2658
  C:310FH         LINE#         2659
  C:3111H         LINE#         2660
  C:3113H         LINE#         2661
  C:3115H         LINE#         2662
  C:3117H         LINE#         2663
  C:3119H         LINE#         2665
  C:311CH         LINE#         2666
  C:311EH         LINE#         2667
  C:3120H         LINE#         2669
  C:3123H         LINE#         2670
  C:3125H         LINE#         2671
  C:3126H         LINE#         2672
  C:3128H         LINE#         2673
  C:3129H         LINE#         2676
  C:312CH         LINE#         2677
  C:312EH         LINE#         2678
  C:312FH         LINE#         2679
  C:3131H         LINE#         2680
  C:3132H         LINE#         2683
  C:3135H         LINE#         2684
  C:3137H         LINE#         2685
  C:3138H         LINE#         2686
  C:313AH         LINE#         2687
  C:313BH         LINE#         2690
  C:313EH         LINE#         2691
  C:3140H         LINE#         2692
  C:3141H         LINE#         2693
  C:3142H         LINE#         2694
  C:3144H         LINE#         2696
  C:3147H         LINE#         2697
  C:3149H         LINE#         2698
  C:314AH         LINE#         2700
  C:314CH         LINE#         2701
  C:314EH         LINE#         2703
  C:3151H         LINE#         2704
  C:3153H         LINE#         2705
  C:3154H         LINE#         2707
  C:3157H         LINE#         2709
  C:3158H         LINE#         2738
  C:315AH         LINE#         2739
  C:315CH         LINE#         2741
  C:315FH         LINE#         2742
  C:3161H         LINE#         2743
  C:3164H         LINE#         2746
  C:3167H         LINE#         2747
  C:316AH         LINE#         2748
  C:316DH         LINE#         2749
  C:316FH         LINE#         2750
  C:3172H         LINE#         2752
  C:3174H         LINE#         2754
  C:3177H         LINE#         2755
  C:3179H         LINE#         2756
  C:317AH         LINE#         2757
BL51 BANKED LINKER/LOCATER V6.05                                                      09/23/2016  17:07:17  PAGE 46


  C:317CH         LINE#         2759
  C:317EH         LINE#         2760
  C:3180H         LINE#         2761
  C:3182H         LINE#         2764
  C:3184H         LINE#         2767
  C:3187H         LINE#         2768
  C:318AH         LINE#         2769
  C:318DH         LINE#         2770
  C:318FH         LINE#         2771
  C:3192H         LINE#         2775
  C:3195H         LINE#         2776
  C:3198H         LINE#         2777
  C:319BH         LINE#         2778
  C:319DH         LINE#         2779
  C:31A0H         LINE#         2780
  C:31A2H         LINE#         2781
  C:31A3H         LINE#         2782
  C:31A5H         LINE#         2783
  C:31A7H         LINE#         2784
  C:31A9H         LINE#         2786
  C:31ACH         LINE#         2789
  C:31AFH         LINE#         2790
  C:31B1H         LINE#         2792
  C:31B3H         LINE#         2793
  C:31B6H         LINE#         2796
  C:31B8H         LINE#         2797
  C:31BAH         LINE#         2798
  C:31BDH         LINE#         2799
  C:31BEH         LINE#         2800
  C:31C0H         LINE#         2801
  C:31C2H         LINE#         2802
  C:31C4H         LINE#         2803
  C:31C6H         LINE#         2805
  C:31C9H         LINE#         2807
  C:31CCH         LINE#         2808
  C:31CFH         LINE#         2809
  C:31D2H         LINE#         2810
  C:31D3H         LINE#         2813
  C:31D5H         LINE#         2814
  C:31D8H         LINE#         2815
  C:31DBH         LINE#         2816
  C:31DEH         LINE#         2817
  C:31E1H         LINE#         2818
  C:31E2H         LINE#         2819
  C:31E4H         LINE#         2821
  C:31E6H         LINE#         2822
  C:31E9H         LINE#         2824
  C:31EBH         LINE#         2826
  C:31EEH         LINE#         2827
  C:31EFH         LINE#         2828
  C:31F1H         LINE#         2829
  C:31F4H         LINE#         2830
  C:31F5H         LINE#         2832
  C:31F7H         LINE#         2834
  C:31F9H         LINE#         2835
  C:31FBH         LINE#         2837
  C:31FDH         LINE#         2838
BL51 BANKED LINKER/LOCATER V6.05                                                      09/23/2016  17:07:17  PAGE 47


  C:31FFH         LINE#         2839
  C:3201H         LINE#         2840
  C:3203H         LINE#         2841
  C:3205H         LINE#         2843
  C:3207H         LINE#         2844
  C:320AH         LINE#         2846
  C:320CH         LINE#         2847
  C:320EH         LINE#         2848
  C:3210H         LINE#         2849
  C:3211H         LINE#         2850
  C:3213H         LINE#         2851
  C:3215H         LINE#         2853
  C:3217H         LINE#         2854
  C:3218H         LINE#         2855
  C:321AH         LINE#         2856
  C:321CH         LINE#         2857
  C:321EH         LINE#         2858
  C:3220H         LINE#         2860
  C:3223H         LINE#         2861
  C:3226H         LINE#         2862
  C:3227H         LINE#         2865
  C:3229H         LINE#         2871
  C:322BH         LINE#         2872
  C:322DH         LINE#         2875
  C:3230H         LINE#         2881
  C:3232H         LINE#         2882
  C:3233H         LINE#         2887
  C:3235H         LINE#         2888
  C:3237H         LINE#         2891
  C:323AH         LINE#         2892
  C:323CH         LINE#         2893
  C:323FH         LINE#         2897
  C:3242H         LINE#         2898
  C:3245H         LINE#         2899
  C:3248H         LINE#         2900
  C:324AH         LINE#         2901
  C:324DH         LINE#         2903
  C:324FH         LINE#         2905
  C:3252H         LINE#         2906
  C:3254H         LINE#         2907
  C:3255H         LINE#         2908
  C:3257H         LINE#         2910
  C:3259H         LINE#         2911
  C:325BH         LINE#         2912
  C:325DH         LINE#         2915
  C:325FH         LINE#         2920
  C:3262H         LINE#         2921
  C:3265H         LINE#         2922
  C:3268H         LINE#         2923
  C:326AH         LINE#         2924
  C:326DH         LINE#         2925
  C:326FH         LINE#         2926
  C:3270H         LINE#         2927
  C:3272H         LINE#         2928
  C:3274H         LINE#         2931
  C:3276H         LINE#         2933
  C:3279H         LINE#         2935
BL51 BANKED LINKER/LOCATER V6.05                                                      09/23/2016  17:07:17  PAGE 48


  C:327CH         LINE#         2936
  C:327EH         LINE#         2938
  C:3281H         LINE#         2940
  C:3284H         LINE#         2941
  C:3287H         LINE#         2944
  C:3289H         LINE#         2945
  C:328BH         LINE#         2946
  C:328EH         LINE#         2947
  C:328FH         LINE#         2948
  C:3291H         LINE#         2949
  C:3293H         LINE#         2950
  C:3295H         LINE#         2951
  C:3298H         LINE#         2953
  C:329BH         LINE#         2958
  C:329EH         LINE#         2959
  C:32A0H         LINE#         2960
  C:32A3H         LINE#         2962
  C:32A5H         LINE#         2963
  C:32A7H         LINE#         2964
  C:32A9H         LINE#         2965
  C:32ABH         LINE#         2966
  C:32ADH         LINE#         2967
  C:32AFH         LINE#         2968
  C:32B2H         LINE#         2970
  C:32B5H         LINE#         2972
  C:32B8H         LINE#         2973
  C:32BBH         LINE#         2974
  C:32BCH         LINE#         2976
  C:32BEH         LINE#         2977
  C:32C1H         LINE#         2978
  C:32C4H         LINE#         2979
  C:32C7H         LINE#         2980
  C:32CAH         LINE#         2981
  C:32CBH         LINE#         2982
  C:32CDH         LINE#         2984
  C:32CFH         LINE#         2985
  C:32D2H         LINE#         2987
  C:32D4H         LINE#         2990
  C:32D7H         LINE#         2991
  C:32D8H         LINE#         2992
  C:32DAH         LINE#         2993
  C:32DDH         LINE#         2994
  C:32DEH         LINE#         2995
  C:32E0H         LINE#         2996
  C:32E2H         LINE#         2997
  C:32E4H         LINE#         2998
  C:32E6H         LINE#         2999
  C:32E8H         LINE#         3000
  C:32EAH         LINE#         3001
  C:32ECH         LINE#         3002
  C:32EEH         LINE#         3004
  C:32F0H         LINE#         3005
  C:32F3H         LINE#         3006
  C:32F4H         LINE#         3007
  C:32F6H         LINE#         3009
  C:32F8H         LINE#         3010
  C:32FAH         LINE#         3012
BL51 BANKED LINKER/LOCATER V6.05                                                      09/23/2016  17:07:17  PAGE 49


  C:32FCH         LINE#         3013
  C:32FDH         LINE#         3014
  C:32FFH         LINE#         3015
  C:3301H         LINE#         3017
  C:3303H         LINE#         3018
  C:3304H         LINE#         3019
  C:3306H         LINE#         3020
  C:3308H         LINE#         3021
  C:330AH         LINE#         3022
  C:330CH         LINE#         3024
  C:330FH         LINE#         3025
  C:3312H         LINE#         3026
  C:3313H         LINE#         3028
  C:3315H         LINE#         3029
  C:3317H         LINE#         3032
  C:3319H         LINE#         3034
  C:331CH         LINE#         3036
  C:331FH         LINE#         3037
  C:3321H         LINE#         3040
  C:3324H         LINE#         3041
  C:3326H         LINE#         3042
  C:3329H         LINE#         3044
  C:332BH         LINE#         3045
  C:332DH         LINE#         3046
  C:332FH         LINE#         3047
  C:3331H         LINE#         3048
  C:3333H         LINE#         3049
  C:3335H         LINE#         3050
  C:3338H         LINE#         3053
  C:333AH         LINE#         3054
  C:333CH         LINE#         3055
  C:333EH         LINE#         3056
  C:3340H         LINE#         3057
  C:3342H         LINE#         3058
  C:3343H         LINE#         3059
  C:3344H         LINE#         3060
  C:3346H         LINE#         3061
  C:3349H         LINE#         3062
  C:334AH         LINE#         3064
  C:334CH         LINE#         3065
  C:334EH         LINE#         3067
  C:3350H         LINE#         3069
  C:3353H         LINE#         3070
  C:3355H         LINE#         3071
  C:3356H         LINE#         3072
  C:3358H         LINE#         3073
  C:335AH         LINE#         3074
  C:335CH         LINE#         3076
  C:335FH         LINE#         3077
  C:3361H         LINE#         3078
  C:3364H         LINE#         3082
  C:3366H         LINE#         3084
  C:3368H         LINE#         3085
  C:3369H         LINE#         3096
  C:336CH         LINE#         3097
  C:336FH         LINE#         3098
  C:3371H         LINE#         3099
BL51 BANKED LINKER/LOCATER V6.05                                                      09/23/2016  17:07:17  PAGE 50


  C:3374H         LINE#         3102
  C:3376H         LINE#         3104
  C:3379H         LINE#         3105
  C:337CH         LINE#         3107
  C:337FH         LINE#         3108
  C:3382H         LINE#         3109
  C:3385H         LINE#         3112
  C:3387H         LINE#         3113
  C:3389H         LINE#         3114
  C:338BH         LINE#         3115
  C:338DH         LINE#         3116
  C:338FH         LINE#         3117
  C:3391H         LINE#         3118
  C:3394H         LINE#         3122
  C:3396H         LINE#         3123
  C:3398H         LINE#         3125
  C:339AH         LINE#         3126
  C:339CH         LINE#         3127
  C:339FH         LINE#         3128
  C:33A0H         LINE#         3130
  C:33A2H         LINE#         3131
  C:33A5H         LINE#         3134
  C:33A7H         LINE#         3135
  C:33AAH         LINE#         3136
  C:33ACH         LINE#         3139
  C:33AFH         LINE#         3140
  C:33B1H         LINE#         3141
  C:33B2H         LINE#         3142
  C:33B3H         LINE#         3143
  C:33B4H         LINE#         3144
  C:33B5H         LINE#         3145
  C:33B7H         LINE#         3147
  C:33BAH         LINE#         3148
  C:33BDH         LINE#         3149
  C:33BFH         LINE#         3150
  C:33C1H         LINE#         3151
  C:33C4H         LINE#         3154
  C:33C6H         LINE#         3155
  C:33C8H         LINE#         3156
  C:33CAH         LINE#         3157
  C:33CCH         LINE#         3158
  C:33CEH         LINE#         3159
  C:33D0H         LINE#         3160
  C:33D2H         LINE#         3161
  C:33D5H         LINE#         3162
  C:33D6H         LINE#         3164
  C:33D8H         LINE#         3165
  C:33DBH         LINE#         3168
  C:33DEH         LINE#         3169
  C:33E1H         LINE#         3170
  C:33E3H         LINE#         3171
  C:33E5H         LINE#         3172
  C:33E8H         LINE#         3174
  C:33EAH         LINE#         3175
  C:33ECH         LINE#         3176
  C:33EEH         LINE#         3177
  C:33F0H         LINE#         3178
BL51 BANKED LINKER/LOCATER V6.05                                                      09/23/2016  17:07:17  PAGE 51


  C:33F2H         LINE#         3179
  C:33F4H         LINE#         3180
  C:33F6H         LINE#         3181
  C:33F9H         LINE#         3182
  C:33FAH         LINE#         3183
  C:33FCH         LINE#         3184
  C:33FFH         LINE#         3188
  C:3402H         LINE#         3189
  C:3405H         LINE#         3190
  C:3407H         LINE#         3191
  C:3409H         LINE#         3192
  C:340CH         LINE#         3195
  C:340FH         LINE#         3196
  C:3412H         LINE#         3197
  C:3414H         LINE#         3198
  C:3416H         LINE#         3199
  C:3419H         LINE#         3201
  C:341CH         LINE#         3202
  C:341FH         LINE#         3203
  C:3420H         LINE#         3208
  C:3422H         LINE#         3209
  C:3424H         LINE#         3210
  C:3426H         LINE#         3212
  C:3428H         LINE#         3213
  C:342AH         LINE#         3214
  C:342CH         LINE#         3215
  C:342EH         LINE#         3216
  C:3430H         LINE#         3217
  C:3432H         LINE#         3218
  C:3434H         LINE#         3219
  C:3437H         LINE#         3220
  C:3438H         LINE#         3221
  C:343AH         LINE#         3222
  C:343DH         LINE#         3226
  C:3440H         LINE#         3227
  C:3443H         LINE#         3228
  C:3445H         LINE#         3229
  C:3447H         LINE#         3230
  C:344AH         LINE#         3238
  C:344DH         LINE#         3239
  C:3450H         LINE#         3240
  C:3452H         LINE#         3241
  C:3454H         LINE#         3242
  C:3457H         LINE#         3251
  C:3459H         LINE#         3253
  C:345CH         LINE#         3254
  C:345EH         LINE#         3255
  C:345FH         LINE#         3256
  C:3461H         LINE#         3257
  C:3463H         LINE#         3259
  C:3464H         LINE#         3261
  C:3467H         LINE#         3262
  C:3469H         LINE#         3263
  C:346AH         LINE#         3264
  C:346CH         LINE#         3265
  C:346EH         LINE#         3267
  C:346FH         LINE#         3269
BL51 BANKED LINKER/LOCATER V6.05                                                      09/23/2016  17:07:17  PAGE 52


  C:3472H         LINE#         3270
  C:3474H         LINE#         3271
  C:3475H         LINE#         3272
  C:3477H         LINE#         3273
  C:3479H         LINE#         3275
  C:347AH         LINE#         3277
  C:347DH         LINE#         3278
  C:347FH         LINE#         3279
  C:3480H         LINE#         3280
  C:3482H         LINE#         3281
  C:3484H         LINE#         3285
  C:3487H         LINE#         3286
  C:348AH         LINE#         3287
  C:348CH         LINE#         3288
  C:348EH         LINE#         3289
  C:3491H         LINE#         3291
  C:3494H         LINE#         3292
  C:3497H         LINE#         3293
  C:3498H         LINE#         3294
  C:349AH         LINE#         3295
  C:349CH         LINE#         3297
  C:349EH         LINE#         3299
  C:34A0H         LINE#         3304
  C:34A2H         LINE#         3305
  C:34A4H         LINE#         3306
  C:34A6H         LINE#         3307
  C:34A8H         LINE#         3308
  C:34AAH         LINE#         3309
  C:34ACH         LINE#         3310
  C:34AEH         LINE#         3311
  C:34B1H         LINE#         3312
  C:34B2H         LINE#         3314
  C:34B4H         LINE#         3315
  C:34B7H         LINE#         3319
  C:34BAH         LINE#         3320
  C:34BDH         LINE#         3321
  C:34BFH         LINE#         3322
  C:34C1H         LINE#         3323
  C:34C4H         LINE#         3326
  C:34C7H         LINE#         3332
  C:34C9H         LINE#         3333
  C:34CBH         LINE#         3334
  C:34CDH         LINE#         3335
  C:34CFH         LINE#         3336
  C:34D1H         LINE#         3337
  C:34D3H         LINE#         3338
  C:34D5H         LINE#         3339
  C:34D8H         LINE#         3340
  C:34D9H         LINE#         3343
  C:34DBH         LINE#         3344
  C:34DEH         LINE#         3349
  C:34E1H         LINE#         3350
  C:34E4H         LINE#         3351
  C:34E6H         LINE#         3352
  C:34E8H         LINE#         3353
  C:34EBH         LINE#         3354
  C:34EDH         LINE#         3358
BL51 BANKED LINKER/LOCATER V6.05                                                      09/23/2016  17:07:17  PAGE 53


  C:34EFH         LINE#         3359
  C:34F1H         LINE#         3360
  C:34F3H         LINE#         3361
  C:34F5H         LINE#         3362
  C:34F7H         LINE#         3363
  C:34F9H         LINE#         3364
  C:34FBH         LINE#         3365
  C:34FEH         LINE#         3366
  C:34FFH         LINE#         3368
  C:3501H         LINE#         3369
  C:3504H         LINE#         3374
  C:3507H         LINE#         3375
  C:350AH         LINE#         3376
  C:350CH         LINE#         3377
  C:350EH         LINE#         3378
  C:3511H         LINE#         3380
  C:3513H         LINE#         3381
  C:3515H         LINE#         3382
  C:3517H         LINE#         3383
  C:3519H         LINE#         3384
  C:351BH         LINE#         3385
  C:351DH         LINE#         3386
  C:351FH         LINE#         3387
  C:3522H         LINE#         3388
  C:3523H         LINE#         3391
  C:3525H         LINE#         3392
  C:3528H         LINE#         3396
  C:352BH         LINE#         3397
  C:352EH         LINE#         3398
  C:3530H         LINE#         3399
  C:3532H         LINE#         3400
  C:3535H         LINE#         3401
  C:3537H         LINE#         3405
  C:3539H         LINE#         3407
  C:353CH         LINE#         3408
  C:353EH         LINE#         3409
  C:3541H         LINE#         3411
  C:3543H         LINE#         3412
  C:3545H         LINE#         3413
  C:3547H         LINE#         3414
  C:354AH         LINE#         3415
  C:354CH         LINE#         3417
  C:354FH         LINE#         3418
  C:3551H         LINE#         3419
  C:3552H         LINE#         3420
  C:3554H         LINE#         3421
  C:3556H         LINE#         3426
  C:3558H         LINE#         3429
  C:355AH         LINE#         3430
  C:355BH         LINE#         3431
  C:355DH         LINE#         3432
  C:355FH         LINE#         3434
  C:3561H         LINE#         3435
  C:3563H         LINE#         3436
  C:3565H         LINE#         3437
  C:3567H         LINE#         3439
  C:356AH         LINE#         3440
BL51 BANKED LINKER/LOCATER V6.05                                                      09/23/2016  17:07:17  PAGE 54


  C:356CH         LINE#         3441
  C:356DH         LINE#         3444
  C:3570H         LINE#         3445
  C:3573H         LINE#         3446
  C:3575H         LINE#         3447
  C:3577H         LINE#         3448
  C:357AH         LINE#         3450
  C:357CH         LINE#         3451
  C:357EH         LINE#         3453
  C:3581H         LINE#         3454
  C:3583H         LINE#         3455
  C:3584H         LINE#         3457
  C:3587H         LINE#         3458
  C:358AH         LINE#         3459
  C:358CH         LINE#         3460
  C:358EH         LINE#         3461
  C:3591H         LINE#         3464
  C:3594H         LINE#         3467
  C:3596H         LINE#         3468
  C:3598H         LINE#         3470
  C:359BH         LINE#         3471
  C:359DH         LINE#         3472
  C:359EH         LINE#         3474
  C:35A1H         LINE#         3475
  C:35A4H         LINE#         3476
  C:35A6H         LINE#         3477
  C:35A8H         LINE#         3478
  C:35ABH         LINE#         3480
  C:35ADH         LINE#         3481
  C:35AFH         LINE#         3483
  C:35B2H         LINE#         3484
  C:35B4H         LINE#         3485
  C:35B5H         LINE#         3487
  C:35B8H         LINE#         3488
  C:35BBH         LINE#         3489
  C:35BDH         LINE#         3490
  C:35BFH         LINE#         3491
  C:35C2H         LINE#         3493
  C:35C5H         LINE#         3495
  C:35C8H         LINE#         3496
  C:35CBH         LINE#         3497
  C:35CDH         LINE#         3499
  C:35CFH         LINE#         3500
  C:35D1H         LINE#         3501
  C:35D3H         LINE#         3502
  C:35D5H         LINE#         3503
  C:35D7H         LINE#         3504
  C:35D9H         LINE#         3505
  C:35DCH         LINE#         3506
  C:35DDH         LINE#         3507
  C:35DFH         LINE#         3508
  C:35E2H         LINE#         3510
  C:35E4H         LINE#         3511
  C:35E7H         LINE#         3514
  C:35E9H         LINE#         3515
  C:35EBH         LINE#         3516
  C:35EDH         LINE#         3517
BL51 BANKED LINKER/LOCATER V6.05                                                      09/23/2016  17:07:17  PAGE 55


  C:35EFH         LINE#         3518
  C:35F1H         LINE#         3519
  C:35F3H         LINE#         3520
  C:35F5H         LINE#         3521
  C:35F8H         LINE#         3522
  C:35F9H         LINE#         3524
  C:35FBH         LINE#         3525
  C:35FEH         LINE#         3527
  C:3600H         LINE#         3528
  C:3603H         LINE#         3530
  C:3605H         LINE#         3532
  C:3607H         LINE#         3534
  C:360AH         LINE#         3535
  C:360DH         LINE#         3536
  C:360FH         LINE#         3537
  C:3611H         LINE#         3538
  C:3614H         LINE#         3540
  C:3616H         LINE#         3541
  C:3618H         LINE#         3543
  C:361BH         LINE#         3544
  C:361DH         LINE#         3545
  C:361EH         LINE#         3547
  C:3621H         LINE#         3548
  C:3624H         LINE#         3549
  C:3626H         LINE#         3550
  C:3628H         LINE#         3551
  C:362BH         LINE#         3556
  C:362EH         LINE#         3557
  C:3631H         LINE#         3558
  C:3634H         LINE#         3559
  C:3636H         LINE#         3560
  C:3639H         LINE#         3562
  C:363BH         LINE#         3564
  C:363EH         LINE#         3565
  C:3640H         LINE#         3566
  C:3641H         LINE#         3567
  C:3643H         LINE#         3569
  C:3645H         LINE#         3570
  C:3647H         LINE#         3571
  C:3649H         LINE#         3573
  C:364BH         LINE#         3576
  C:364CH         LINE#         3585
  C:364FH         LINE#         3591
  C:3652H         LINE#         3592
  C:3655H         LINE#         3594
  C:3657H         LINE#         3596
  C:3659H         LINE#         3597
  C:365CH         LINE#         3600
  C:365EH         LINE#         3601
  C:3661H         LINE#         3602
  C:3664H         LINE#         3603
  C:3666H         LINE#         3604
  C:3669H         LINE#         3605
  C:366BH         LINE#         3608
  C:366EH         LINE#         3611
  C:3670H         LINE#         3612
  C:3672H         LINE#         3615
BL51 BANKED LINKER/LOCATER V6.05                                                      09/23/2016  17:07:17  PAGE 56


  C:3674H         LINE#         3616
  C:3677H         LINE#         3617
  C:367AH         LINE#         3618
  C:367DH         LINE#         3619
  C:367FH         LINE#         3620
  C:3682H         LINE#         3621
  C:3684H         LINE#         3623
  C:3687H         LINE#         3625
  C:368AH         LINE#         3626
  C:368DH         LINE#         3627
  C:368FH         LINE#         3628
  C:3691H         LINE#         3652
  C:3694H         LINE#         3653
  C:3697H         LINE#         3654
  C:3699H         LINE#         3655
  C:369BH         LINE#         3656
  C:369EH         LINE#         3657
  C:36A0H         LINE#         3659
  C:36A3H         LINE#         3660
  C:36A5H         LINE#         3661
  C:36A6H         LINE#         3664
  C:36A9H         LINE#         3687
  C:36ACH         LINE#         3688
  C:36AFH         LINE#         3689
  C:36B1H         LINE#         3690
  C:36B3H         LINE#         3691
  C:36B6H         LINE#         3694
  C:36B8H         LINE#         3696
  C:36BBH         LINE#         3697
  C:36BDH         LINE#         3698
  C:36BEH         LINE#         3699
  C:36C0H         LINE#         3700
  C:36C2H         LINE#         3702
  C:36C3H         LINE#         3704
  C:36C6H         LINE#         3705
  C:36C8H         LINE#         3706
  C:36C9H         LINE#         3707
  C:36CBH         LINE#         3708
  C:36CDH         LINE#         3710
  C:36CEH         LINE#         3712
  C:36D1H         LINE#         3713
  C:36D3H         LINE#         3714
  C:36D4H         LINE#         3715
  C:36D6H         LINE#         3716
  C:36D8H         LINE#         3718
  C:36D9H         LINE#         3720
  C:36DCH         LINE#         3721
  C:36DEH         LINE#         3722
  C:36DFH         LINE#         3723
  C:36E1H         LINE#         3724
  C:36E3H         LINE#         3725
  C:36E5H         LINE#         3728
  C:36E7H         LINE#         3729
  C:36E9H         LINE#         3730
  C:36EBH         LINE#         3733
  C:36EEH         LINE#         3734
  C:36F0H         LINE#         3735
BL51 BANKED LINKER/LOCATER V6.05                                                      09/23/2016  17:07:17  PAGE 57


  C:36F1H         LINE#         3736
  C:36F2H         LINE#         3737
  C:36F3H         LINE#         3738
  C:36F4H         LINE#         3739
  C:36F6H         LINE#         3743
  C:36F8H         LINE#         3744
  C:36FAH         LINE#         3745
  C:36FCH         LINE#         3748
  C:36FEH         LINE#         3749
  C:3701H         LINE#         3751
  C:3703H         LINE#         3752
  C:3706H         LINE#         3753
  C:3709H         LINE#         3755
  C:370BH         LINE#         3756
  C:370DH         LINE#         3757
  C:370FH         LINE#         3760
  C:3712H         LINE#         3761
  C:3714H         LINE#         3764
  C:3716H         LINE#         3765
  C:3718H         LINE#         3767
  C:371AH         LINE#         3768
  C:371DH         LINE#         3769
  C:3720H         LINE#         3770
  C:3723H         LINE#         3773
  C:3725H         LINE#         3774
  C:3727H         LINE#         3775
  C:3729H         LINE#         3779
  C:372BH         LINE#         3780
  C:372DH         LINE#         3781
  C:3730H         LINE#         3782
  C:3733H         LINE#         3784
  C:3735H         LINE#         3788
  C:3737H         LINE#         3789
  C:3739H         LINE#         3790
  C:373CH         LINE#         3791
  C:373FH         LINE#         3792
  C:3742H         LINE#         3796
  C:3744H         LINE#         3797
  C:3747H         LINE#         3798
  C:3749H         LINE#         3799
  C:374CH         LINE#         3800
  C:374EH         LINE#         3801
  C:3751H         LINE#         3803
  C:3754H         LINE#         3806
  C:3756H         LINE#         3807
  C:3758H         LINE#         3808
  C:375AH         LINE#         3810
  C:375CH         LINE#         3812
  C:375FH         LINE#         3813
  C:3761H         LINE#         3814
  C:3762H         LINE#         3815
  C:3764H         LINE#         3817
  C:3767H         LINE#         3819
  C:3769H         LINE#         3820
  C:376CH         LINE#         3822
  C:376EH         LINE#         3823
  C:3771H         LINE#         3825
BL51 BANKED LINKER/LOCATER V6.05                                                      09/23/2016  17:07:17  PAGE 58


  C:3773H         LINE#         3826
  C:3776H         LINE#         3827
  C:3778H         LINE#         3829
  C:377AH         LINE#         3830
  C:377DH         LINE#         3833
  C:377FH         LINE#         3835
  C:3781H         LINE#         3836
  C:3784H         LINE#         3837
  C:3786H         LINE#         3838
  C:3789H         LINE#         3839
  C:378BH         LINE#         3840
  C:378EH         LINE#         3843
  C:3790H         LINE#         3844
  C:3792H         LINE#         3845
  C:3794H         LINE#         3846
  C:3795H         LINE#         3847
  C:3798H         LINE#         3849
  C:379AH         LINE#         3850
  C:379DH         LINE#         3852
  C:37A0H         LINE#         3853
  C:37A2H         LINE#         3854
  C:37A5H         LINE#         3856
  C:37A7H         LINE#         3858
  C:37AAH         LINE#         3861
  C:37ADH         LINE#         3862
  C:37B0H         LINE#         3865
  C:37B3H         LINE#         3867
  C:37B5H         LINE#         3869
  C:37B7H         LINE#         3871
  C:37B9H         LINE#         3872
  C:37BBH         LINE#         3873
  C:37BDH         LINE#         3874
  C:37BFH         LINE#         3875
  C:37C2H         LINE#         3877
  C:37C4H         LINE#         3878
  C:37C7H         LINE#         3880
  C:37C9H         LINE#         3881
  C:37CCH         LINE#         3883
  C:37CEH         LINE#         3885
  C:37CFH         LINE#         3895
  C:37D2H         LINE#         3896
  C:37D4H         LINE#         3897
  C:37D5H         LINE#         3901
  C:37D7H         LINE#         3902
  C:37D9H         LINE#         3904
  C:37DBH         LINE#         3907
  C:37DEH         LINE#         3909
  C:37DFH         LINE#         3914
  C:37E0H         LINE#         3922
  C:37E3H         LINE#         3923
  C:37E4H         LINE#         3934
  C:37E7H         LINE#         3937
  C:37EAH         LINE#         3938
  C:37EDH         LINE#         3941
  C:37EFH         LINE#         3945
  C:37F1H         LINE#         3946
  C:37F4H         LINE#         3949
BL51 BANKED LINKER/LOCATER V6.05                                                      09/23/2016  17:07:17  PAGE 59


  C:37F6H         LINE#         3950
  C:37F9H         LINE#         3951
  C:37FCH         LINE#         3953
  C:37FEH         LINE#         3954
  C:3801H         LINE#         3955
  C:3803H         LINE#         3957
  C:3806H         LINE#         3960
  C:3808H         LINE#         3961
  C:380AH         LINE#         3964
  C:380CH         LINE#         3965
  C:380FH         LINE#         3966
  C:3812H         LINE#         3967
  C:3815H         LINE#         3968
  C:3817H         LINE#         3969
  C:381AH         LINE#         3970
  C:381CH         LINE#         3972
  C:381FH         LINE#         3974
  C:3822H         LINE#         3975
  C:3825H         LINE#         3976
  C:3827H         LINE#         3977
  C:3829H         LINE#         3980
  C:382CH         LINE#         3981
  C:382FH         LINE#         3982
  C:3831H         LINE#         3983
  C:3833H         LINE#         3984
  C:3836H         LINE#         3985
  C:3838H         LINE#         3987
  C:383BH         LINE#         3988
  C:383DH         LINE#         3989
  C:383EH         LINE#         3992
  C:3841H         LINE#         3996
  C:3844H         LINE#         3997
  C:3847H         LINE#         3998
  C:3849H         LINE#         3999
  C:384BH         LINE#         4000
  C:384EH         LINE#         4003
  C:3850H         LINE#         4005
  C:3853H         LINE#         4006
  C:3855H         LINE#         4007
  C:3856H         LINE#         4008
  C:3858H         LINE#         4009
  C:385AH         LINE#         4011
  C:385BH         LINE#         4013
  C:385EH         LINE#         4014
  C:3860H         LINE#         4015
  C:3861H         LINE#         4016
  C:3863H         LINE#         4017
  C:3865H         LINE#         4019
  C:3866H         LINE#         4021
  C:3869H         LINE#         4022
  C:386BH         LINE#         4023
  C:386CH         LINE#         4024
  C:386EH         LINE#         4025
  C:3870H         LINE#         4027
  C:3871H         LINE#         4029
  C:3874H         LINE#         4030
  C:3876H         LINE#         4031
BL51 BANKED LINKER/LOCATER V6.05                                                      09/23/2016  17:07:17  PAGE 60


  C:3877H         LINE#         4032
  C:3879H         LINE#         4033
  C:387BH         LINE#         4034
  C:387DH         LINE#         4037
  C:387FH         LINE#         4038
  C:3881H         LINE#         4039
  C:3883H         LINE#         4042
  C:3886H         LINE#         4043
  C:3888H         LINE#         4044
  C:3889H         LINE#         4045
  C:388AH         LINE#         4046
  C:388BH         LINE#         4047
  C:388CH         LINE#         4048
  C:388EH         LINE#         4050
  C:3890H         LINE#         4051
  C:3892H         LINE#         4054
  C:3894H         LINE#         4055
  C:3897H         LINE#         4057
  C:3899H         LINE#         4058
  C:389CH         LINE#         4060
  C:389EH         LINE#         4061
  C:38A1H         LINE#         4062
  C:38A3H         LINE#         4063
  C:38A6H         LINE#         4064
  C:38A8H         LINE#         4065
  C:38ABH         LINE#         4066
  C:38ADH         LINE#         4071
  C:38AFH         LINE#         4074
  C:38B2H         LINE#         4076
  C:38B4H         LINE#         4077
  C:38B6H         LINE#         4079
  C:38B8H         LINE#         4080
  C:38BBH         LINE#         4081
  C:38BEH         LINE#         4083
  C:38C0H         LINE#         4084
  C:38C3H         LINE#         4085
  C:38C5H         LINE#         4086
  C:38C8H         LINE#         4087
  C:38CAH         LINE#         4088
  C:38CDH         LINE#         4089
  C:38CFH         LINE#         4095
  C:38D1H         LINE#         4097
  C:38D3H         LINE#         4102
  C:38D5H         LINE#         4103
  C:38D8H         LINE#         4104
  C:38DBH         LINE#         4106
  C:38DDH         LINE#         4107
  C:38DFH         LINE#         4110
  C:38E2H         LINE#         4115
  C:38E5H         LINE#         4116
  C:38E8H         LINE#         4117
  C:38EAH         LINE#         4118
  C:38ECH         LINE#         4119
  C:38EFH         LINE#         4121
  C:38F2H         LINE#         4122
  C:38F5H         LINE#         4123
  C:38F6H         LINE#         4124
BL51 BANKED LINKER/LOCATER V6.05                                                      09/23/2016  17:07:17  PAGE 61


  C:38F8H         LINE#         4125
  C:38FAH         LINE#         4126
  C:38FCH         LINE#         4130
  C:38FFH         LINE#         4131
  C:3902H         LINE#         4133
  C:3904H         LINE#         4136
  C:3907H         LINE#         4137
  C:390AH         LINE#         4142
  C:390DH         LINE#         4143
  C:390FH         LINE#         4144
  C:3912H         LINE#         4145
  C:3914H         LINE#         4148
  C:3917H         LINE#         4149
  C:3919H         LINE#         4150
  C:391AH         LINE#         4151
  C:391CH         LINE#         4152
  C:391EH         LINE#         4154
  C:3921H         LINE#         4155
  C:3923H         LINE#         4156
  C:3924H         LINE#         4157
  C:3926H         LINE#         4158
  C:3928H         LINE#         4159
  C:392AH         LINE#         4163
  C:392CH         LINE#         4164
  C:392FH         LINE#         4165
  C:3931H         LINE#         4166
  C:3934H         LINE#         4167
  C:3937H         LINE#         4170
  C:3939H         LINE#         4171
  C:393CH         LINE#         4173
  C:393DH         LINE#         4176
  C:393FH         LINE#         4178
  C:3940H         LINE#         4179
  C:3941H         LINE#         4180
  C:3942H         LINE#         4181
  C:3943H         LINE#         4182
  C:3944H         LINE#         4185
  C:3946H         LINE#         4187
  C:3948H         LINE#         4188
  C:3949H         LINE#         4189
  C:394BH         LINE#         4190
  C:394CH         LINE#         4191
  C:394DH         LINE#         4192
  C:394FH         LINE#         4193
  C:3951H         LINE#         4194
  C:3953H         LINE#         4195
  C:3954H         LINE#         4196
  C:3956H         LINE#         4198
  C:3957H         LINE#         4199
  C:3958H         LINE#         4200
  C:3959H         LINE#         4201
  C:395AH         LINE#         4202
  C:395BH         LINE#         4203
  C:395CH         LINE#         4206
  C:395EH         LINE#         4207
  C:3960H         LINE#         4208
  C:3962H         LINE#         4210
BL51 BANKED LINKER/LOCATER V6.05                                                      09/23/2016  17:07:17  PAGE 62


  C:3965H         LINE#         4211
  C:3968H         LINE#         4212
  C:396AH         LINE#         4213
  C:396DH         LINE#         4216
  C:3970H         LINE#         4217
  C:3973H         LINE#         4218
  C:3975H         LINE#         4219
  C:3978H         LINE#         4224
  C:397BH         LINE#         4225
  C:397EH         LINE#         4226
  C:3980H         LINE#         4227
  C:3982H         LINE#         4228
  C:3985H         LINE#         4229
  C:3988H         LINE#         4230
  C:398BH         LINE#         4232
  C:398CH         LINE#         4237
  C:398FH         LINE#         4238
  C:3992H         LINE#         4239
  C:3994H         LINE#         4240
  C:3997H         LINE#         4243
  C:399AH         LINE#         4244
  C:399DH         LINE#         4245
  C:399FH         LINE#         4246
  C:39A2H         LINE#         4250
  C:39A5H         LINE#         4251
  C:39A8H         LINE#         4252
  C:39AAH         LINE#         4253
  C:39ACH         LINE#         4254
  C:39AFH         LINE#         4255
  C:39B2H         LINE#         4256
  C:39B3H         LINE#         4278
  C:39B6H         LINE#         4281
  C:39B9H         LINE#         4282
  C:39BCH         LINE#         4283
  C:39BEH         LINE#         4285
  C:39C1H         LINE#         4287
  C:39C3H         LINE#         4289
  C:39C6H         LINE#         4290
  C:39C9H         LINE#         4291
  C:39CBH         LINE#         4293
  C:39CEH         LINE#         4294
  C:39D1H         LINE#         4295
  C:39D3H         LINE#         4297
  C:39D6H         LINE#         4298
  C:39D9H         LINE#         4299
  C:39DBH         LINE#         4301
  C:39DEH         LINE#         4302
  C:39E1H         LINE#         4303
  C:39E3H         LINE#         4305
  C:39E6H         LINE#         4306
  C:39E9H         LINE#         4307
  C:39EBH         LINE#         4309
  C:39EEH         LINE#         4310
  C:39F1H         LINE#         4311
  C:39F3H         LINE#         4313
  C:39F4H         LINE#         4323
  C:39F6H         LINE#         4324
BL51 BANKED LINKER/LOCATER V6.05                                                      09/23/2016  17:07:17  PAGE 63


  C:39F9H         LINE#         4325
  C:39FBH         LINE#         4327
  C:39FEH         LINE#         4328
  C:3A01H         LINE#         4329
  C:3A04H         LINE#         4330
  C:3A06H         LINE#         4331
  C:3A08H         LINE#         4332
  C:3A0BH         LINE#         4334
  C:3A0DH         LINE#         4335
  C:3A0FH         LINE#         4336
  C:3A11H         LINE#         4337
  C:3A13H         LINE#         4338
  C:3A15H         LINE#         4339
  C:3A17H         LINE#         4341
  C:3A1AH         LINE#         4342
  C:3A1DH         LINE#         4344
  C:3A1FH         LINE#         4345
  C:3A22H         LINE#         4346
  C:3A24H         LINE#         4347
  C:3A27H         LINE#         4349
  C:3A28H         LINE#         4353
  C:3A2AH         LINE#         4354
  C:3A2DH         LINE#         4355
  C:3A2FH         LINE#         4357
  C:3A32H         LINE#         4358
  C:3A35H         LINE#         4359
  C:3A38H         LINE#         4360
  C:3A3AH         LINE#         4361
  C:3A3CH         LINE#         4362
  C:3A3FH         LINE#         4364
  C:3A41H         LINE#         4365
  C:3A43H         LINE#         4366
  C:3A45H         LINE#         4367
  C:3A47H         LINE#         4368
  C:3A49H         LINE#         4369
  C:3A4BH         LINE#         4371
  C:3A4EH         LINE#         4372
  C:3A51H         LINE#         4374
  C:3A53H         LINE#         4375
  C:3A56H         LINE#         4376
  C:3A58H         LINE#         4377
  C:3A5BH         LINE#         4378
  C:3A5EH         LINE#         4379
  C:3A5FH         LINE#         4419
  C:3A60H         LINE#         4423
  C:3A63H         LINE#         4424
  C:3A66H         LINE#         4425
  C:3A68H         LINE#         4426
  C:3A6AH         LINE#         4428
  C:3A6BH         LINE#         4429
  C:3A6CH         LINE#         4430
  C:3A6DH         LINE#         4431
  C:3A6FH         LINE#         4434
  C:3A72H         LINE#         4435
  C:3A74H         LINE#         4437
  C:3A75H         LINE#         4438
  C:3A77H         LINE#         4439
BL51 BANKED LINKER/LOCATER V6.05                                                      09/23/2016  17:07:17  PAGE 64


  C:3A79H         LINE#         4440
  C:3A7AH         LINE#         4441
  C:3A7CH         LINE#         4444
  C:3A7FH         LINE#         4445
  C:3A81H         LINE#         4447
  C:3A82H         LINE#         4448
  C:3A84H         LINE#         4449
  C:3A86H         LINE#         4450
  C:3A87H         LINE#         4451
  C:3A89H         LINE#         4454
  C:3A8BH         LINE#         4455
  C:3A8DH         LINE#         4457
  C:3A8FH         LINE#         4459
  C:3A90H         LINE#         4460
  C:3A91H         LINE#         4461
  C:3A92H         LINE#         4462
  C:3A94H         LINE#         4464
  C:3A96H         LINE#         4465
  C:3A98H         LINE#         4468
  C:3A99H         LINE#         4470
  C:3A9AH         LINE#         4471
  C:3A9CH         LINE#         4474
  C:3A9EH         LINE#         4475
  C:3AA0H         LINE#         4478
  C:3AA1H         LINE#         4479
  C:3AA2H         LINE#         4480
  C:3AA4H         LINE#         4481
  C:3AA5H         LINE#         4482
  C:3AA7H         LINE#         4483
  C:3AA9H         LINE#         4484
  C:3AAAH         LINE#         4487
  C:3AACH         LINE#         4488
  C:3AADH         LINE#         4491
  C:3AAFH         LINE#         4492
  C:3AB0H         LINE#         4496
  C:3AB2H         LINE#         4497
  C:3AB3H         LINE#         4501
  C:3AB5H         LINE#         4502
  C:3AB7H         LINE#         4504
  C:3ABAH         LINE#         4506
  C:3ABDH         LINE#         4507
  C:3AC0H         LINE#         4508
  C:3AC3H         LINE#         4509
  C:3AC5H         LINE#         4510
  C:3AC8H         LINE#         4513
  C:3ACAH         LINE#         4516
  C:3ACDH         LINE#         4517
  C:3ACFH         LINE#         4518
  C:3AD0H         LINE#         4519
  C:3AD2H         LINE#         4520
  C:3AD4H         LINE#         4523
  C:3AD6H         LINE#         4527
  -------         ENDMOD        OBUMAIN

  -------         MODULE        CONTACTISSUE
  C:7070H         SEGMENT       ?PR?CONTACTISSUE?MATER
  C:715AH         PUBLIC        CONTACTISSUE_RX02_DEAL
BL51 BANKED LINKER/LOCATER V6.05                                                      09/23/2016  17:07:17  PAGE 65


  C:7070H         PUBLIC        _FUN_CONTACTISSUE_INIT
  C:7091H         PUBLIC        _FUN_CONTACTISSUE_INIT02
  C:70A3H         PUBLIC        _FUN_CONTACTISSUE_INITDOWN
  C:7082H         PUBLIC        _FUN_CONTACTISSUE_RELEASE
  C:70E2H         PUBLIC        _FUN_CONTACTISSUE_RX
  C:7151H         PUBLIC        _FUN_CONTACTISSUE_RX02
  C:7145H         PUBLIC        _FUN_CONTACTISSUE_RX03
  C:70B5H         PUBLIC        _FUN_CONTACTISSUE_RXBST
  C:71F8H         PUBLIC        _FUN_CONTACTISSUE_TX
  N:009CH         SYMBOL        BRT
  B:0020H.0       SYMBOL        BUSY
  N:00FAH         SYMBOL        CCAP0H
  N:00EAH         SYMBOL        CCAP0L
  N:00FBH         SYMBOL        CCAP1H
  N:00EBH         SYMBOL        CCAP1L
  N:00FCH         SYMBOL        CCAP2H
  N:00ECH         SYMBOL        CCAP2L
  N:00FDH         SYMBOL        CCAP3H
  N:00EDH         SYMBOL        CCAP3L
  N:00FEH         SYMBOL        CCAP4H
  N:00EEH         SYMBOL        CCAP4L
  N:00FFH         SYMBOL        CCAP5H
  N:00EFH         SYMBOL        CCAP5L
  N:00DAH         SYMBOL        CCAPM0
  N:00DBH         SYMBOL        CCAPM1
  N:00DCH         SYMBOL        CCAPM2
  N:00DDH         SYMBOL        CCAPM3
  N:00DEH         SYMBOL        CCAPM4
  N:00DFH         SYMBOL        CCAPM5
  B:00D8H.0       SYMBOL        CCF0
  B:00D8H.1       SYMBOL        CCF1
  B:00D8H.2       SYMBOL        CCF2
  B:00D8H.3       SYMBOL        CCF3
  B:00D8H.4       SYMBOL        CCF4
  B:00D8H.5       SYMBOL        CCF5
  N:00D8H         SYMBOL        CCON
  B:00D8H.7       SYMBOL        CF
  N:00F9H         SYMBOL        CH
  N:00E9H         SYMBOL        CL
  N:00D9H         SYMBOL        CMOD
  N:0002H         SYMBOL        CONST_ACTIONTYPE_GETRAND
  N:0000H         SYMBOL        CONST_ACTIONTYPE_GETSECURE
  N:0004H         SYMBOL        CONST_ACTIONTYPE_SETMMI
  N:0001H         SYMBOL        CONST_ACTIONTYPE_SETSECURE
  N:0003H         SYMBOL        CONST_ACTIONTYPE_TRANSFERCHANNEL
  N:0003H         SYMBOL        CONST_ACT_H
  N:0001H         SYMBOL        CONST_ACT_H_H
  N:0000H         SYMBOL        CONST_ACT_H_L
  N:0001H         SYMBOL        CONST_ACT_L
  N:0006H         SYMBOL        CONST_ACT_L_H
  N:000AH         SYMBOL        CONST_ACT_L_L
  N:0002H         SYMBOL        CONST_ACT_M
  N:0000H         SYMBOL        CONST_ACT_M_H
  N:0006H         SYMBOL        CONST_ACT_M_L
  N:0002H         SYMBOL        CONST_ACT_V
  N:0002H         SYMBOL        CONST_BAUD_115200
  N:0003H         SYMBOL        CONST_BAUD_115200PC
BL51 BANKED LINKER/LOCATER V6.05                                                      09/23/2016  17:07:17  PAGE 66


  N:0004H         SYMBOL        CONST_BAUD_230000
  N:0001H         SYMBOL        CONST_BAUD_38400
  N:0005H         SYMBOL        CONST_BAUD_38400PC
  N:0000H         SYMBOL        CONST_BAUD_9600
  N:0006H         SYMBOL        CONST_BAUD_9600PC
  N:000CH         SYMBOL        CONST_BAUD_BITFULL12
  N:000EH         SYMBOL        CONST_BAUD_BITFULL20
  N:0010H         SYMBOL        CONST_BAUD_BITFULL28
  N:000BH         SYMBOL        CONST_BAUD_BITFULL8
  N:000CH         SYMBOL        CONST_BAUD_BITHALF12
  N:00B3H         SYMBOL        CONST_BAUD_CURRENTBITFULL
  N:0058H         SYMBOL        CONST_BAUD_CURRENTBITHALF
  N:001DH         SYMBOL        CONST_BAUD_FULL115200
  N:000FH         SYMBOL        CONST_BAUD_FULL230000
  N:005DH         SYMBOL        CONST_BAUD_FULL38400
  N:00B3H         SYMBOL        CONST_BAUD_FULL9600
  N:000DH         SYMBOL        CONST_BAUD_HALF115200
  N:0008H         SYMBOL        CONST_BAUD_HALF230000
  N:002DH         SYMBOL        CONST_BAUD_HALF38400
  N:0058H         SYMBOL        CONST_BAUD_HALF9600
  N:00F8H         SYMBOL        CONST_BAUD_HAND115200
  N:00F3H         SYMBOL        CONST_BAUD_HAND115200PC
  N:00FCH         SYMBOL        CONST_BAUD_HAND230000
  N:00E9H         SYMBOL        CONST_BAUD_HAND38400
  N:00D8H         SYMBOL        CONST_BAUD_HAND38400PC
  N:00A3H         SYMBOL        CONST_BAUD_HAND9600
  N:0060H         SYMBOL        CONST_BAUD_HAND9600PC
  N:00FFH         SYMBOL        CONST_BLACK_H
  N:00FFH         SYMBOL        CONST_BLACK_L
  N:0014H         SYMBOL        CONST_BLUETOOTH_WORKTIME
  N:0020H         SYMBOL        CONST_BSTLIMIT
  N:0064H         SYMBOL        CONST_BSTLIMIT02
  N:0016H         SYMBOL        CONST_CARD_CONSUME
  N:0017H         SYMBOL        CONST_CARD_PASS
  N:0000H         SYMBOL        CONST_CELLFILE_H
  N:0009H         SYMBOL        CONST_CELLFILE_L
  N:0001H         SYMBOL        CONST_DPH_NORMAL
  N:0001H         SYMBOL        CONST_DPH_ONE
  N:0003H         SYMBOL        CONST_DPH_SERX
  N:0000H         SYMBOL        CONST_DPH_SETX
  N:0003H         SYMBOL        CONST_DPH_THREE
  N:0002H         SYMBOL        CONST_DPH_TWO
  N:0000H         SYMBOL        CONST_DPH_ZERO
  N:0007H         SYMBOL        CONST_DSRC_ACTION
  N:0009H         SYMBOL        CONST_DSRC_ACTIONTYPE
  N:0001H         SYMBOL        CONST_DSRC_CHANNELIDICC
  N:0002H         SYMBOL        CONST_DSRC_CHANNELIDSAM
  N:000AH         SYMBOL        CONST_DSRC_CONTAIN
  N:0008H         SYMBOL        CONST_DSRC_DID
  N:0000H         SYMBOL        CONST_DSRC_FILDIDAPPKEY
  N:0002H         SYMBOL        CONST_DSRC_FILDIDCONSUME
  N:0003H         SYMBOL        CONST_DSRC_FILDIDHOLD
  N:0001H         SYMBOL        CONST_DSRC_FILDIDVEHICLE
  N:000BH         SYMBOL        CONST_DSRC_FILL
  N:0006H         SYMBOL        CONST_DSRC_HEAD
  N:0005H         SYMBOL        CONST_DSRC_LLCCTRL
  N:0004H         SYMBOL        CONST_DSRC_MACCTRL
BL51 BANKED LINKER/LOCATER V6.05                                                      09/23/2016  17:07:17  PAGE 67


  N:0003H         SYMBOL        CONST_ETC_INPUT
  N:0002H         SYMBOL        CONST_FALSH_PREFLAG02H
  N:00F4H         SYMBOL        CONST_FALSH_PREFLAG02L
  N:0002H         SYMBOL        CONST_FALSH_PREFLAG03H
  N:00F5H         SYMBOL        CONST_FALSH_PREFLAG03L
  N:0002H         SYMBOL        CONST_FALSH_PREFLAG04H
  N:00F6H         SYMBOL        CONST_FALSH_PREFLAG04L
  N:0002H         SYMBOL        CONST_FALSH_PREFLAGH
  N:00F3H         SYMBOL        CONST_FALSH_PREFLAGL
  N:0001H         SYMBOL        CONST_FALSH_PREFLAGLEN
  N:0004H         SYMBOL        CONST_FLASHADD_BEACONIDUNIXTIMEH
  N:0000H         SYMBOL        CONST_FLASHADD_BEACONIDUNIXTIMEL
  N:0002H         SYMBOL        CONST_FLASH_0002H
  N:0058H         SYMBOL        CONST_FLASH_0002L
  N:0004H         SYMBOL        CONST_FLASH_0002LEN
  N:0002H         SYMBOL        CONST_FLASH_0012H
  N:005CH         SYMBOL        CONST_FLASH_0012L
  N:0028H         SYMBOL        CONST_FLASH_0012LEN
  N:0002H         SYMBOL        CONST_FLASH_0015H
  N:0084H         SYMBOL        CONST_FLASH_0015L
  N:0032H         SYMBOL        CONST_FLASH_0015LEN
  N:002BH         SYMBOL        CONST_FLASH_0015LENOLD
  N:002BH         SYMBOL        CONST_FLASH_0019GBLEN
  N:0002H         SYMBOL        CONST_FLASH_0019H
  N:00B6H         SYMBOL        CONST_FLASH_0019L
  N:003CH         SYMBOL        CONST_FLASH_0019LEN
  N:003FH         SYMBOL        CONST_FLASH_0019NEWGDLEN
  N:0004H         SYMBOL        CONST_FLASH_BEACONIDUNIXTIMEH
  N:0000H         SYMBOL        CONST_FLASH_BEACONIDUNIXTIMEL
  N:0008H         SYMBOL        CONST_FLASH_BEACONIDUNIXTIMELEN
  N:0002H         SYMBOL        CONST_FLASH_BLOCK01
  N:0001H         SYMBOL        CONST_FLASH_CARDTYPELEN
  N:00F3H         SYMBOL        CONST_FLASH_FILELEN
  N:0002H         SYMBOL        CONST_FLASH_LASTCARDH
  N:00F2H         SYMBOL        CONST_FLASH_LASTCARDL
  N:0002H         SYMBOL        CONST_FLASH_STARTHIGH
  N:0000H         SYMBOL        CONST_FLASH_STARTLOW
  N:0002H         SYMBOL        CONST_FLASH_SYSINFOH
  N:0000H         SYMBOL        CONST_FLASH_SYSINFOL
  N:0058H         SYMBOL        CONST_FLASH_SYSINFOLEN
  N:0002H         SYMBOL        CONST_GDO2_MCSM2
  N:0046H         SYMBOL        CONST_GDO2_VALUE
  N:00F0H         SYMBOL        CONST_GSM_MAXNUM
  N:0008H         SYMBOL        CONST_GSM_NUM
  N:0014H         SYMBOL        CONST_GSM_PJNUM
  N:0015H         SYMBOL        CONST_HANDSECOND
  N:0002H         SYMBOL        CONST_LHX_FLAG
  N:0005H         SYMBOL        CONST_MAX_RXNUM
  N:0008H         SYMBOL        CONST_MCU_WKCTH
  N:00FFH         SYMBOL        CONST_MCU_WKCTL
  N:0002H         SYMBOL        CONST_MF_DECREMENT
  N:0003H         SYMBOL        CONST_MF_INCREMENT
  N:00C0H         SYMBOL        CONST_MF_RC500DECREMENT
  N:00C1H         SYMBOL        CONST_MF_RC500INCREMENT
  N:0000H         SYMBOL        CONST_MF_READ
  N:0004H         SYMBOL        CONST_MF_RESTOR
  N:0001H         SYMBOL        CONST_MF_WRITE
BL51 BANKED LINKER/LOCATER V6.05                                                      09/23/2016  17:07:17  PAGE 68


  N:0001H         SYMBOL        CONST_MTC_INPUT
  N:0018H         SYMBOL        CONST_PPS_115200
  N:0096H         SYMBOL        CONST_PPS_230000
  N:0013H         SYMBOL        CONST_PPS_38400
  N:0010H         SYMBOL        CONST_PPS_9600
  N:0001H         SYMBOL        CONST_PRO_4SPEED
  N:00FAH         SYMBOL        CONST_PRO_OVERTIME2S
  N:0090H         SYMBOL        CONST_RTCOVERFLOW
  N:00FFH         SYMBOL        CONST_RTC_OFF
  N:0055H         SYMBOL        CONST_RTC_ON
  N:000AH         SYMBOL        CONST_SE_CHANNEL
  N:0000H         SYMBOL        CONST_SE_RXBUF
  N:0000H         SYMBOL        CONST_SE_TXBUF
  N:0000H         SYMBOL        CONST_SOF
  N:0014H         SYMBOL        CONST_SOFTBYTESP
  N:0010H         SYMBOL        CONST_SOFTFIRSTSCANTIME
  N:00FFH         SYMBOL        CONST_SOFTFIRSTSCANTIMEXX
  N:0070H         SYMBOL        CONST_SOFTSECOND
  N:000CH         SYMBOL        CONST_SSRC_FID
  N:0007H         SYMBOL        CONST_STATE_5823INIER
  N:0008H         SYMBOL        CONST_STATE_5823SLEEPER
  N:0003H         SYMBOL        CONST_STATE_ACCEPTOVER
  N:0004H         SYMBOL        CONST_STATE_ACCEPTOVERLEN
  N:0006H         SYMBOL        CONST_STATE_ACTCARDINVALID
  N:0004H         SYMBOL        CONST_STATE_ACTIVEFAIL
  N:0006H         SYMBOL        CONST_STATE_AUTHER
  N:001DH         SYMBOL        CONST_STATE_BASE01ANTICOLL
  N:0015H         SYMBOL        CONST_STATE_BASE01CONTACT
  N:0014H         SYMBOL        CONST_STATE_BASE01ESAMDF01
  N:001FH         SYMBOL        CONST_STATE_BASE01RATS
  N:001CH         SYMBOL        CONST_STATE_BASE01RE
  N:001EH         SYMBOL        CONST_STATE_BASE01SEL
  N:0019H         SYMBOL        CONST_STATE_BASE02ANTICOLL
  N:0016H         SYMBOL        CONST_STATE_BASE02CONTACT
  N:001BH         SYMBOL        CONST_STATE_BASE02RATS
  N:0018H         SYMBOL        CONST_STATE_BASE02RE
  N:001AH         SYMBOL        CONST_STATE_BASE02SEL
  N:000BH         SYMBOL        CONST_STATE_BASEESAMDF01
  N:0013H         SYMBOL        CONST_STATE_BASEN01INIT
  N:000AH         SYMBOL        CONST_STATE_BASENINIT
  N:000DH         SYMBOL        CONST_STATE_CARDPREDEAL0002
  N:000EH         SYMBOL        CONST_STATE_CARDPREDEAL0012
  N:000FH         SYMBOL        CONST_STATE_CARDPREDEAL0015
  N:0010H         SYMBOL        CONST_STATE_CARDPREDEAL0019
  N:000CH         SYMBOL        CONST_STATE_CARDPREDEAL1001
  N:0011H         SYMBOL        CONST_STATE_CARDPREDEAL3F00
  N:0012H         SYMBOL        CONST_STATE_CARDPREDEAL81
  N:0023H         SYMBOL        CONST_STATE_ESAMER
  N:0021H         SYMBOL        CONST_STATE_EXMEMORYER
  N:0022H         SYMBOL        CONST_STATE_EXMEMORYER02
  N:00FFH         SYMBOL        CONST_STATE_FALSE
  N:0009H         SYMBOL        CONST_STATE_GETSECURESELFILEER
  N:0005H         SYMBOL        CONST_STATE_ILLEGALACTCARD
  N:0002H         SYMBOL        CONST_STATE_ILLEGALINPUTCARD
  N:0003H         SYMBOL        CONST_STATE_INPUTCARDINVALID
  N:0001H         SYMBOL        CONST_STATE_INPUTFAIL
  N:0020H         SYMBOL        CONST_STATE_MEMORYER
BL51 BANKED LINKER/LOCATER V6.05                                                      09/23/2016  17:07:17  PAGE 69


  N:0005H         SYMBOL        CONST_STATE_RSTCPUER
  N:0001H         SYMBOL        CONST_STATE_SERIALACCPET
  N:0002H         SYMBOL        CONST_STATE_SERIALOVERTIME
  N:0017H         SYMBOL        CONST_STATE_TEST
  N:0000H         SYMBOL        CONST_STATE_TRUE
  N:0055H         SYMBOL        CONST_SYS_55
  N:00AAH         SYMBOL        CONST_SYS_AA
  N:0004H         SYMBOL        CONST_SYS_OBUIDLEN
  N:000AH         SYMBOL        CONST_SYS_POWERONTIMER
  N:0088H         SYMBOL        CONST_SYS_PREFLAG
  N:0064H         SYMBOL        CONST_SYS_RTCOVERTIME
  N:00FFH         SYMBOL        CONST_SYS_TRADECONFINE
  N:0001H         SYMBOL        CONST_TIMEER02
  N:00FEH         SYMBOL        CONST_TIMEER03
  N:0001H         SYMBOL        CONST_TIMEER04
  N:00FFH         SYMBOL        CONST_VSTLIMIT
  N:0000H         SYMBOL        CONST_WHITE_H
  N:0031H         SYMBOL        CONST_WHITE_L
  N:0000H         SYMBOL        CONST_WORKSTAION_0
  N:0001H         SYMBOL        CONST_WORKSTAION_1
  N:0002H         SYMBOL        CONST_WORKSTAION_2
  N:0003H         SYMBOL        CONST_WORKSTAION_3
  N:0000H         SYMBOL        CONST_XDATA_TXBUF02
  N:0080H         SYMBOL        CONST_XDATA_TXBUF02LEN
  N:0000H         SYMBOL        CONTACTISSUE
  C:7172H         SYMBOL        CONTACTISSUE_RX02_55O
  C:716CH         SYMBOL        CONTACTISSUE_RX02_55X
  C:7189H         SYMBOL        CONTACTISSUE_RX02_AAO
  C:7183H         SYMBOL        CONTACTISSUE_RX02_AAX
  C:71F3H         SYMBOL        CONTACTISSUE_RX02_ERR
  C:71A8H         SYMBOL        CONTACTISSUE_RX02_GETDATA
  C:71F2H         SYMBOL        CONTACTISSUE_RX02_OVER
  C:71AEH         SYMBOL        CONTACTISSUE_RX02_RECORD
  C:71E4H         SYMBOL        CONTACTISSUE_RX02_RECORDOVER
  C:71C5H         SYMBOL        CONTACTISSUE_RX02_RECORDX
  C:715BH         SYMBOL        CONTACTISSUE_RX02_RXO
  C:7194H         SYMBOL        CONTACTISSUE_RX02_VERIFYBCC
  C:7163H         SYMBOL        CONTACTISSUE_RX02_VERIFYHEAD
  C:7166H         SYMBOL        CONTACTISSUE_RX02_VERIFYHEADLOOP
  C:717DH         SYMBOL        CONTACTISSUE_RX02_VERIFYHEADLOOP02
  C:717BH         SYMBOL        CONTACTISSUE_RX02_VERIFYHEADLOOP02P
  C:70DDH         SYMBOL        CONTACTISSUE_RXBST_ERR
  C:70C1H         SYMBOL        CONTACTISSUE_RXBST_RXED
  C:7142H         SYMBOL        CONTACTISSUE_RX_ERR
  C:7122H         SYMBOL        CONTACTISSUE_RX_GETDATA
  C:7141H         SYMBOL        CONTACTISSUE_RX_OVER
  C:710CH         SYMBOL        CONTACTISSUE_RX_VERIFYBCC
  C:70F7H         SYMBOL        CONTACTISSUE_RX_VERIFYHEAD
  C:70FAH         SYMBOL        CONTACTISSUE_RX_VERIFYHEADLOOP
  C:7102H         SYMBOL        CONTACTISSUE_RX_VERIFYHEADLOOP02
  C:71FEH         SYMBOL        CONTACTISSUE_TXVERIFYPARAM
  C:7207H         SYMBOL        CONTACTISSUE_TX_BACKMOV
  C:728AH         SYMBOL        CONTACTISSUE_TX_ERR
  C:727CH         SYMBOL        CONTACTISSUE_TX_SEND
  B:00D8H.6       SYMBOL        CR
  D:0083H         SYMBOL        DPH
  D:0082H         SYMBOL        DPL
BL51 BANKED LINKER/LOCATER V6.05                                                      09/23/2016  17:07:17  PAGE 70


  B:00A8H.6       SYMBOL        EPCAI
  B:00A8H.6       SYMBOL        EPCA_LVD
  D:00A8H         SYMBOL        IE
  N:00AFH         SYMBOL        IE2
  N:00B7H         SYMBOL        IPH
  N:00C7H         SYMBOL        ISP_CONTR
  D:0080H         SYMBOL        P0
  D:0090H         SYMBOL        P1
  D:00A0H         SYMBOL        P2
  D:00B0H         SYMBOL        P3
  N:00C0H         SYMBOL        P4
  N:00F2H         SYMBOL        PCA_PWM0
  N:00F3H         SYMBOL        PCA_PWM1
  N:00F4H         SYMBOL        PCA_PWM2
  N:00F5H         SYMBOL        PCA_PWM3
  N:00F6H         SYMBOL        PCA_PWM4
  N:00F7H         SYMBOL        PCA_PWM5
  B:0080H.4       SYMBOL        PIN_522_MISO
  B:0080H.5       SYMBOL        PIN_522_MOSI
  B:00C0H.6       SYMBOL        PIN_522_RST
  B:0080H.7       SYMBOL        PIN_522_SCLK
  B:0080H.6       SYMBOL        PIN_522_SS
  B:0090H.0       SYMBOL        PIN_5823BK_CS
  B:0090H.2       SYMBOL        PIN_5823BK_IRQ
  B:0080H.0       SYMBOL        PIN_5823BK_MISO
  B:0080H.1       SYMBOL        PIN_5823BK_MOSI
  B:00C0H.2       SYMBOL        PIN_5823BK_SCLK
  B:0080H.3       SYMBOL        PIN_BELL_01
  B:0080H.2       SYMBOL        PIN_BELL_02
  B:0090H.1       SYMBOL        PIN_BK_CE
  B:00B0H.3       SYMBOL        PIN_CARD_EXIST
  B:0090H.6       SYMBOL        PIN_CC1101_GDO2
  B:00B0H.7       SYMBOL        PIN_CC1101_MISO
  B:00A0H.3       SYMBOL        PIN_CC1101_MOSI
  B:00A0H.2       SYMBOL        PIN_CC1101_SCLK
  B:00B0H.6       SYMBOL        PIN_CC1101_SS
  B:00A0H.5       SYMBOL        PIN_ESAM_RST
  B:00A0H.6       SYMBOL        PIN_ESAM_RX
  B:00A0H.6       SYMBOL        PIN_ESAM_TX
  B:00C0H.5       SYMBOL        PIN_GRE
  B:0090H.4       SYMBOL        PIN_LCD_CS
  B:0090H.7       SYMBOL        PIN_LCD_DC
  B:0090H.5       SYMBOL        PIN_LCD_RST
  B:00B0H.4       SYMBOL        PIN_LCD_SCL
  B:00C0H.3       SYMBOL        PIN_LCD_SDA
  B:00A0H.7       SYMBOL        PIN_PWRDWN
  B:0090H.3       SYMBOL        PIN_PWRDWN_LCD
  B:00A0H.4       SYMBOL        PIN_PWR_GSM
  B:00A0H.1       SYMBOL        PIN_PWR_LOWIO
  B:00C0H.1       SYMBOL        PIN_RED
  B:00B0H.0       SYMBOL        PIN_SOFTSERIALRX
  B:00B0H.1       SYMBOL        PIN_SOFTSERIALTXH
  B:00B0H.5       SYMBOL        PIN_UNFIX
  B:00A0H.0       SYMBOL        PIN_WAVE_CHANNEL1
  N:00C0H         SYMBOL        READ_BURST
  N:00A2H         SYMBOL        REG_51_AUXR1
  N:008EH         SYMBOL        REG_5412AD_AUXR
BL51 BANKED LINKER/LOCATER V6.05                                                      09/23/2016  17:07:17  PAGE 71


  N:0094H         SYMBOL        REG_5412AD_P0M0
  N:0093H         SYMBOL        REG_5412AD_P0M1
  N:0092H         SYMBOL        REG_5412AD_P1M0
  N:0091H         SYMBOL        REG_5412AD_P1M1
  N:0096H         SYMBOL        REG_5412AD_P2M0
  N:0095H         SYMBOL        REG_5412AD_P2M1
  N:00B2H         SYMBOL        REG_5412AD_P3M0
  N:00B1H         SYMBOL        REG_5412AD_P3M1
  N:00B4H         SYMBOL        REG_5412AD_P4M0
  N:00B3H         SYMBOL        REG_5412AD_P4M1
  N:00BBH         SYMBOL        REG_5412AD_P4SW
  N:0085H         SYMBOL        REG_5412AD_SPCTL
  N:0086H         SYMBOL        REG_5412AD_SPDAT
  N:0084H         SYMBOL        REG_5412AD_SPSTAT
  N:00ABH         SYMBOL        REG_MCU_WKCTH
  N:00AAH         SYMBOL        REG_MCU_WKCTL
  N:000DH         SYMBOL        REG_RC522_BITFRAMINGREG
  N:000EH         SYMBOL        REG_RC522_COLLREG
  N:0002H         SYMBOL        REG_RC522_COMIENREG
  N:0004H         SYMBOL        REG_RC522_COMIRQREG
  N:0001H         SYMBOL        REG_RC522_COMMANDREG
  N:000CH         SYMBOL        REG_RC522_CONTROLREG
  N:0021H         SYMBOL        REG_RC522_CRCRESULTREGH
  N:0022H         SYMBOL        REG_RC522_CRCRESULTREGL
  N:0028H         SYMBOL        REG_RC522_CWGSPREG
  N:0019H         SYMBOL        REG_RC522_DEMODREG
  N:0003H         SYMBOL        REG_RC522_DIVIENREG
  N:0005H         SYMBOL        REG_RC522_DIVIRQREG
  N:0006H         SYMBOL        REG_RC522_ERRORREG
  N:0009H         SYMBOL        REG_RC522_FIFODATAREG
  N:000AH         SYMBOL        REG_RC522_FIFOLEVELREG
  N:0027H         SYMBOL        REG_RC522_GSNREG
  N:001CH         SYMBOL        REG_RC522_MIFAREREG
  N:0011H         SYMBOL        REG_RC522_MODEREG
  N:0029H         SYMBOL        REG_RC522_MODGSPREG
  N:0024H         SYMBOL        REG_RC522_MODWIDTHREG
  N:0000H         SYMBOL        REG_RC522_RC522PAGE
  N:0026H         SYMBOL        REG_RC522_RFCFGREG
  N:000FH         SYMBOL        REG_RC522_RFU
  N:0013H         SYMBOL        REG_RC522_RXMODEREG
  N:0017H         SYMBOL        REG_RC522_RXSELREG
  N:0018H         SYMBOL        REG_RC522_RXTHRESHOLDREG
  N:001FH         SYMBOL        REG_RC522_SERIALSPEEDREG
  N:0007H         SYMBOL        REG_RC522_STATUS1REG
  N:0008H         SYMBOL        REG_RC522_STATUS2REG
  N:002EH         SYMBOL        REG_RC522_TCOUNTERVALUEREGH
  N:002FH         SYMBOL        REG_RC522_TCOUNTERVALUEREGL
  N:002AH         SYMBOL        REG_RC522_TMODEREG
  N:002BH         SYMBOL        REG_RC522_TPRESCALERREG
  N:002CH         SYMBOL        REG_RC522_TRELOADREGH
  N:002DH         SYMBOL        REG_RC522_TRELOADREGL
  N:0015H         SYMBOL        REG_RC522_TXAUTOREG
  N:0014H         SYMBOL        REG_RC522_TXCONTROLREG
  N:0012H         SYMBOL        REG_RC522_TXMODEREG
  N:0016H         SYMBOL        REG_RC522_TXSELREG
  N:000BH         SYMBOL        REG_RC522_WATERLEVELREG
  N:009CH         SYMBOL        REG_SYS_BRT
BL51 BANKED LINKER/LOCATER V6.05                                                      09/23/2016  17:07:17  PAGE 72


  N:008FH         SYMBOL        REG_WAKECLK0
  B:00D8H.4       SYMBOL        REG_WAKECLK_04
  B:00D8H.5       SYMBOL        REG_WAKECLK_05
  N:00C1H         SYMBOL        REG_WDT_CONTR
  N:00EAH         SYMBOL        RELOAD2_CONTR
  N:009BH         SYMBOL        S2BUF
  N:009AH         SYMBOL        S2CON
  D:0098H         SYMBOL        SCON
  N:0009H         SYMBOL        TI_CCXXX0_ADDR
  N:001DH         SYMBOL        TI_CCXXX0_AGCCTRL0
  N:001CH         SYMBOL        TI_CCXXX0_AGCCTRL1
  N:001BH         SYMBOL        TI_CCXXX0_AGCCTRL2
  N:002BH         SYMBOL        TI_CCXXX0_AGCTEST
  N:001AH         SYMBOL        TI_CCXXX0_BSCFG
  N:000AH         SYMBOL        TI_CCXXX0_CHANNR
  N:0015H         SYMBOL        TI_CCXXX0_DEVIATN
  N:0003H         SYMBOL        TI_CCXXX0_FIFOTHR
  N:0019H         SYMBOL        TI_CCXXX0_FOCCFG
  N:0022H         SYMBOL        TI_CCXXX0_FREND0
  N:0021H         SYMBOL        TI_CCXXX0_FREND1
  N:000FH         SYMBOL        TI_CCXXX0_FREQ0
  N:000EH         SYMBOL        TI_CCXXX0_FREQ1
  N:000DH         SYMBOL        TI_CCXXX0_FREQ2
  N:0032H         SYMBOL        TI_CCXXX0_FREQEST
  N:0026H         SYMBOL        TI_CCXXX0_FSCAL0
  N:0025H         SYMBOL        TI_CCXXX0_FSCAL1
  N:0024H         SYMBOL        TI_CCXXX0_FSCAL2
  N:0023H         SYMBOL        TI_CCXXX0_FSCAL3
  N:000CH         SYMBOL        TI_CCXXX0_FSCTRL0
  N:000BH         SYMBOL        TI_CCXXX0_FSCTRL1
  N:0029H         SYMBOL        TI_CCXXX0_FSTEST
  N:0002H         SYMBOL        TI_CCXXX0_IOCFG0
  N:0001H         SYMBOL        TI_CCXXX0_IOCFG1
  N:0000H         SYMBOL        TI_CCXXX0_IOCFG2
  N:0033H         SYMBOL        TI_CCXXX0_LQI
  N:0035H         SYMBOL        TI_CCXXX0_MARCSTATE
  N:0018H         SYMBOL        TI_CCXXX0_MCSM0
  N:0017H         SYMBOL        TI_CCXXX0_MCSM1
  N:0016H         SYMBOL        TI_CCXXX0_MCSM2
  N:0014H         SYMBOL        TI_CCXXX0_MDMCFG0
  N:0013H         SYMBOL        TI_CCXXX0_MDMCFG1
  N:0012H         SYMBOL        TI_CCXXX0_MDMCFG2
  N:0011H         SYMBOL        TI_CCXXX0_MDMCFG3
  N:0010H         SYMBOL        TI_CCXXX0_MDMCFG4
  N:007FH         SYMBOL        TI_CCXXX0_NUM_RXBYTES
  N:0030H         SYMBOL        TI_CCXXX0_PARTNUM
  N:003EH         SYMBOL        TI_CCXXX0_PATABLE
  N:0008H         SYMBOL        TI_CCXXX0_PKTCTRL0
  N:0007H         SYMBOL        TI_CCXXX0_PKTCTRL1
  N:0006H         SYMBOL        TI_CCXXX0_PKTLEN
  N:0038H         SYMBOL        TI_CCXXX0_PKTSTATUS
  N:002AH         SYMBOL        TI_CCXXX0_PTEST
  N:0028H         SYMBOL        TI_CCXXX0_RCCTRL0
  N:0027H         SYMBOL        TI_CCXXX0_RCCTRL1
  N:0034H         SYMBOL        TI_CCXXX0_RSSI
  N:003BH         SYMBOL        TI_CCXXX0_RXBYTES
  N:003FH         SYMBOL        TI_CCXXX0_RXFIFO
BL51 BANKED LINKER/LOCATER V6.05                                                      09/23/2016  17:07:17  PAGE 73


  N:0037H         SYMBOL        TI_CCXXX0_SAFC
  N:0033H         SYMBOL        TI_CCXXX0_SCAL
  N:003AH         SYMBOL        TI_CCXXX0_SFRX
  N:003BH         SYMBOL        TI_CCXXX0_SFTX
  N:0036H         SYMBOL        TI_CCXXX0_SIDLE
  N:003DH         SYMBOL        TI_CCXXX0_SNOP
  N:0039H         SYMBOL        TI_CCXXX0_SPWD
  N:0030H         SYMBOL        TI_CCXXX0_SRES
  N:0034H         SYMBOL        TI_CCXXX0_SRX
  N:0035H         SYMBOL        TI_CCXXX0_STX
  N:0038H         SYMBOL        TI_CCXXX0_SWOR
  N:003CH         SYMBOL        TI_CCXXX0_SWORRST
  N:0032H         SYMBOL        TI_CCXXX0_SXOFF
  N:0005H         SYMBOL        TI_CCXXX0_SYNC0
  N:0004H         SYMBOL        TI_CCXXX0_SYNC1
  N:002EH         SYMBOL        TI_CCXXX0_TEST0
  N:002DH         SYMBOL        TI_CCXXX0_TEST1
  N:002CH         SYMBOL        TI_CCXXX0_TEST2
  N:003AH         SYMBOL        TI_CCXXX0_TXBYTES
  N:003FH         SYMBOL        TI_CCXXX0_TXFIFO
  N:0039H         SYMBOL        TI_CCXXX0_VCO_VC_DAC
  N:0031H         SYMBOL        TI_CCXXX0_VERSION
  N:0020H         SYMBOL        TI_CCXXX0_WORCTRL
  N:001FH         SYMBOL        TI_CCXXX0_WOREVT0
  N:001EH         SYMBOL        TI_CCXXX0_WOREVT1
  N:0037H         SYMBOL        TI_CCXXX0_WORTIME0
  N:0036H         SYMBOL        TI_CCXXX0_WORTIME1
  N:008FH         SYMBOL        WAKE_CLKO
  B:00B0H.2       SYMBOL        WKO_BK
  C:7070H         LINE#         23
  C:7073H         LINE#         27
  C:7075H         LINE#         29
  C:7078H         LINE#         31
  C:707BH         LINE#         32
  C:707DH         LINE#         33
  C:707FH         LINE#         35
  C:7081H         LINE#         37
  C:7082H         LINE#         44
  C:7084H         LINE#         45
  C:7087H         LINE#         46
  C:708AH         LINE#         48
  C:708CH         LINE#         50
  C:708EH         LINE#         51
  C:7090H         LINE#         53
  C:7091H         LINE#         60
  C:7094H         LINE#         62
  C:7096H         LINE#         63
  C:7099H         LINE#         64
  C:709CH         LINE#         66
  C:709EH         LINE#         68
  C:70A0H         LINE#         69
  C:70A2H         LINE#         71
  C:70A3H         LINE#         77
  C:70A6H         LINE#         79
  C:70A8H         LINE#         80
  C:70ABH         LINE#         81
  C:70AEH         LINE#         83
BL51 BANKED LINKER/LOCATER V6.05                                                      09/23/2016  17:07:17  PAGE 74


  C:70B0H         LINE#         85
  C:70B2H         LINE#         86
  C:70B4H         LINE#         88
  C:70B5H         LINE#         101
  C:70B7H         LINE#         102
  C:70B9H         LINE#         103
  C:70BCH         LINE#         104
  C:70BDH         LINE#         105
  C:70BFH         LINE#         106
  C:70C1H         LINE#         111
  C:70C3H         LINE#         112
  C:70C4H         LINE#         113
  C:70C6H         LINE#         114
  C:70C8H         LINE#         115
  C:70C9H         LINE#         116
  C:70CAH         LINE#         117
  C:70CCH         LINE#         118
  C:70CEH         LINE#         119
  C:70CFH         LINE#         120
  C:70D0H         LINE#         121
  C:70D2H         LINE#         122
  C:70D4H         LINE#         123
  C:70D5H         LINE#         124
  C:70D6H         LINE#         125
  C:70D8H         LINE#         126
  C:70DAH         LINE#         128
  C:70DCH         LINE#         130
  C:70DDH         LINE#         133
  C:70DFH         LINE#         134
  C:70E1H         LINE#         135
  C:70E2H         LINE#         153
  C:70E4H         LINE#         154
  C:70E6H         LINE#         156
  C:70E8H         LINE#         157
  C:70EAH         LINE#         158
  C:70EDH         LINE#         159
  C:70EFH         LINE#         160
  C:70F0H         LINE#         167
  C:70F3H         LINE#         169
  C:70F5H         LINE#         170
  C:70F7H         LINE#         176
  C:70FAH         LINE#         178
  C:70FBH         LINE#         179
  C:70FDH         LINE#         180
  C:70FFH         LINE#         181
  C:7100H         LINE#         182
  C:7102H         LINE#         185
  C:7103H         LINE#         186
  C:7105H         LINE#         187
  C:7107H         LINE#         188
  C:7108H         LINE#         189
  C:710AH         LINE#         192
  C:710CH         LINE#         196
  C:710DH         LINE#         197
  C:710EH         LINE#         198
  C:7111H         LINE#         202
  C:7113H         LINE#         203
BL51 BANKED LINKER/LOCATER V6.05                                                      09/23/2016  17:07:17  PAGE 75


  C:7115H         LINE#         210
  C:7117H         LINE#         211
  C:711AH         LINE#         212
  C:711CH         LINE#         213
  C:711EH         LINE#         220
  C:7120H         LINE#         221
  C:7122H         LINE#         224
  C:7125H         LINE#         225
  C:7126H         LINE#         226
  C:7127H         LINE#         229
  C:7128H         LINE#         230
  C:712AH         LINE#         232
  C:712DH         LINE#         233
  C:712FH         LINE#         234
  C:7130H         LINE#         236
  C:7131H         LINE#         237
  C:7132H         LINE#         238
  C:7133H         LINE#         241
  C:7134H         LINE#         242
  C:7136H         LINE#         244
  C:7139H         LINE#         245
  C:713BH         LINE#         246
  C:713CH         LINE#         248
  C:713FH         LINE#         278
  C:7141H         LINE#         280
  C:7142H         LINE#         283
  C:7144H         LINE#         285
  C:7145H         LINE#         292
  C:7147H         LINE#         293
  C:7149H         LINE#         294
  C:714CH         LINE#         295
  C:714EH         LINE#         296
  C:714FH         LINE#         297
  C:7151H         LINE#         304
  C:7153H         LINE#         305
  C:7155H         LINE#         306
  C:7158H         LINE#         307
  C:715AH         LINE#         322
  C:715BH         LINE#         333
  C:715EH         LINE#         335
  C:7160H         LINE#         336
  C:7163H         LINE#         344
  C:7166H         LINE#         346
  C:7169H         LINE#         347
  C:716AH         LINE#         348
  C:716CH         LINE#         351
  C:716FH         LINE#         352
  C:7171H         LINE#         353
  C:7172H         LINE#         356
  C:7174H         LINE#         357
  C:7176H         LINE#         358
  C:7177H         LINE#         359
  C:7179H         LINE#         361
  C:717BH         LINE#         364
  C:717CH         LINE#         365
  C:717DH         LINE#         368
  C:7180H         LINE#         369
BL51 BANKED LINKER/LOCATER V6.05                                                      09/23/2016  17:07:17  PAGE 76


  C:7181H         LINE#         370
  C:7183H         LINE#         373
  C:7186H         LINE#         374
  C:7188H         LINE#         375
  C:7189H         LINE#         378
  C:718BH         LINE#         379
  C:718DH         LINE#         381
  C:718EH         LINE#         382
  C:718FH         LINE#         384
  C:7190H         LINE#         385
  C:7192H         LINE#         387
  C:7194H         LINE#         400
  C:7195H         LINE#         401
  C:7196H         LINE#         404
  C:7199H         LINE#         408
  C:719BH         LINE#         409
  C:719DH         LINE#         427
  C:71A0H         LINE#         428
  C:71A2H         LINE#         429
  C:71A4H         LINE#         443
  C:71A6H         LINE#         444
  C:71A8H         LINE#         453
  C:71ABH         LINE#         454
  C:71AEH         LINE#         458
  C:71AFH         LINE#         459
  C:71B1H         LINE#         461
  C:71B4H         LINE#         462
  C:71B6H         LINE#         463
  C:71B7H         LINE#         465
  C:71B8H         LINE#         466
  C:71B9H         LINE#         467
  C:71BAH         LINE#         470
  C:71BBH         LINE#         471
  C:71BDH         LINE#         473
  C:71C0H         LINE#         474
  C:71C2H         LINE#         475
  C:71C3H         LINE#         476
  C:71C5H         LINE#         482
  C:71C8H         LINE#         483
  C:71CAH         LINE#         484
  C:71CBH         LINE#         485
  C:71CDH         LINE#         487
  C:71D0H         LINE#         488
  C:71D2H         LINE#         489
  C:71D3H         LINE#         491
  C:71D4H         LINE#         492
  C:71D5H         LINE#         493
  C:71D6H         LINE#         497
  C:71D9H         LINE#         498
  C:71DBH         LINE#         499
  C:71DCH         LINE#         500
  C:71DEH         LINE#         502
  C:71E1H         LINE#         503
  C:71E3H         LINE#         504
  C:71E4H         LINE#         519
  C:71E5H         LINE#         520
  C:71E6H         LINE#         521
BL51 BANKED LINKER/LOCATER V6.05                                                      09/23/2016  17:07:17  PAGE 77


  C:71E7H         LINE#         522
  C:71E8H         LINE#         524
  C:71E9H         LINE#         525
  C:71EAH         LINE#         526
  C:71EBH         LINE#         527
  C:71ECH         LINE#         528
  C:71EDH         LINE#         530
  C:71F0H         LINE#         531
  C:71F2H         LINE#         542
  C:71F3H         LINE#         545
  C:71F5H         LINE#         546
  C:71F7H         LINE#         548
  C:71F8H         LINE#         567
  C:71F9H         LINE#         568
  C:71FBH         LINE#         569
  C:71FEH         LINE#         573
  C:71FFH         LINE#         574
  C:7200H         LINE#         575
  C:7201H         LINE#         576
  C:7202H         LINE#         577
  C:7204H         LINE#         578
  C:7205H         LINE#         580
  C:7206H         LINE#         581
  C:7207H         LINE#         585
  C:720AH         LINE#         586
  C:720CH         LINE#         587
  C:720DH         LINE#         589
  C:7210H         LINE#         590
  C:7212H         LINE#         591
  C:7213H         LINE#         593
  C:7214H         LINE#         594
  C:7215H         LINE#         596
  C:7217H         LINE#         612
  C:721AH         LINE#         613
  C:721CH         LINE#         615
  C:721FH         LINE#         616
  C:7221H         LINE#         617
  C:7222H         LINE#         622
  C:7223H         LINE#         623
  C:7225H         LINE#         625
  C:7228H         LINE#         626
  C:722AH         LINE#         627
  C:722BH         LINE#         632
  C:722CH         LINE#         633
  C:722EH         LINE#         635
  C:7231H         LINE#         636
  C:7233H         LINE#         637
  C:7234H         LINE#         638
  C:7235H         LINE#         640
  C:7238H         LINE#         641
  C:723AH         LINE#         642
  C:723BH         LINE#         649
  C:723CH         LINE#         650
  C:723DH         LINE#         652
  C:7240H         LINE#         653
  C:7242H         LINE#         654
  C:7243H         LINE#         656
BL51 BANKED LINKER/LOCATER V6.05                                                      09/23/2016  17:07:17  PAGE 78


  C:7244H         LINE#         657
  C:7245H         LINE#         660
  C:7248H         LINE#         661
  C:724AH         LINE#         662
  C:724BH         LINE#         664
  C:724CH         LINE#         665
  C:724EH         LINE#         667
  C:7251H         LINE#         668
  C:7253H         LINE#         669
  C:7254H         LINE#         670
  C:7256H         LINE#         672
  C:7259H         LINE#         673
  C:725BH         LINE#         674
  C:725CH         LINE#         697
  C:725EH         LINE#         699
  C:7260H         LINE#         700
  C:7261H         LINE#         702
  C:7262H         LINE#         703
  C:7263H         LINE#         704
  C:7265H         LINE#         705
  C:7266H         LINE#         706
  C:7268H         LINE#         707
  C:726BH         LINE#         708
  C:726DH         LINE#         709
  C:726FH         LINE#         714
  C:7270H         LINE#         715
  C:7271H         LINE#         717
  C:7272H         LINE#         718
  C:7273H         LINE#         719
  C:7274H         LINE#         720
  C:7275H         LINE#         722
  C:7278H         LINE#         723
  C:727AH         LINE#         724
  C:727BH         LINE#         726
  C:727CH         LINE#         729
  C:727EH         LINE#         730
  C:7280H         LINE#         731
  C:7282H         LINE#         732
  C:7285H         LINE#         733
  C:7287H         LINE#         734
  C:7289H         LINE#         735
  C:728AH         LINE#         738
  C:728CH         LINE#         739
  -------         ENDMOD        CONTACTISSUE

  -------         MODULE        CARDAPP
  C:47C9H         SEGMENT       ?PR?CARDAPP?MATER
  C:77D3H         SEGMENT       ?CO?CARDAPP?FLASHSTR
  C:4883H         PUBLIC        _FUN_CARDAPP_00B4
  C:4E00H         PUBLIC        _FUN_CARDAPP_ACTIVEOBU
  C:4982H         PUBLIC        _FUN_CARDAPP_CARDCHANNEL
  C:4949H         PUBLIC        _FUN_CARDAPP_DECCOUNTER
  C:49EDH         PUBLIC        _FUN_CARDAPP_GDFXOBU
  C:48F3H         PUBLIC        _FUN_CARDAPP_GETBALANCE
  C:49B4H         PUBLIC        _FUN_CARDAPP_ISINORACT
  C:4858H         PUBLIC        _FUN_CARDAPP_READBINARY
  C:48CAH         PUBLIC        _FUN_CARDAPP_READBINARY02
BL51 BANKED LINKER/LOCATER V6.05                                                      09/23/2016  17:07:17  PAGE 79


  C:491CH         PUBLIC        _FUN_CARDAPP_READRECORD
  C:47F3H         PUBLIC        _FUN_CARDAPP_SELECTFILE
  C:47C9H         PUBLIC        _FUN_CARDAPP_UPDATEBINARY
  C:4829H         PUBLIC        _FUN_TESTCARDAPP_SELECTFILE
  D:00F0H         SYMBOL        B
  N:009CH         SYMBOL        BRT
  B:0020H.0       SYMBOL        BUSY
  N:0000H         SYMBOL        CARDAPP
  C:4F73H         SYMBOL        CARDAPP_ACTIVEOBU_88OK
  C:4E5FH         SYMBOL        CARDAPP_ACTIVEOBU_COMP
  C:4E79H         SYMBOL        CARDAPP_ACTIVEOBU_COMPOV
  C:5022H         SYMBOL        CARDAPP_ACTIVEOBU_D681OK
  C:4E00H         SYMBOL        CARDAPP_ACTIVEOBU_DRCARD
  C:5025H         SYMBOL        CARDAPP_ACTIVEOBU_ERR
  C:4EAEH         SYMBOL        CARDAPP_ACTIVEOBU_GETESAMRANDOK
  C:4E75H         SYMBOL        CARDAPP_ACTIVEOBU_NOERZZ
  C:4F32H         SYMBOL        CARDAPP_ACTIVEOBU_PINOK
  C:4ED3H         SYMBOL        CARDAPP_ACTIVEOBU_READ0015CARDNOOK
  C:4FE5H         SYMBOL        CARDAPP_ACTIVEOBU_READ001902COUNT
  C:4FCEH         SYMBOL        CARDAPP_ACTIVEOBU_READ001A02OK
  C:4E59H         SYMBOL        CARDAPP_ACTIVEOBU_READ001AOK
  C:4E30H         SYMBOL        CARDAPP_ACTIVEOBU_READESAMHTHOK
  C:4E17H         SYMBOL        CARDAPP_ACTIVEOBU_READSEL3F00OK
  C:4E32H         SYMBOL        CARDAPP_ACTIVEOBU_RX001A
  C:4E8AH         SYMBOL        CARDAPP_ACTIVEOBU_VALID
  C:4FA5H         SYMBOL        CARDAPP_ACTIVEOBU_WR001A
  C:4985H         SYMBOL        CARDAPP_CARDCHANNEL_ESAM
  C:498AH         SYMBOL        CARDAPP_CARDCHANNEL_ICC
  C:4995H         SYMBOL        CARDAPP_CARDCHANNEL_MF
  C:4992H         SYMBOL        CARDAPP_CARDCHANNEL_NCONTACT
  C:499DH         SYMBOL        CARDAPP_CARDCHANNEL_OVER
  C:499AH         SYMBOL        CARDAPP_CARDCHANNEL_PRO
  C:497BH         SYMBOL        CARDAPP_DECCOUNTER_OVER
  C:4D70H         SYMBOL        CARDAPP_GDFXOBU_8803OK
  C:4CCBH         SYMBOL        CARDAPP_GDFXOBU_88042OK
  C:4C26H         SYMBOL        CARDAPP_GDFXOBU_8804OK
  C:4B6BH         SYMBOL        CARDAPP_GDFXOBU_88OK
  C:4A3CH         SYMBOL        CARDAPP_GDFXOBU_COMP
  C:4A57H         SYMBOL        CARDAPP_GDFXOBU_COMPOV
  C:4B9BH         SYMBOL        CARDAPP_GDFXOBU_D681OK
  C:49EDH         SYMBOL        CARDAPP_GDFXOBU_DRCARD
  C:4DFFH         SYMBOL        CARDAPP_GDFXOBU_ERR
  C:4D16H         SYMBOL        CARDAPP_GDFXOBU_GETESAMRAND03OK
  C:4BE5H         SYMBOL        CARDAPP_GDFXOBU_GETESAMRAND04OK
  C:4C8AH         SYMBOL        CARDAPP_GDFXOBU_GETESAMRAND05OK
  C:4A9AH         SYMBOL        CARDAPP_GDFXOBU_GETESAMRANDOK
  C:4A53H         SYMBOL        CARDAPP_GDFXOBU_NOERZZ
  C:4B37H         SYMBOL        CARDAPP_GDFXOBU_PINOK
  C:4AD8H         SYMBOL        CARDAPP_GDFXOBU_READ0015CARDNOOK
  C:4DCEH         SYMBOL        CARDAPP_GDFXOBU_READ001902COUNT
  C:4DB7H         SYMBOL        CARDAPP_GDFXOBU_READ001902OK
  C:4D3BH         SYMBOL        CARDAPP_GDFXOBU_READ0019DATAOK
  C:4A36H         SYMBOL        CARDAPP_GDFXOBU_READ0019OK
  C:4BCAH         SYMBOL        CARDAPP_GDFXOBU_READ0019VEHICLE02OK
  C:4C6FH         SYMBOL        CARDAPP_GDFXOBU_READ0019VEHICLE03OK
  C:4ABFH         SYMBOL        CARDAPP_GDFXOBU_READ0019VEHICLEOK
  C:4A1DH         SYMBOL        CARDAPP_GDFXOBU_READESAMHTHOK
BL51 BANKED LINKER/LOCATER V6.05                                                      09/23/2016  17:07:17  PAGE 80


  C:4A04H         SYMBOL        CARDAPP_GDFXOBU_READSEL3F00OK
  C:4BB1H         SYMBOL        CARDAPP_GDFXOBU_SEL3F00OK
  C:4A7FH         SYMBOL        CARDAPP_GDFXOBU_SELESAMDF01OK
  C:4DFCH         SYMBOL        CARDAPP_GDFXOBU_UPDATAEF01OK
  C:4D9FH         SYMBOL        CARDAPP_GDFXOBU_UPDATEOBUID
  C:4C56H         SYMBOL        CARDAPP_GDFXOBU_UPDATESYSINFO
  C:4CFBH         SYMBOL        CARDAPP_GDFXOBU_UPDATESYSINFO2
  C:4A68H         SYMBOL        CARDAPP_GDFXOBU_VALID
  C:49EAH         SYMBOL        CARDAPP_ISINORACT_ERR
  C:49E7H         SYMBOL        CARDAPP_ISINORACT_OVER
  C:49DEH         SYMBOL        CARDAPP_ISINORACT_READ0015OK
  C:49C8H         SYMBOL        CARDAPP_ISINORACT_SEL1001OK
  C:4825H         SYMBOL        CARDAPP_SELECTFILE_NORESULT
  C:4821H         SYMBOL        CARDAPP_SELECTFILE_RESULT
  C:4827H         SYMBOL        CARDAPP_SELECTFILE_RESULTOVER
  C:502CH         SYMBOL        CARDAPP_XXDATAXOR_LOOP
  N:00FAH         SYMBOL        CCAP0H
  N:00EAH         SYMBOL        CCAP0L
  N:00FBH         SYMBOL        CCAP1H
  N:00EBH         SYMBOL        CCAP1L
  N:00FCH         SYMBOL        CCAP2H
  N:00ECH         SYMBOL        CCAP2L
  N:00FDH         SYMBOL        CCAP3H
  N:00EDH         SYMBOL        CCAP3L
  N:00FEH         SYMBOL        CCAP4H
  N:00EEH         SYMBOL        CCAP4L
  N:00FFH         SYMBOL        CCAP5H
  N:00EFH         SYMBOL        CCAP5L
  N:00DAH         SYMBOL        CCAPM0
  N:00DBH         SYMBOL        CCAPM1
  N:00DCH         SYMBOL        CCAPM2
  N:00DDH         SYMBOL        CCAPM3
  N:00DEH         SYMBOL        CCAPM4
  N:00DFH         SYMBOL        CCAPM5
  B:00D8H.0       SYMBOL        CCF0
  B:00D8H.1       SYMBOL        CCF1
  B:00D8H.2       SYMBOL        CCF2
  B:00D8H.3       SYMBOL        CCF3
  B:00D8H.4       SYMBOL        CCF4
  B:00D8H.5       SYMBOL        CCF5
  N:00D8H         SYMBOL        CCON
  B:00D8H.7       SYMBOL        CF
  N:00F9H         SYMBOL        CH
  N:00E9H         SYMBOL        CL
  N:00D9H         SYMBOL        CMOD
  N:0002H         SYMBOL        CONST_ACTIONTYPE_GETRAND
  N:0000H         SYMBOL        CONST_ACTIONTYPE_GETSECURE
  N:0004H         SYMBOL        CONST_ACTIONTYPE_SETMMI
  N:0001H         SYMBOL        CONST_ACTIONTYPE_SETSECURE
  N:0003H         SYMBOL        CONST_ACTIONTYPE_TRANSFERCHANNEL
  N:0003H         SYMBOL        CONST_ACT_H
  N:0001H         SYMBOL        CONST_ACT_H_H
  N:0000H         SYMBOL        CONST_ACT_H_L
  N:0001H         SYMBOL        CONST_ACT_L
  N:0006H         SYMBOL        CONST_ACT_L_H
  N:000AH         SYMBOL        CONST_ACT_L_L
  N:0002H         SYMBOL        CONST_ACT_M
BL51 BANKED LINKER/LOCATER V6.05                                                      09/23/2016  17:07:17  PAGE 81


  N:0000H         SYMBOL        CONST_ACT_M_H
  N:0006H         SYMBOL        CONST_ACT_M_L
  N:0002H         SYMBOL        CONST_ACT_V
  N:0002H         SYMBOL        CONST_BAUD_115200
  N:0003H         SYMBOL        CONST_BAUD_115200PC
  N:0004H         SYMBOL        CONST_BAUD_230000
  N:0001H         SYMBOL        CONST_BAUD_38400
  N:0005H         SYMBOL        CONST_BAUD_38400PC
  N:0000H         SYMBOL        CONST_BAUD_9600
  N:0006H         SYMBOL        CONST_BAUD_9600PC
  N:000CH         SYMBOL        CONST_BAUD_BITFULL12
  N:000EH         SYMBOL        CONST_BAUD_BITFULL20
  N:0010H         SYMBOL        CONST_BAUD_BITFULL28
  N:000BH         SYMBOL        CONST_BAUD_BITFULL8
  N:000CH         SYMBOL        CONST_BAUD_BITHALF12
  N:00B3H         SYMBOL        CONST_BAUD_CURRENTBITFULL
  N:0058H         SYMBOL        CONST_BAUD_CURRENTBITHALF
  N:001DH         SYMBOL        CONST_BAUD_FULL115200
  N:000FH         SYMBOL        CONST_BAUD_FULL230000
  N:005DH         SYMBOL        CONST_BAUD_FULL38400
  N:00B3H         SYMBOL        CONST_BAUD_FULL9600
  N:000DH         SYMBOL        CONST_BAUD_HALF115200
  N:0008H         SYMBOL        CONST_BAUD_HALF230000
  N:002DH         SYMBOL        CONST_BAUD_HALF38400
  N:0058H         SYMBOL        CONST_BAUD_HALF9600
  N:00F8H         SYMBOL        CONST_BAUD_HAND115200
  N:00F3H         SYMBOL        CONST_BAUD_HAND115200PC
  N:00FCH         SYMBOL        CONST_BAUD_HAND230000
  N:00E9H         SYMBOL        CONST_BAUD_HAND38400
  N:00D8H         SYMBOL        CONST_BAUD_HAND38400PC
  N:00A3H         SYMBOL        CONST_BAUD_HAND9600
  N:0060H         SYMBOL        CONST_BAUD_HAND9600PC
  N:00FFH         SYMBOL        CONST_BLACK_H
  N:00FFH         SYMBOL        CONST_BLACK_L
  N:0014H         SYMBOL        CONST_BLUETOOTH_WORKTIME
  N:0020H         SYMBOL        CONST_BSTLIMIT
  N:0064H         SYMBOL        CONST_BSTLIMIT02
  N:0016H         SYMBOL        CONST_CARD_CONSUME
  N:0017H         SYMBOL        CONST_CARD_PASS
  N:0000H         SYMBOL        CONST_CELLFILE_H
  N:0009H         SYMBOL        CONST_CELLFILE_L
  N:0001H         SYMBOL        CONST_DPH_NORMAL
  N:0001H         SYMBOL        CONST_DPH_ONE
  N:0003H         SYMBOL        CONST_DPH_SERX
  N:0000H         SYMBOL        CONST_DPH_SETX
  N:0003H         SYMBOL        CONST_DPH_THREE
  N:0002H         SYMBOL        CONST_DPH_TWO
  N:0000H         SYMBOL        CONST_DPH_ZERO
  N:0007H         SYMBOL        CONST_DSRC_ACTION
  N:0009H         SYMBOL        CONST_DSRC_ACTIONTYPE
  N:0001H         SYMBOL        CONST_DSRC_CHANNELIDICC
  N:0002H         SYMBOL        CONST_DSRC_CHANNELIDSAM
  N:000AH         SYMBOL        CONST_DSRC_CONTAIN
  N:0008H         SYMBOL        CONST_DSRC_DID
  N:0000H         SYMBOL        CONST_DSRC_FILDIDAPPKEY
  N:0002H         SYMBOL        CONST_DSRC_FILDIDCONSUME
  N:0003H         SYMBOL        CONST_DSRC_FILDIDHOLD
BL51 BANKED LINKER/LOCATER V6.05                                                      09/23/2016  17:07:17  PAGE 82


  N:0001H         SYMBOL        CONST_DSRC_FILDIDVEHICLE
  N:000BH         SYMBOL        CONST_DSRC_FILL
  N:0006H         SYMBOL        CONST_DSRC_HEAD
  N:0005H         SYMBOL        CONST_DSRC_LLCCTRL
  N:0004H         SYMBOL        CONST_DSRC_MACCTRL
  N:0003H         SYMBOL        CONST_ETC_INPUT
  N:0002H         SYMBOL        CONST_FALSH_PREFLAG02H
  N:00F4H         SYMBOL        CONST_FALSH_PREFLAG02L
  N:0002H         SYMBOL        CONST_FALSH_PREFLAG03H
  N:00F5H         SYMBOL        CONST_FALSH_PREFLAG03L
  N:0002H         SYMBOL        CONST_FALSH_PREFLAG04H
  N:00F6H         SYMBOL        CONST_FALSH_PREFLAG04L
  N:0002H         SYMBOL        CONST_FALSH_PREFLAGH
  N:00F3H         SYMBOL        CONST_FALSH_PREFLAGL
  N:0001H         SYMBOL        CONST_FALSH_PREFLAGLEN
  N:0004H         SYMBOL        CONST_FLASHADD_BEACONIDUNIXTIMEH
  N:0000H         SYMBOL        CONST_FLASHADD_BEACONIDUNIXTIMEL
  N:0002H         SYMBOL        CONST_FLASH_0002H
  N:0058H         SYMBOL        CONST_FLASH_0002L
  N:0004H         SYMBOL        CONST_FLASH_0002LEN
  N:0002H         SYMBOL        CONST_FLASH_0012H
  N:005CH         SYMBOL        CONST_FLASH_0012L
  N:0028H         SYMBOL        CONST_FLASH_0012LEN
  N:0002H         SYMBOL        CONST_FLASH_0015H
  N:0084H         SYMBOL        CONST_FLASH_0015L
  N:0032H         SYMBOL        CONST_FLASH_0015LEN
  N:002BH         SYMBOL        CONST_FLASH_0015LENOLD
  N:002BH         SYMBOL        CONST_FLASH_0019GBLEN
  N:0002H         SYMBOL        CONST_FLASH_0019H
  N:00B6H         SYMBOL        CONST_FLASH_0019L
  N:003CH         SYMBOL        CONST_FLASH_0019LEN
  N:003FH         SYMBOL        CONST_FLASH_0019NEWGDLEN
  N:0004H         SYMBOL        CONST_FLASH_BEACONIDUNIXTIMEH
  N:0000H         SYMBOL        CONST_FLASH_BEACONIDUNIXTIMEL
  N:0008H         SYMBOL        CONST_FLASH_BEACONIDUNIXTIMELEN
  N:0002H         SYMBOL        CONST_FLASH_BLOCK01
  N:0001H         SYMBOL        CONST_FLASH_CARDTYPELEN
  N:00F3H         SYMBOL        CONST_FLASH_FILELEN
  N:0002H         SYMBOL        CONST_FLASH_LASTCARDH
  N:00F2H         SYMBOL        CONST_FLASH_LASTCARDL
  N:0002H         SYMBOL        CONST_FLASH_STARTHIGH
  N:0000H         SYMBOL        CONST_FLASH_STARTLOW
  N:0002H         SYMBOL        CONST_FLASH_SYSINFOH
  N:0000H         SYMBOL        CONST_FLASH_SYSINFOL
  N:0058H         SYMBOL        CONST_FLASH_SYSINFOLEN
  N:0002H         SYMBOL        CONST_GDO2_MCSM2
  N:0046H         SYMBOL        CONST_GDO2_VALUE
  N:00F0H         SYMBOL        CONST_GSM_MAXNUM
  N:0008H         SYMBOL        CONST_GSM_NUM
  N:0014H         SYMBOL        CONST_GSM_PJNUM
  N:0015H         SYMBOL        CONST_HANDSECOND
  N:0002H         SYMBOL        CONST_LHX_FLAG
  N:0005H         SYMBOL        CONST_MAX_RXNUM
  N:0008H         SYMBOL        CONST_MCU_WKCTH
  N:00FFH         SYMBOL        CONST_MCU_WKCTL
  N:0002H         SYMBOL        CONST_MF_DECREMENT
  N:0003H         SYMBOL        CONST_MF_INCREMENT
BL51 BANKED LINKER/LOCATER V6.05                                                      09/23/2016  17:07:17  PAGE 83


  N:00C0H         SYMBOL        CONST_MF_RC500DECREMENT
  N:00C1H         SYMBOL        CONST_MF_RC500INCREMENT
  N:0000H         SYMBOL        CONST_MF_READ
  N:0004H         SYMBOL        CONST_MF_RESTOR
  N:0001H         SYMBOL        CONST_MF_WRITE
  N:0001H         SYMBOL        CONST_MTC_INPUT
  N:0018H         SYMBOL        CONST_PPS_115200
  N:0096H         SYMBOL        CONST_PPS_230000
  N:0013H         SYMBOL        CONST_PPS_38400
  N:0010H         SYMBOL        CONST_PPS_9600
  N:0001H         SYMBOL        CONST_PRO_4SPEED
  N:00FAH         SYMBOL        CONST_PRO_OVERTIME2S
  N:0090H         SYMBOL        CONST_RTCOVERFLOW
  N:00FFH         SYMBOL        CONST_RTC_OFF
  N:0055H         SYMBOL        CONST_RTC_ON
  N:000AH         SYMBOL        CONST_SE_CHANNEL
  N:0000H         SYMBOL        CONST_SE_RXBUF
  N:0000H         SYMBOL        CONST_SE_TXBUF
  N:0000H         SYMBOL        CONST_SOF
  N:0014H         SYMBOL        CONST_SOFTBYTESP
  N:0010H         SYMBOL        CONST_SOFTFIRSTSCANTIME
  N:00FFH         SYMBOL        CONST_SOFTFIRSTSCANTIMEXX
  N:0070H         SYMBOL        CONST_SOFTSECOND
  N:000CH         SYMBOL        CONST_SSRC_FID
  N:0007H         SYMBOL        CONST_STATE_5823INIER
  N:0008H         SYMBOL        CONST_STATE_5823SLEEPER
  N:0003H         SYMBOL        CONST_STATE_ACCEPTOVER
  N:0004H         SYMBOL        CONST_STATE_ACCEPTOVERLEN
  N:0006H         SYMBOL        CONST_STATE_ACTCARDINVALID
  N:0004H         SYMBOL        CONST_STATE_ACTIVEFAIL
  N:0006H         SYMBOL        CONST_STATE_AUTHER
  N:001DH         SYMBOL        CONST_STATE_BASE01ANTICOLL
  N:0015H         SYMBOL        CONST_STATE_BASE01CONTACT
  N:0014H         SYMBOL        CONST_STATE_BASE01ESAMDF01
  N:001FH         SYMBOL        CONST_STATE_BASE01RATS
  N:001CH         SYMBOL        CONST_STATE_BASE01RE
  N:001EH         SYMBOL        CONST_STATE_BASE01SEL
  N:0019H         SYMBOL        CONST_STATE_BASE02ANTICOLL
  N:0016H         SYMBOL        CONST_STATE_BASE02CONTACT
  N:001BH         SYMBOL        CONST_STATE_BASE02RATS
  N:0018H         SYMBOL        CONST_STATE_BASE02RE
  N:001AH         SYMBOL        CONST_STATE_BASE02SEL
  N:000BH         SYMBOL        CONST_STATE_BASEESAMDF01
  N:0013H         SYMBOL        CONST_STATE_BASEN01INIT
  N:000AH         SYMBOL        CONST_STATE_BASENINIT
  N:000DH         SYMBOL        CONST_STATE_CARDPREDEAL0002
  N:000EH         SYMBOL        CONST_STATE_CARDPREDEAL0012
  N:000FH         SYMBOL        CONST_STATE_CARDPREDEAL0015
  N:0010H         SYMBOL        CONST_STATE_CARDPREDEAL0019
  N:000CH         SYMBOL        CONST_STATE_CARDPREDEAL1001
  N:0011H         SYMBOL        CONST_STATE_CARDPREDEAL3F00
  N:0012H         SYMBOL        CONST_STATE_CARDPREDEAL81
  N:0023H         SYMBOL        CONST_STATE_ESAMER
  N:0021H         SYMBOL        CONST_STATE_EXMEMORYER
  N:0022H         SYMBOL        CONST_STATE_EXMEMORYER02
  N:00FFH         SYMBOL        CONST_STATE_FALSE
  N:0009H         SYMBOL        CONST_STATE_GETSECURESELFILEER
BL51 BANKED LINKER/LOCATER V6.05                                                      09/23/2016  17:07:17  PAGE 84


  N:0005H         SYMBOL        CONST_STATE_ILLEGALACTCARD
  N:0002H         SYMBOL        CONST_STATE_ILLEGALINPUTCARD
  N:0003H         SYMBOL        CONST_STATE_INPUTCARDINVALID
  N:0001H         SYMBOL        CONST_STATE_INPUTFAIL
  N:0020H         SYMBOL        CONST_STATE_MEMORYER
  N:0005H         SYMBOL        CONST_STATE_RSTCPUER
  N:0001H         SYMBOL        CONST_STATE_SERIALACCPET
  N:0002H         SYMBOL        CONST_STATE_SERIALOVERTIME
  N:0017H         SYMBOL        CONST_STATE_TEST
  N:0000H         SYMBOL        CONST_STATE_TRUE
  N:0055H         SYMBOL        CONST_SYS_55
  N:00AAH         SYMBOL        CONST_SYS_AA
  N:0004H         SYMBOL        CONST_SYS_OBUIDLEN
  N:000AH         SYMBOL        CONST_SYS_POWERONTIMER
  N:0088H         SYMBOL        CONST_SYS_PREFLAG
  N:0064H         SYMBOL        CONST_SYS_RTCOVERTIME
  N:00FFH         SYMBOL        CONST_SYS_TRADECONFINE
  N:0001H         SYMBOL        CONST_TIMEER02
  N:00FEH         SYMBOL        CONST_TIMEER03
  N:0001H         SYMBOL        CONST_TIMEER04
  N:00FFH         SYMBOL        CONST_VSTLIMIT
  N:0000H         SYMBOL        CONST_WHITE_H
  N:0031H         SYMBOL        CONST_WHITE_L
  N:0000H         SYMBOL        CONST_WORKSTAION_0
  N:0001H         SYMBOL        CONST_WORKSTAION_1
  N:0002H         SYMBOL        CONST_WORKSTAION_2
  N:0003H         SYMBOL        CONST_WORKSTAION_3
  N:0000H         SYMBOL        CONST_XDATA_TXBUF02
  N:0080H         SYMBOL        CONST_XDATA_TXBUF02LEN
  B:00D8H.6       SYMBOL        CR
  D:0083H         SYMBOL        DPH
  D:0082H         SYMBOL        DPL
  B:00A8H.6       SYMBOL        EPCAI
  B:00A8H.6       SYMBOL        EPCA_LVD
  D:00A8H         SYMBOL        IE
  N:00AFH         SYMBOL        IE2
  N:00B7H         SYMBOL        IPH
  N:00C7H         SYMBOL        ISP_CONTR
  D:0080H         SYMBOL        P0
  D:0090H         SYMBOL        P1
  D:00A0H         SYMBOL        P2
  D:00B0H         SYMBOL        P3
  N:00C0H         SYMBOL        P4
  N:00F2H         SYMBOL        PCA_PWM0
  N:00F3H         SYMBOL        PCA_PWM1
  N:00F4H         SYMBOL        PCA_PWM2
  N:00F5H         SYMBOL        PCA_PWM3
  N:00F6H         SYMBOL        PCA_PWM4
  N:00F7H         SYMBOL        PCA_PWM5
  B:0080H.4       SYMBOL        PIN_522_MISO
  B:0080H.5       SYMBOL        PIN_522_MOSI
  B:00C0H.6       SYMBOL        PIN_522_RST
  B:0080H.7       SYMBOL        PIN_522_SCLK
  B:0080H.6       SYMBOL        PIN_522_SS
  B:0090H.0       SYMBOL        PIN_5823BK_CS
  B:0090H.2       SYMBOL        PIN_5823BK_IRQ
  B:0080H.0       SYMBOL        PIN_5823BK_MISO
BL51 BANKED LINKER/LOCATER V6.05                                                      09/23/2016  17:07:17  PAGE 85


  B:0080H.1       SYMBOL        PIN_5823BK_MOSI
  B:00C0H.2       SYMBOL        PIN_5823BK_SCLK
  B:0080H.3       SYMBOL        PIN_BELL_01
  B:0080H.2       SYMBOL        PIN_BELL_02
  B:0090H.1       SYMBOL        PIN_BK_CE
  B:00B0H.3       SYMBOL        PIN_CARD_EXIST
  B:0090H.6       SYMBOL        PIN_CC1101_GDO2
  B:00B0H.7       SYMBOL        PIN_CC1101_MISO
  B:00A0H.3       SYMBOL        PIN_CC1101_MOSI
  B:00A0H.2       SYMBOL        PIN_CC1101_SCLK
  B:00B0H.6       SYMBOL        PIN_CC1101_SS
  B:00A0H.5       SYMBOL        PIN_ESAM_RST
  B:00A0H.6       SYMBOL        PIN_ESAM_RX
  B:00A0H.6       SYMBOL        PIN_ESAM_TX
  B:00C0H.5       SYMBOL        PIN_GRE
  B:0090H.4       SYMBOL        PIN_LCD_CS
  B:0090H.7       SYMBOL        PIN_LCD_DC
  B:0090H.5       SYMBOL        PIN_LCD_RST
  B:00B0H.4       SYMBOL        PIN_LCD_SCL
  B:00C0H.3       SYMBOL        PIN_LCD_SDA
  B:00A0H.7       SYMBOL        PIN_PWRDWN
  B:0090H.3       SYMBOL        PIN_PWRDWN_LCD
  B:00A0H.4       SYMBOL        PIN_PWR_GSM
  B:00A0H.1       SYMBOL        PIN_PWR_LOWIO
  B:00C0H.1       SYMBOL        PIN_RED
  B:00B0H.0       SYMBOL        PIN_SOFTSERIALRX
  B:00B0H.1       SYMBOL        PIN_SOFTSERIALTXH
  B:00B0H.5       SYMBOL        PIN_UNFIX
  B:00A0H.0       SYMBOL        PIN_WAVE_CHANNEL1
  N:00C0H         SYMBOL        READ_BURST
  N:00A2H         SYMBOL        REG_51_AUXR1
  N:008EH         SYMBOL        REG_5412AD_AUXR
  N:0094H         SYMBOL        REG_5412AD_P0M0
  N:0093H         SYMBOL        REG_5412AD_P0M1
  N:0092H         SYMBOL        REG_5412AD_P1M0
  N:0091H         SYMBOL        REG_5412AD_P1M1
  N:0096H         SYMBOL        REG_5412AD_P2M0
  N:0095H         SYMBOL        REG_5412AD_P2M1
  N:00B2H         SYMBOL        REG_5412AD_P3M0
  N:00B1H         SYMBOL        REG_5412AD_P3M1
  N:00B4H         SYMBOL        REG_5412AD_P4M0
  N:00B3H         SYMBOL        REG_5412AD_P4M1
  N:00BBH         SYMBOL        REG_5412AD_P4SW
  N:0085H         SYMBOL        REG_5412AD_SPCTL
  N:0086H         SYMBOL        REG_5412AD_SPDAT
  N:0084H         SYMBOL        REG_5412AD_SPSTAT
  N:00ABH         SYMBOL        REG_MCU_WKCTH
  N:00AAH         SYMBOL        REG_MCU_WKCTL
  N:000DH         SYMBOL        REG_RC522_BITFRAMINGREG
  N:000EH         SYMBOL        REG_RC522_COLLREG
  N:0002H         SYMBOL        REG_RC522_COMIENREG
  N:0004H         SYMBOL        REG_RC522_COMIRQREG
  N:0001H         SYMBOL        REG_RC522_COMMANDREG
  N:000CH         SYMBOL        REG_RC522_CONTROLREG
  N:0021H         SYMBOL        REG_RC522_CRCRESULTREGH
  N:0022H         SYMBOL        REG_RC522_CRCRESULTREGL
  N:0028H         SYMBOL        REG_RC522_CWGSPREG
BL51 BANKED LINKER/LOCATER V6.05                                                      09/23/2016  17:07:17  PAGE 86


  N:0019H         SYMBOL        REG_RC522_DEMODREG
  N:0003H         SYMBOL        REG_RC522_DIVIENREG
  N:0005H         SYMBOL        REG_RC522_DIVIRQREG
  N:0006H         SYMBOL        REG_RC522_ERRORREG
  N:0009H         SYMBOL        REG_RC522_FIFODATAREG
  N:000AH         SYMBOL        REG_RC522_FIFOLEVELREG
  N:0027H         SYMBOL        REG_RC522_GSNREG
  N:001CH         SYMBOL        REG_RC522_MIFAREREG
  N:0011H         SYMBOL        REG_RC522_MODEREG
  N:0029H         SYMBOL        REG_RC522_MODGSPREG
  N:0024H         SYMBOL        REG_RC522_MODWIDTHREG
  N:0000H         SYMBOL        REG_RC522_RC522PAGE
  N:0026H         SYMBOL        REG_RC522_RFCFGREG
  N:000FH         SYMBOL        REG_RC522_RFU
  N:0013H         SYMBOL        REG_RC522_RXMODEREG
  N:0017H         SYMBOL        REG_RC522_RXSELREG
  N:0018H         SYMBOL        REG_RC522_RXTHRESHOLDREG
  N:001FH         SYMBOL        REG_RC522_SERIALSPEEDREG
  N:0007H         SYMBOL        REG_RC522_STATUS1REG
  N:0008H         SYMBOL        REG_RC522_STATUS2REG
  N:002EH         SYMBOL        REG_RC522_TCOUNTERVALUEREGH
  N:002FH         SYMBOL        REG_RC522_TCOUNTERVALUEREGL
  N:002AH         SYMBOL        REG_RC522_TMODEREG
  N:002BH         SYMBOL        REG_RC522_TPRESCALERREG
  N:002CH         SYMBOL        REG_RC522_TRELOADREGH
  N:002DH         SYMBOL        REG_RC522_TRELOADREGL
  N:0015H         SYMBOL        REG_RC522_TXAUTOREG
  N:0014H         SYMBOL        REG_RC522_TXCONTROLREG
  N:0012H         SYMBOL        REG_RC522_TXMODEREG
  N:0016H         SYMBOL        REG_RC522_TXSELREG
  N:000BH         SYMBOL        REG_RC522_WATERLEVELREG
  N:009CH         SYMBOL        REG_SYS_BRT
  N:008FH         SYMBOL        REG_WAKECLK0
  B:00D8H.4       SYMBOL        REG_WAKECLK_04
  B:00D8H.5       SYMBOL        REG_WAKECLK_05
  N:00C1H         SYMBOL        REG_WDT_CONTR
  N:00EAH         SYMBOL        RELOAD2_CONTR
  N:009BH         SYMBOL        S2BUF
  N:009AH         SYMBOL        S2CON
  C:77DFH         SYMBOL        STR_CARDAPP_88
  C:77E5H         SYMBOL        STR_CARDAPP_88_02
  C:77EBH         SYMBOL        STR_CARDAPP_88_03
  C:77F1H         SYMBOL        STR_CARDAPP_88_04
  C:77F7H         SYMBOL        STR_CARDAPP_88_05
  C:77FDH         SYMBOL        STR_CARDAPP_88_06
  C:7803H         SYMBOL        STR_CARDAPP_D681
  C:7809H         SYMBOL        STR_CARDAPP_D68102
  C:780FH         SYMBOL        STR_CARDAPP_D68103
  C:7815H         SYMBOL        STR_CARDAPP_D68104
  C:781BH         SYMBOL        STR_CARDAPP_D68105
  C:7821H         SYMBOL        STR_CARDAPP_D68106
  C:77D9H         SYMBOL        STR_CARDAPP_PIN
  C:77D3H         SYMBOL        STR_CARDAPP_RAND
  C:7849H         SYMBOL        STR_CARDAPP_RX001A
  C:784FH         SYMBOL        STR_CARDAPP_WX001A
  C:7827H         SYMBOL        STR_CARDAPP_XOR04D68100
  C:7836H         SYMBOL        STR_CARDAPP_XOR04D68112
BL51 BANKED LINKER/LOCATER V6.05                                                      09/23/2016  17:07:17  PAGE 87


  C:782CH         SYMBOL        STR_CARDAPP_XOR04D6811A
  C:7831H         SYMBOL        STR_CARDAPP_XOR04D6813A
  C:783BH         SYMBOL        STR_CARDAPP_XOR04D69D31
  C:7840H         SYMBOL        STR_CARDAPP_XOR04D69D4F
  C:7845H         SYMBOL        STR_CARDAPP_XOR3E267A
  N:0009H         SYMBOL        TI_CCXXX0_ADDR
  N:001DH         SYMBOL        TI_CCXXX0_AGCCTRL0
  N:001CH         SYMBOL        TI_CCXXX0_AGCCTRL1
  N:001BH         SYMBOL        TI_CCXXX0_AGCCTRL2
  N:002BH         SYMBOL        TI_CCXXX0_AGCTEST
  N:001AH         SYMBOL        TI_CCXXX0_BSCFG
  N:000AH         SYMBOL        TI_CCXXX0_CHANNR
  N:0015H         SYMBOL        TI_CCXXX0_DEVIATN
  N:0003H         SYMBOL        TI_CCXXX0_FIFOTHR
  N:0019H         SYMBOL        TI_CCXXX0_FOCCFG
  N:0022H         SYMBOL        TI_CCXXX0_FREND0
  N:0021H         SYMBOL        TI_CCXXX0_FREND1
  N:000FH         SYMBOL        TI_CCXXX0_FREQ0
  N:000EH         SYMBOL        TI_CCXXX0_FREQ1
  N:000DH         SYMBOL        TI_CCXXX0_FREQ2
  N:0032H         SYMBOL        TI_CCXXX0_FREQEST
  N:0026H         SYMBOL        TI_CCXXX0_FSCAL0
  N:0025H         SYMBOL        TI_CCXXX0_FSCAL1
  N:0024H         SYMBOL        TI_CCXXX0_FSCAL2
  N:0023H         SYMBOL        TI_CCXXX0_FSCAL3
  N:000CH         SYMBOL        TI_CCXXX0_FSCTRL0
  N:000BH         SYMBOL        TI_CCXXX0_FSCTRL1
  N:0029H         SYMBOL        TI_CCXXX0_FSTEST
  N:0002H         SYMBOL        TI_CCXXX0_IOCFG0
  N:0001H         SYMBOL        TI_CCXXX0_IOCFG1
  N:0000H         SYMBOL        TI_CCXXX0_IOCFG2
  N:0033H         SYMBOL        TI_CCXXX0_LQI
  N:0035H         SYMBOL        TI_CCXXX0_MARCSTATE
  N:0018H         SYMBOL        TI_CCXXX0_MCSM0
  N:0017H         SYMBOL        TI_CCXXX0_MCSM1
  N:0016H         SYMBOL        TI_CCXXX0_MCSM2
  N:0014H         SYMBOL        TI_CCXXX0_MDMCFG0
  N:0013H         SYMBOL        TI_CCXXX0_MDMCFG1
  N:0012H         SYMBOL        TI_CCXXX0_MDMCFG2
  N:0011H         SYMBOL        TI_CCXXX0_MDMCFG3
  N:0010H         SYMBOL        TI_CCXXX0_MDMCFG4
  N:007FH         SYMBOL        TI_CCXXX0_NUM_RXBYTES
  N:0030H         SYMBOL        TI_CCXXX0_PARTNUM
  N:003EH         SYMBOL        TI_CCXXX0_PATABLE
  N:0008H         SYMBOL        TI_CCXXX0_PKTCTRL0
  N:0007H         SYMBOL        TI_CCXXX0_PKTCTRL1
  N:0006H         SYMBOL        TI_CCXXX0_PKTLEN
  N:0038H         SYMBOL        TI_CCXXX0_PKTSTATUS
  N:002AH         SYMBOL        TI_CCXXX0_PTEST
  N:0028H         SYMBOL        TI_CCXXX0_RCCTRL0
  N:0027H         SYMBOL        TI_CCXXX0_RCCTRL1
  N:0034H         SYMBOL        TI_CCXXX0_RSSI
  N:003BH         SYMBOL        TI_CCXXX0_RXBYTES
  N:003FH         SYMBOL        TI_CCXXX0_RXFIFO
  N:0037H         SYMBOL        TI_CCXXX0_SAFC
  N:0033H         SYMBOL        TI_CCXXX0_SCAL
  N:003AH         SYMBOL        TI_CCXXX0_SFRX
BL51 BANKED LINKER/LOCATER V6.05                                                      09/23/2016  17:07:17  PAGE 88


  N:003BH         SYMBOL        TI_CCXXX0_SFTX
  N:0036H         SYMBOL        TI_CCXXX0_SIDLE
  N:003DH         SYMBOL        TI_CCXXX0_SNOP
  N:0039H         SYMBOL        TI_CCXXX0_SPWD
  N:0030H         SYMBOL        TI_CCXXX0_SRES
  N:0034H         SYMBOL        TI_CCXXX0_SRX
  N:0035H         SYMBOL        TI_CCXXX0_STX
  N:0038H         SYMBOL        TI_CCXXX0_SWOR
  N:003CH         SYMBOL        TI_CCXXX0_SWORRST
  N:0032H         SYMBOL        TI_CCXXX0_SXOFF
  N:0005H         SYMBOL        TI_CCXXX0_SYNC0
  N:0004H         SYMBOL        TI_CCXXX0_SYNC1
  N:002EH         SYMBOL        TI_CCXXX0_TEST0
  N:002DH         SYMBOL        TI_CCXXX0_TEST1
  N:002CH         SYMBOL        TI_CCXXX0_TEST2
  N:003AH         SYMBOL        TI_CCXXX0_TXBYTES
  N:003FH         SYMBOL        TI_CCXXX0_TXFIFO
  N:0039H         SYMBOL        TI_CCXXX0_VCO_VC_DAC
  N:0031H         SYMBOL        TI_CCXXX0_VERSION
  N:0020H         SYMBOL        TI_CCXXX0_WORCTRL
  N:001FH         SYMBOL        TI_CCXXX0_WOREVT0
  N:001EH         SYMBOL        TI_CCXXX0_WOREVT1
  N:0037H         SYMBOL        TI_CCXXX0_WORTIME0
  N:0036H         SYMBOL        TI_CCXXX0_WORTIME1
  N:008FH         SYMBOL        WAKE_CLKO
  B:00B0H.2       SYMBOL        WKO_BK
  C:499EH         SYMBOL        _FUN_CARDAPP_INNERCARDCHANNEL
  C:497FH         SYMBOL        _FUN_CARDAPP_READVEHICLEINFO
  C:497CH         SYMBOL        _FUN_CARDAPP_WRITEBINARY
  C:5047H         SYMBOL        _FUN_CARDAPP_XXDATAFLASHXOR
  C:5026H         SYMBOL        _FUN_CARDAPP_XXDATAXOR
  C:47C9H         LINE#         37
  C:47CCH         LINE#         38
  C:47CEH         LINE#         39
  C:47CFH         LINE#         40
  C:47D1H         LINE#         41
  C:47D2H         LINE#         44
  C:47D3H         LINE#         45
  C:47D4H         LINE#         46
  C:47D5H         LINE#         47
  C:47D6H         LINE#         48
  C:47D7H         LINE#         49
  C:47D8H         LINE#         50
  C:47D9H         LINE#         51
  C:47DAH         LINE#         52
  C:47DCH         LINE#         53
  C:47DDH         LINE#         54
  C:47DFH         LINE#         56
  C:47E2H         LINE#         57
  C:47E4H         LINE#         60
  C:47E5H         LINE#         61
  C:47E6H         LINE#         62
  C:47E7H         LINE#         63
  C:47E8H         LINE#         64
  C:47E9H         LINE#         66
  C:47ECH         LINE#         67
  C:47EEH         LINE#         68
BL51 BANKED LINKER/LOCATER V6.05                                                      09/23/2016  17:07:17  PAGE 89


  C:47EFH         LINE#         69
  C:47F1H         LINE#         70
  C:47F2H         LINE#         73
  C:47F3H         LINE#         90
  C:47F6H         LINE#         91
  C:47F8H         LINE#         92
  C:47F9H         LINE#         93
  C:47FBH         LINE#         94
  C:47FCH         LINE#         95
  C:47FEH         LINE#         96
  C:47FFH         LINE#         97
  C:4801H         LINE#         98
  C:4802H         LINE#         99
  C:4804H         LINE#         100
  C:4805H         LINE#         101
  C:4806H         LINE#         102
  C:4807H         LINE#         103
  C:4808H         LINE#         104
  C:4809H         LINE#         105
  C:480AH         LINE#         106
  C:480CH         LINE#         107
  C:480EH         LINE#         109
  C:4811H         LINE#         111
  C:4813H         LINE#         118
  C:4814H         LINE#         119
  C:4815H         LINE#         120
  C:4816H         LINE#         121
  C:4817H         LINE#         122
  C:4818H         LINE#         124
  C:481BH         LINE#         125
  C:481DH         LINE#         126
  C:481EH         LINE#         130
  C:4821H         LINE#         132
  C:4823H         LINE#         133
  C:4825H         LINE#         135
  C:4827H         LINE#         138
  C:4828H         LINE#         140
  C:4829H         LINE#         144
  C:482CH         LINE#         145
  C:482EH         LINE#         146
  C:482FH         LINE#         147
  C:4831H         LINE#         148
  C:4832H         LINE#         149
  C:4834H         LINE#         150
  C:4835H         LINE#         151
  C:4837H         LINE#         152
  C:4838H         LINE#         153
  C:483AH         LINE#         154
  C:483BH         LINE#         155
  C:483CH         LINE#         156
  C:483DH         LINE#         157
  C:483EH         LINE#         158
  C:483FH         LINE#         159
  C:4840H         LINE#         160
  C:4842H         LINE#         161
  C:4844H         LINE#         164
  C:4847H         LINE#         166
BL51 BANKED LINKER/LOCATER V6.05                                                      09/23/2016  17:07:17  PAGE 90


  C:4849H         LINE#         169
  C:484AH         LINE#         170
  C:484BH         LINE#         171
  C:484CH         LINE#         172
  C:484DH         LINE#         173
  C:484EH         LINE#         175
  C:4851H         LINE#         176
  C:4853H         LINE#         177
  C:4854H         LINE#         178
  C:4856H         LINE#         179
  C:4857H         LINE#         180
  C:4858H         LINE#         199
  C:485BH         LINE#         200
  C:485DH         LINE#         201
  C:485EH         LINE#         202
  C:4860H         LINE#         203
  C:4861H         LINE#         204
  C:4863H         LINE#         205
  C:4864H         LINE#         206
  C:4865H         LINE#         207
  C:4866H         LINE#         208
  C:4867H         LINE#         209
  C:4868H         LINE#         210
  C:4869H         LINE#         211
  C:486AH         LINE#         212
  C:486BH         LINE#         213
  C:486DH         LINE#         215
  C:486FH         LINE#         217
  C:4872H         LINE#         218
  C:4874H         LINE#         221
  C:4875H         LINE#         222
  C:4876H         LINE#         223
  C:4877H         LINE#         224
  C:4878H         LINE#         225
  C:4879H         LINE#         227
  C:487CH         LINE#         228
  C:487EH         LINE#         229
  C:487FH         LINE#         230
  C:4881H         LINE#         231
  C:4882H         LINE#         234
  C:4883H         LINE#         240
  C:4886H         LINE#         241
  C:4888H         LINE#         242
  C:4889H         LINE#         243
  C:488BH         LINE#         244
  C:488CH         LINE#         245
  C:488EH         LINE#         246
  C:488FH         LINE#         247
  C:4891H         LINE#         248
  C:4892H         LINE#         249
  C:4894H         LINE#         250
  C:4895H         LINE#         251
  C:4897H         LINE#         252
  C:4898H         LINE#         253
  C:489AH         LINE#         254
  C:489BH         LINE#         255
  C:489DH         LINE#         256
BL51 BANKED LINKER/LOCATER V6.05                                                      09/23/2016  17:07:17  PAGE 91


  C:489EH         LINE#         257
  C:48A0H         LINE#         258
  C:48A1H         LINE#         259
  C:48A3H         LINE#         260
  C:48A4H         LINE#         261
  C:48A6H         LINE#         262
  C:48A7H         LINE#         263
  C:48A9H         LINE#         264
  C:48AAH         LINE#         265
  C:48ACH         LINE#         266
  C:48ADH         LINE#         267
  C:48AFH         LINE#         268
  C:48B0H         LINE#         269
  C:48B2H         LINE#         270
  C:48B4H         LINE#         272
  C:48B6H         LINE#         274
  C:48B9H         LINE#         275
  C:48BBH         LINE#         278
  C:48BCH         LINE#         279
  C:48BDH         LINE#         280
  C:48BEH         LINE#         281
  C:48BFH         LINE#         282
  C:48C0H         LINE#         284
  C:48C3H         LINE#         285
  C:48C5H         LINE#         286
  C:48C6H         LINE#         287
  C:48C8H         LINE#         288
  C:48C9H         LINE#         291
  C:48CAH         LINE#         311
  C:48CDH         LINE#         312
  C:48CFH         LINE#         313
  C:48D0H         LINE#         314
  C:48D2H         LINE#         315
  C:48D3H         LINE#         318
  C:48D4H         LINE#         319
  C:48D5H         LINE#         320
  C:48D6H         LINE#         321
  C:48D7H         LINE#         322
  C:48D8H         LINE#         323
  C:48D9H         LINE#         324
  C:48DAH         LINE#         325
  C:48DBH         LINE#         326
  C:48DDH         LINE#         328
  C:48DFH         LINE#         330
  C:48E2H         LINE#         331
  C:48E4H         LINE#         334
  C:48E5H         LINE#         335
  C:48E6H         LINE#         336
  C:48E7H         LINE#         337
  C:48E8H         LINE#         338
  C:48E9H         LINE#         340
  C:48ECH         LINE#         341
  C:48EEH         LINE#         342
  C:48EFH         LINE#         343
  C:48F1H         LINE#         344
  C:48F2H         LINE#         347
  C:48F3H         LINE#         362
BL51 BANKED LINKER/LOCATER V6.05                                                      09/23/2016  17:07:17  PAGE 92


  C:48F6H         LINE#         363
  C:48F8H         LINE#         364
  C:48F9H         LINE#         365
  C:48FBH         LINE#         366
  C:48FCH         LINE#         367
  C:48FEH         LINE#         368
  C:48FFH         LINE#         369
  C:4901H         LINE#         370
  C:4902H         LINE#         371
  C:4904H         LINE#         374
  C:4906H         LINE#         375
  C:4908H         LINE#         380
  C:490BH         LINE#         384
  C:490DH         LINE#         387
  C:490EH         LINE#         388
  C:490FH         LINE#         389
  C:4910H         LINE#         390
  C:4911H         LINE#         391
  C:4912H         LINE#         393
  C:4915H         LINE#         394
  C:4917H         LINE#         395
  C:4918H         LINE#         396
  C:491AH         LINE#         397
  C:491BH         LINE#         399
  C:491CH         LINE#         418
  C:491FH         LINE#         419
  C:4921H         LINE#         420
  C:4922H         LINE#         421
  C:4924H         LINE#         422
  C:4925H         LINE#         423
  C:4926H         LINE#         424
  C:4927H         LINE#         425
  C:4928H         LINE#         427
  C:4929H         LINE#         428
  C:492AH         LINE#         429
  C:492BH         LINE#         430
  C:492DH         LINE#         431
  C:492EH         LINE#         433
  C:492FH         LINE#         434
  C:4930H         LINE#         435
  C:4931H         LINE#         437
  C:4933H         LINE#         438
  C:4935H         LINE#         440
  C:4938H         LINE#         441
  C:493AH         LINE#         444
  C:493BH         LINE#         445
  C:493CH         LINE#         446
  C:493DH         LINE#         447
  C:493EH         LINE#         448
  C:493FH         LINE#         450
  C:4942H         LINE#         451
  C:4944H         LINE#         452
  C:4945H         LINE#         453
  C:4947H         LINE#         454
  C:4948H         LINE#         456
  C:4949H         LINE#         471
  C:494CH         LINE#         472
BL51 BANKED LINKER/LOCATER V6.05                                                      09/23/2016  17:07:17  PAGE 93


  C:494EH         LINE#         473
  C:494FH         LINE#         474
  C:4951H         LINE#         475
  C:4952H         LINE#         476
  C:4954H         LINE#         477
  C:4955H         LINE#         478
  C:4957H         LINE#         479
  C:4958H         LINE#         480
  C:495AH         LINE#         483
  C:495CH         LINE#         484
  C:495EH         LINE#         486
  C:4961H         LINE#         488
  C:4963H         LINE#         490
  C:4964H         LINE#         491
  C:4965H         LINE#         492
  C:4966H         LINE#         493
  C:4967H         LINE#         494
  C:4968H         LINE#         496
  C:496BH         LINE#         497
  C:496DH         LINE#         498
  C:496EH         LINE#         499
  C:4970H         LINE#         500
  C:4971H         LINE#         504
  C:4974H         LINE#         506
  C:4977H         LINE#         507
  C:4979H         LINE#         508
  C:497AH         LINE#         509
  C:497BH         LINE#         528
  C:497CH         LINE#         545
  C:497FH         LINE#         562
  C:4982H         LINE#         584
  C:4985H         LINE#         587
  C:4988H         LINE#         588
  C:498AH         LINE#         592
  C:498DH         LINE#         597
  C:4990H         LINE#         598
  C:4992H         LINE#         600
  C:4995H         LINE#         602
  C:4998H         LINE#         603
  C:499AH         LINE#         605
  C:499DH         LINE#         611
  C:499EH         LINE#         633
  C:49A0H         LINE#         634
  C:49A3H         LINE#         635
  C:49A5H         LINE#         638
  C:49A6H         LINE#         639
  C:49A7H         LINE#         640
  C:49A8H         LINE#         641
  C:49A9H         LINE#         642
  C:49AAH         LINE#         644
  C:49ADH         LINE#         645
  C:49AFH         LINE#         646
  C:49B0H         LINE#         647
  C:49B2H         LINE#         648
  C:49B3H         LINE#         650
  C:49B4H         LINE#         664
  C:49B6H         LINE#         665
BL51 BANKED LINKER/LOCATER V6.05                                                      09/23/2016  17:07:17  PAGE 94


  C:49B8H         LINE#         666
  C:49BAH         LINE#         667
  C:49BCH         LINE#         668
  C:49BEH         LINE#         669
  C:49C0H         LINE#         670
  C:49C3H         LINE#         671
  C:49C4H         LINE#         672
  C:49C6H         LINE#         673
  C:49C8H         LINE#         677
  C:49CAH         LINE#         678
  C:49CCH         LINE#         679
  C:49CEH         LINE#         680
  C:49D0H         LINE#         681
  C:49D2H         LINE#         682
  C:49D4H         LINE#         683
  C:49D6H         LINE#         684
  C:49D9H         LINE#         685
  C:49DAH         LINE#         686
  C:49DCH         LINE#         687
  C:49DEH         LINE#         690
  C:49E0H         LINE#         692
  C:49E3H         LINE#         693
  C:49E5H         LINE#         694
  C:49E6H         LINE#         696
  C:49E7H         LINE#         698
  C:49E9H         LINE#         699
  C:49EAH         LINE#         702
  C:49ECH         LINE#         704
  C:49EDH         LINE#         753
  C:49EFH         LINE#         754
  C:49F1H         LINE#         755
  C:49F3H         LINE#         756
  C:49F5H         LINE#         757
  C:49F7H         LINE#         758
  C:49F9H         LINE#         759
  C:49FCH         LINE#         760
  C:49FDH         LINE#         761
  C:49FFH         LINE#         762
  C:4A01H         LINE#         763
  C:4A04H         LINE#         771
  C:4A06H         LINE#         772
  C:4A08H         LINE#         773
  C:4A0AH         LINE#         774
  C:4A0CH         LINE#         775
  C:4A0EH         LINE#         776
  C:4A10H         LINE#         777
  C:4A12H         LINE#         778
  C:4A15H         LINE#         779
  C:4A16H         LINE#         780
  C:4A18H         LINE#         781
  C:4A1AH         LINE#         782
  C:4A1DH         LINE#         788
  C:4A1FH         LINE#         789
  C:4A21H         LINE#         790
  C:4A23H         LINE#         791
  C:4A25H         LINE#         792
  C:4A27H         LINE#         793
BL51 BANKED LINKER/LOCATER V6.05                                                      09/23/2016  17:07:17  PAGE 95


  C:4A29H         LINE#         794
  C:4A2BH         LINE#         795
  C:4A2EH         LINE#         796
  C:4A2FH         LINE#         797
  C:4A31H         LINE#         798
  C:4A33H         LINE#         799
  C:4A36H         LINE#         804
  C:4A38H         LINE#         805
  C:4A3AH         LINE#         806
  C:4A3CH         LINE#         809
  C:4A3FH         LINE#         810
  C:4A41H         LINE#         811
  C:4A42H         LINE#         812
  C:4A44H         LINE#         814
  C:4A47H         LINE#         815
  C:4A49H         LINE#         816
  C:4A4AH         LINE#         817
  C:4A4CH         LINE#         819
  C:4A4EH         LINE#         820
  C:4A50H         LINE#         821
  C:4A53H         LINE#         823
  C:4A54H         LINE#         824
  C:4A55H         LINE#         825
  C:4A57H         LINE#         830
  C:4A59H         LINE#         832
  C:4A5CH         LINE#         833
  C:4A5EH         LINE#         834
  C:4A5FH         LINE#         835
  C:4A61H         LINE#         836
  C:4A63H         LINE#         837
  C:4A65H         LINE#         838
  C:4A68H         LINE#         843
  C:4A6AH         LINE#         844
  C:4A6CH         LINE#         845
  C:4A6EH         LINE#         846
  C:4A70H         LINE#         847
  C:4A72H         LINE#         848
  C:4A74H         LINE#         849
  C:4A77H         LINE#         850
  C:4A78H         LINE#         851
  C:4A7AH         LINE#         852
  C:4A7CH         LINE#         853
  C:4A7FH         LINE#         859
  C:4A82H         LINE#         860
  C:4A84H         LINE#         861
  C:4A87H         LINE#         863
  C:4A89H         LINE#         864
  C:4A8BH         LINE#         865
  C:4A8DH         LINE#         866
  C:4A8FH         LINE#         868
  C:4A92H         LINE#         869
  C:4A93H         LINE#         870
  C:4A95H         LINE#         871
  C:4A97H         LINE#         872
  C:4A9AH         LINE#         878
  C:4A9CH         LINE#         879
  C:4A9EH         LINE#         880
BL51 BANKED LINKER/LOCATER V6.05                                                      09/23/2016  17:07:17  PAGE 96


  C:4AA0H         LINE#         881
  C:4AA3H         LINE#         882
  C:4AA6H         LINE#         887
  C:4AA8H         LINE#         888
  C:4AAAH         LINE#         889
  C:4AACH         LINE#         890
  C:4AAEH         LINE#         891
  C:4AB0H         LINE#         892
  C:4AB2H         LINE#         893
  C:4AB4H         LINE#         894
  C:4AB7H         LINE#         895
  C:4AB8H         LINE#         896
  C:4ABAH         LINE#         897
  C:4ABCH         LINE#         898
  C:4ABFH         LINE#         906
  C:4AC1H         LINE#         907
  C:4AC3H         LINE#         908
  C:4AC5H         LINE#         909
  C:4AC7H         LINE#         910
  C:4AC9H         LINE#         911
  C:4ACBH         LINE#         912
  C:4ACDH         LINE#         913
  C:4AD0H         LINE#         914
  C:4AD1H         LINE#         915
  C:4AD3H         LINE#         916
  C:4AD5H         LINE#         917
  C:4AD8H         LINE#         929
  C:4ADAH         LINE#         931
  C:4ADDH         LINE#         932
  C:4ADFH         LINE#         933
  C:4AE0H         LINE#         934
  C:4AE2H         LINE#         936
  C:4AE4H         LINE#         938
  C:4AE7H         LINE#         939
  C:4AE9H         LINE#         940
  C:4AEAH         LINE#         942
  C:4AECH         LINE#         944
  C:4AEFH         LINE#         945
  C:4AF1H         LINE#         946
  C:4AF2H         LINE#         948
  C:4AF4H         LINE#         949
  C:4AF6H         LINE#         951
  C:4AF9H         LINE#         952
  C:4AFBH         LINE#         953
  C:4AFCH         LINE#         955
  C:4AFEH         LINE#         956
  C:4B00H         LINE#         957
  C:4B02H         LINE#         958
  C:4B05H         LINE#         964
  C:4B07H         LINE#         965
  C:4B09H         LINE#         966
  C:4B0BH         LINE#         967
  C:4B0EH         LINE#         968
  C:4B11H         LINE#         974
  C:4B14H         LINE#         975
  C:4B16H         LINE#         976
  C:4B19H         LINE#         978
BL51 BANKED LINKER/LOCATER V6.05                                                      09/23/2016  17:07:17  PAGE 97


  C:4B1BH         LINE#         979
  C:4B1DH         LINE#         980
  C:4B1FH         LINE#         981
  C:4B22H         LINE#         983
  C:4B24H         LINE#         984
  C:4B26H         LINE#         985
  C:4B28H         LINE#         986
  C:4B2AH         LINE#         988
  C:4B2CH         LINE#         989
  C:4B2FH         LINE#         990
  C:4B30H         LINE#         991
  C:4B32H         LINE#         992
  C:4B34H         LINE#         993
  C:4B37H         LINE#         1007
  C:4B3AH         LINE#         1008
  C:4B3CH         LINE#         1009
  C:4B3FH         LINE#         1011
  C:4B41H         LINE#         1012
  C:4B43H         LINE#         1013
  C:4B45H         LINE#         1014
  C:4B48H         LINE#         1016
  C:4B4AH         LINE#         1018
  C:4B4CH         LINE#         1019
  C:4B4DH         LINE#         1021
  C:4B4FH         LINE#         1022
  C:4B51H         LINE#         1024
  C:4B53H         LINE#         1025
  C:4B56H         LINE#         1027
  C:4B58H         LINE#         1028
  C:4B5AH         LINE#         1029
  C:4B5CH         LINE#         1030
  C:4B5EH         LINE#         1032
  C:4B60H         LINE#         1033
  C:4B63H         LINE#         1034
  C:4B64H         LINE#         1035
  C:4B66H         LINE#         1036
  C:4B68H         LINE#         1037
  C:4B6BH         LINE#         1050
  C:4B6EH         LINE#         1051
  C:4B70H         LINE#         1052
  C:4B73H         LINE#         1054
  C:4B75H         LINE#         1055
  C:4B77H         LINE#         1056
  C:4B79H         LINE#         1057
  C:4B7CH         LINE#         1059
  C:4B7FH         LINE#         1060
  C:4B81H         LINE#         1061
  C:4B83H         LINE#         1062
  C:4B86H         LINE#         1065
  C:4B88H         LINE#         1066
  C:4B8AH         LINE#         1067
  C:4B8CH         LINE#         1068
  C:4B8EH         LINE#         1070
  C:4B90H         LINE#         1071
  C:4B93H         LINE#         1079
  C:4B94H         LINE#         1080
  C:4B96H         LINE#         1081
BL51 BANKED LINKER/LOCATER V6.05                                                      09/23/2016  17:07:17  PAGE 98


  C:4B98H         LINE#         1082
  C:4B9BH         LINE#         1092
  C:4B9DH         LINE#         1093
  C:4B9FH         LINE#         1094
  C:4BA1H         LINE#         1095
  C:4BA3H         LINE#         1096
  C:4BA5H         LINE#         1097
  C:4BA7H         LINE#         1098
  C:4BAAH         LINE#         1100
  C:4BACH         LINE#         1101
  C:4BAEH         LINE#         1102
  C:4BB1H         LINE#         1134
  C:4BB3H         LINE#         1135
  C:4BB5H         LINE#         1136
  C:4BB7H         LINE#         1137
  C:4BB9H         LINE#         1138
  C:4BBBH         LINE#         1139
  C:4BBDH         LINE#         1140
  C:4BBFH         LINE#         1141
  C:4BC2H         LINE#         1142
  C:4BC3H         LINE#         1143
  C:4BC5H         LINE#         1144
  C:4BC7H         LINE#         1145
  C:4BCAH         LINE#         1160
  C:4BCDH         LINE#         1161
  C:4BCFH         LINE#         1162
  C:4BD2H         LINE#         1164
  C:4BD4H         LINE#         1165
  C:4BD6H         LINE#         1166
  C:4BD8H         LINE#         1167
  C:4BDAH         LINE#         1168
  C:4BDDH         LINE#         1170
  C:4BDEH         LINE#         1171
  C:4BE0H         LINE#         1172
  C:4BE2H         LINE#         1173
  C:4BE5H         LINE#         1178
  C:4BE7H         LINE#         1179
  C:4BE9H         LINE#         1180
  C:4BEBH         LINE#         1181
  C:4BEEH         LINE#         1182
  C:4BF1H         LINE#         1191
  C:4BF4H         LINE#         1192
  C:4BF6H         LINE#         1193
  C:4BF9H         LINE#         1198
  C:4BFBH         LINE#         1199
  C:4BFDH         LINE#         1200
  C:4BFFH         LINE#         1201
  C:4C02H         LINE#         1203
  C:4C04H         LINE#         1204
  C:4C06H         LINE#         1205
  C:4C07H         LINE#         1207
  C:4C0AH         LINE#         1208
  C:4C0CH         LINE#         1209
  C:4C0EH         LINE#         1210
  C:4C11H         LINE#         1212
  C:4C13H         LINE#         1213
  C:4C15H         LINE#         1214
BL51 BANKED LINKER/LOCATER V6.05                                                      09/23/2016  17:07:17  PAGE 99


  C:4C17H         LINE#         1215
  C:4C19H         LINE#         1216
  C:4C1BH         LINE#         1217
  C:4C1EH         LINE#         1219
  C:4C1FH         LINE#         1220
  C:4C21H         LINE#         1221
  C:4C23H         LINE#         1222
  C:4C26H         LINE#         1232
  C:4C29H         LINE#         1233
  C:4C2BH         LINE#         1234
  C:4C2EH         LINE#         1236
  C:4C30H         LINE#         1237
  C:4C32H         LINE#         1238
  C:4C34H         LINE#         1239
  C:4C37H         LINE#         1241
  C:4C3AH         LINE#         1242
  C:4C3CH         LINE#         1243
  C:4C3EH         LINE#         1244
  C:4C41H         LINE#         1246
  C:4C43H         LINE#         1247
  C:4C45H         LINE#         1248
  C:4C47H         LINE#         1249
  C:4C49H         LINE#         1250
  C:4C4BH         LINE#         1251
  C:4C4EH         LINE#         1252
  C:4C4FH         LINE#         1254
  C:4C51H         LINE#         1255
  C:4C53H         LINE#         1256
  C:4C56H         LINE#         1270
  C:4C58H         LINE#         1271
  C:4C5AH         LINE#         1272
  C:4C5CH         LINE#         1273
  C:4C5EH         LINE#         1274
  C:4C60H         LINE#         1275
  C:4C62H         LINE#         1276
  C:4C64H         LINE#         1277
  C:4C67H         LINE#         1278
  C:4C68H         LINE#         1279
  C:4C6AH         LINE#         1280
  C:4C6CH         LINE#         1281
  C:4C6FH         LINE#         1288
  C:4C72H         LINE#         1289
  C:4C74H         LINE#         1290
  C:4C77H         LINE#         1292
  C:4C79H         LINE#         1293
  C:4C7BH         LINE#         1294
  C:4C7DH         LINE#         1295
  C:4C7FH         LINE#         1296
  C:4C82H         LINE#         1298
  C:4C83H         LINE#         1299
  C:4C85H         LINE#         1300
  C:4C87H         LINE#         1301
  C:4C8AH         LINE#         1306
  C:4C8CH         LINE#         1307
  C:4C8EH         LINE#         1308
  C:4C90H         LINE#         1309
  C:4C93H         LINE#         1310
BL51 BANKED LINKER/LOCATER V6.05                                                      09/23/2016  17:07:17  PAGE 100


  C:4C96H         LINE#         1320
  C:4C99H         LINE#         1321
  C:4C9BH         LINE#         1322
  C:4C9EH         LINE#         1327
  C:4CA0H         LINE#         1328
  C:4CA2H         LINE#         1329
  C:4CA4H         LINE#         1330
  C:4CA7H         LINE#         1332
  C:4CA9H         LINE#         1333
  C:4CABH         LINE#         1334
  C:4CACH         LINE#         1336
  C:4CAFH         LINE#         1337
  C:4CB1H         LINE#         1338
  C:4CB3H         LINE#         1339
  C:4CB6H         LINE#         1341
  C:4CB8H         LINE#         1342
  C:4CBAH         LINE#         1343
  C:4CBCH         LINE#         1344
  C:4CBEH         LINE#         1345
  C:4CC0H         LINE#         1346
  C:4CC3H         LINE#         1348
  C:4CC4H         LINE#         1349
  C:4CC6H         LINE#         1350
  C:4CC8H         LINE#         1351
  C:4CCBH         LINE#         1361
  C:4CCEH         LINE#         1362
  C:4CD0H         LINE#         1363
  C:4CD3H         LINE#         1365
  C:4CD5H         LINE#         1366
  C:4CD7H         LINE#         1367
  C:4CD9H         LINE#         1368
  C:4CDCH         LINE#         1370
  C:4CDFH         LINE#         1371
  C:4CE1H         LINE#         1372
  C:4CE3H         LINE#         1373
  C:4CE6H         LINE#         1375
  C:4CE8H         LINE#         1376
  C:4CEAH         LINE#         1377
  C:4CECH         LINE#         1378
  C:4CEEH         LINE#         1379
  C:4CF0H         LINE#         1380
  C:4CF3H         LINE#         1381
  C:4CF4H         LINE#         1383
  C:4CF6H         LINE#         1384
  C:4CF8H         LINE#         1385
  C:4CFBH         LINE#         1418
  C:4CFEH         LINE#         1419
  C:4D00H         LINE#         1420
  C:4D03H         LINE#         1422
  C:4D05H         LINE#         1423
  C:4D07H         LINE#         1424
  C:4D09H         LINE#         1425
  C:4D0BH         LINE#         1426
  C:4D0EH         LINE#         1428
  C:4D0FH         LINE#         1429
  C:4D11H         LINE#         1430
  C:4D13H         LINE#         1431
BL51 BANKED LINKER/LOCATER V6.05                                                      09/23/2016  17:07:17  PAGE 101


  C:4D16H         LINE#         1436
  C:4D18H         LINE#         1437
  C:4D1AH         LINE#         1438
  C:4D1CH         LINE#         1439
  C:4D1FH         LINE#         1440
  C:4D22H         LINE#         1445
  C:4D24H         LINE#         1446
  C:4D26H         LINE#         1447
  C:4D28H         LINE#         1448
  C:4D2AH         LINE#         1449
  C:4D2CH         LINE#         1450
  C:4D2EH         LINE#         1451
  C:4D30H         LINE#         1452
  C:4D33H         LINE#         1454
  C:4D34H         LINE#         1455
  C:4D36H         LINE#         1456
  C:4D38H         LINE#         1457
  C:4D3BH         LINE#         1466
  C:4D3EH         LINE#         1467
  C:4D40H         LINE#         1468
  C:4D43H         LINE#         1473
  C:4D45H         LINE#         1474
  C:4D47H         LINE#         1475
  C:4D49H         LINE#         1476
  C:4D4CH         LINE#         1478
  C:4D4EH         LINE#         1479
  C:4D50H         LINE#         1480
  C:4D51H         LINE#         1482
  C:4D54H         LINE#         1483
  C:4D56H         LINE#         1484
  C:4D58H         LINE#         1485
  C:4D5BH         LINE#         1487
  C:4D5DH         LINE#         1488
  C:4D5FH         LINE#         1489
  C:4D61H         LINE#         1490
  C:4D63H         LINE#         1491
  C:4D65H         LINE#         1492
  C:4D68H         LINE#         1494
  C:4D69H         LINE#         1495
  C:4D6BH         LINE#         1496
  C:4D6DH         LINE#         1497
  C:4D70H         LINE#         1506
  C:4D73H         LINE#         1507
  C:4D75H         LINE#         1508
  C:4D78H         LINE#         1510
  C:4D7AH         LINE#         1511
  C:4D7CH         LINE#         1512
  C:4D7EH         LINE#         1513
  C:4D81H         LINE#         1515
  C:4D84H         LINE#         1516
  C:4D86H         LINE#         1517
  C:4D88H         LINE#         1518
  C:4D8BH         LINE#         1520
  C:4D8DH         LINE#         1521
  C:4D8FH         LINE#         1522
  C:4D91H         LINE#         1523
  C:4D93H         LINE#         1524
BL51 BANKED LINKER/LOCATER V6.05                                                      09/23/2016  17:07:17  PAGE 102


  C:4D95H         LINE#         1525
  C:4D98H         LINE#         1526
  C:4D99H         LINE#         1528
  C:4D9BH         LINE#         1529
  C:4D9DH         LINE#         1530
  C:4D9FH         LINE#         1538
  C:4DA1H         LINE#         1539
  C:4DA3H         LINE#         1540
  C:4DA5H         LINE#         1541
  C:4DA7H         LINE#         1542
  C:4DA9H         LINE#         1543
  C:4DABH         LINE#         1544
  C:4DADH         LINE#         1545
  C:4DB0H         LINE#         1546
  C:4DB1H         LINE#         1547
  C:4DB3H         LINE#         1548
  C:4DB5H         LINE#         1549
  C:4DB7H         LINE#         1564
  C:4DB9H         LINE#         1565
  C:4DBBH         LINE#         1566
  C:4DBDH         LINE#         1567
  C:4DC0H         LINE#         1569
  C:4DC2H         LINE#         1571
  C:4DC5H         LINE#         1572
  C:4DC7H         LINE#         1573
  C:4DC8H         LINE#         1574
  C:4DCAH         LINE#         1575
  C:4DCCH         LINE#         1578
  C:4DCEH         LINE#         1581
  C:4DD1H         LINE#         1582
  C:4DD3H         LINE#         1583
  C:4DD4H         LINE#         1585
  C:4DD5H         LINE#         1587
  C:4DD8H         LINE#         1588
  C:4DDAH         LINE#         1589
  C:4DDBH         LINE#         1593
  C:4DDDH         LINE#         1594
  C:4DDFH         LINE#         1595
  C:4DE1H         LINE#         1596
  C:4DE3H         LINE#         1597
  C:4DE5H         LINE#         1598
  C:4DE8H         LINE#         1599
  C:4DEAH         LINE#         1600
  C:4DECH         LINE#         1601
  C:4DEEH         LINE#         1602
  C:4DF0H         LINE#         1603
  C:4DF2H         LINE#         1604
  C:4DF5H         LINE#         1605
  C:4DF6H         LINE#         1606
  C:4DF8H         LINE#         1607
  C:4DFAH         LINE#         1608
  C:4DFCH         LINE#         1612
  C:4DFEH         LINE#         1614
  C:4DFFH         LINE#         1618
  C:4E00H         LINE#         1663
  C:4E02H         LINE#         1664
  C:4E04H         LINE#         1665
BL51 BANKED LINKER/LOCATER V6.05                                                      09/23/2016  17:07:17  PAGE 103


  C:4E06H         LINE#         1666
  C:4E08H         LINE#         1667
  C:4E0AH         LINE#         1668
  C:4E0CH         LINE#         1669
  C:4E0FH         LINE#         1670
  C:4E10H         LINE#         1671
  C:4E12H         LINE#         1672
  C:4E14H         LINE#         1673
  C:4E17H         LINE#         1680
  C:4E19H         LINE#         1681
  C:4E1BH         LINE#         1682
  C:4E1DH         LINE#         1683
  C:4E1FH         LINE#         1684
  C:4E21H         LINE#         1685
  C:4E23H         LINE#         1686
  C:4E25H         LINE#         1687
  C:4E28H         LINE#         1688
  C:4E29H         LINE#         1689
  C:4E2BH         LINE#         1690
  C:4E2DH         LINE#         1691
  C:4E30H         LINE#         1697
  C:4E32H         LINE#         1700
  C:4E35H         LINE#         1701
  C:4E37H         LINE#         1702
  C:4E39H         LINE#         1703
  C:4E3CH         LINE#         1704
  C:4E3EH         LINE#         1707
  C:4E40H         LINE#         1708
  C:4E41H         LINE#         1709
  C:4E42H         LINE#         1711
  C:4E44H         LINE#         1712
  C:4E46H         LINE#         1713
  C:4E48H         LINE#         1714
  C:4E4AH         LINE#         1715
  C:4E4CH         LINE#         1716
  C:4E4FH         LINE#         1717
  C:4E51H         LINE#         1719
  C:4E52H         LINE#         1720
  C:4E54H         LINE#         1721
  C:4E56H         LINE#         1722
  C:4E59H         LINE#         1726
  C:4E5BH         LINE#         1727
  C:4E5DH         LINE#         1728
  C:4E5FH         LINE#         1731
  C:4E62H         LINE#         1732
  C:4E64H         LINE#         1733
  C:4E65H         LINE#         1734
  C:4E67H         LINE#         1737
  C:4E69H         LINE#         1738
  C:4E6AH         LINE#         1739
  C:4E6CH         LINE#         1740
  C:4E6EH         LINE#         1741
  C:4E70H         LINE#         1742
  C:4E72H         LINE#         1744
  C:4E75H         LINE#         1746
  C:4E76H         LINE#         1747
  C:4E77H         LINE#         1748
BL51 BANKED LINKER/LOCATER V6.05                                                      09/23/2016  17:07:17  PAGE 104


  C:4E79H         LINE#         1757
  C:4E7BH         LINE#         1759
  C:4E7EH         LINE#         1760
  C:4E80H         LINE#         1761
  C:4E81H         LINE#         1762
  C:4E83H         LINE#         1763
  C:4E85H         LINE#         1764
  C:4E87H         LINE#         1765
  C:4E8AH         LINE#         1771
  C:4E8CH         LINE#         1772
  C:4E8DH         LINE#         1774
  C:4E90H         LINE#         1775
  C:4E92H         LINE#         1776
  C:4E93H         LINE#         1782
  C:4E96H         LINE#         1783
  C:4E98H         LINE#         1784
  C:4E9BH         LINE#         1786
  C:4E9DH         LINE#         1787
  C:4E9FH         LINE#         1788
  C:4EA1H         LINE#         1789
  C:4EA3H         LINE#         1790
  C:4EA6H         LINE#         1791
  C:4EA7H         LINE#         1792
  C:4EA9H         LINE#         1793
  C:4EABH         LINE#         1794
  C:4EAEH         LINE#         1809
  C:4EB0H         LINE#         1810
  C:4EB2H         LINE#         1811
  C:4EB4H         LINE#         1812
  C:4EB7H         LINE#         1813
  C:4EBAH         LINE#         1820
  C:4EBCH         LINE#         1821
  C:4EBEH         LINE#         1822
  C:4EC0H         LINE#         1823
  C:4EC2H         LINE#         1824
  C:4EC4H         LINE#         1825
  C:4EC6H         LINE#         1826
  C:4EC8H         LINE#         1827
  C:4ECBH         LINE#         1828
  C:4ECCH         LINE#         1829
  C:4ECEH         LINE#         1830
  C:4ED0H         LINE#         1831
  C:4ED3H         LINE#         1841
  C:4ED5H         LINE#         1843
  C:4ED8H         LINE#         1844
  C:4EDAH         LINE#         1845
  C:4EDBH         LINE#         1846
  C:4EDDH         LINE#         1849
  C:4EDFH         LINE#         1851
  C:4EE2H         LINE#         1852
  C:4EE4H         LINE#         1853
  C:4EE5H         LINE#         1855
  C:4EE7H         LINE#         1857
  C:4EEAH         LINE#         1858
  C:4EECH         LINE#         1859
  C:4EEDH         LINE#         1861
  C:4EEFH         LINE#         1862
BL51 BANKED LINKER/LOCATER V6.05                                                      09/23/2016  17:07:17  PAGE 105


  C:4EF1H         LINE#         1864
  C:4EF4H         LINE#         1865
  C:4EF6H         LINE#         1866
  C:4EF7H         LINE#         1868
  C:4EF9H         LINE#         1869
  C:4EFBH         LINE#         1870
  C:4EFDH         LINE#         1871
  C:4F00H         LINE#         1882
  C:4F02H         LINE#         1883
  C:4F04H         LINE#         1884
  C:4F06H         LINE#         1885
  C:4F09H         LINE#         1886
  C:4F0CH         LINE#         1889
  C:4F0FH         LINE#         1890
  C:4F11H         LINE#         1891
  C:4F14H         LINE#         1893
  C:4F16H         LINE#         1894
  C:4F18H         LINE#         1895
  C:4F1AH         LINE#         1896
  C:4F1DH         LINE#         1898
  C:4F1FH         LINE#         1899
  C:4F21H         LINE#         1900
  C:4F23H         LINE#         1901
  C:4F25H         LINE#         1903
  C:4F27H         LINE#         1904
  C:4F2AH         LINE#         1905
  C:4F2BH         LINE#         1906
  C:4F2DH         LINE#         1907
  C:4F2FH         LINE#         1908
  C:4F32H         LINE#         1923
  C:4F35H         LINE#         1924
  C:4F37H         LINE#         1925
  C:4F3AH         LINE#         1928
  C:4F3CH         LINE#         1929
  C:4F3EH         LINE#         1931
  C:4F41H         LINE#         1932
  C:4F43H         LINE#         1933
  C:4F44H         LINE#         1934
  C:4F45H         LINE#         1937
  C:4F47H         LINE#         1938
  C:4F49H         LINE#         1939
  C:4F4BH         LINE#         1940
  C:4F4EH         LINE#         1942
  C:4F50H         LINE#         1943
  C:4F52H         LINE#         1944
  C:4F53H         LINE#         1946
  C:4F55H         LINE#         1947
  C:4F57H         LINE#         1949
  C:4F5AH         LINE#         1950
  C:4F5CH         LINE#         1951
  C:4F5DH         LINE#         1952
  C:4F5EH         LINE#         1954
  C:4F60H         LINE#         1955
  C:4F62H         LINE#         1956
  C:4F64H         LINE#         1957
  C:4F66H         LINE#         1958
  C:4F68H         LINE#         1959
BL51 BANKED LINKER/LOCATER V6.05                                                      09/23/2016  17:07:17  PAGE 106


  C:4F6BH         LINE#         1960
  C:4F6CH         LINE#         1961
  C:4F6EH         LINE#         1962
  C:4F70H         LINE#         1963
  C:4F73H         LINE#         1976
  C:4F76H         LINE#         1977
  C:4F78H         LINE#         1978
  C:4F7BH         LINE#         1980
  C:4F7DH         LINE#         1981
  C:4F7FH         LINE#         1983
  C:4F82H         LINE#         1984
  C:4F84H         LINE#         1985
  C:4F85H         LINE#         1986
  C:4F86H         LINE#         1988
  C:4F89H         LINE#         1989
  C:4F8BH         LINE#         1990
  C:4F8DH         LINE#         1991
  C:4F90H         LINE#         1993
  C:4F92H         LINE#         1994
  C:4F94H         LINE#         1995
  C:4F96H         LINE#         1996
  C:4F98H         LINE#         1997
  C:4F9AH         LINE#         1998
  C:4F9DH         LINE#         1999
  C:4F9EH         LINE#         2000
  C:4FA0H         LINE#         2001
  C:4FA2H         LINE#         2002
  C:4FA5H         LINE#         2008
  C:4FA8H         LINE#         2009
  C:4FAAH         LINE#         2010
  C:4FACH         LINE#         2011
  C:4FAFH         LINE#         2012
  C:4FB1H         LINE#         2015
  C:4FB3H         LINE#         2016
  C:4FB5H         LINE#         2018
  C:4FB8H         LINE#         2019
  C:4FBAH         LINE#         2020
  C:4FBBH         LINE#         2026
  C:4FBCH         LINE#         2027
  C:4FBEH         LINE#         2028
  C:4FC0H         LINE#         2029
  C:4FC2H         LINE#         2030
  C:4FC4H         LINE#         2032
  C:4FC7H         LINE#         2034
  C:4FC8H         LINE#         2035
  C:4FCAH         LINE#         2040
  C:4FCCH         LINE#         2041
  C:4FCEH         LINE#         2048
  C:4FD0H         LINE#         2049
  C:4FD2H         LINE#         2050
  C:4FD4H         LINE#         2051
  C:4FD7H         LINE#         2053
  C:4FD9H         LINE#         2055
  C:4FDCH         LINE#         2056
  C:4FDEH         LINE#         2057
  C:4FDFH         LINE#         2059
  C:4FE1H         LINE#         2061
BL51 BANKED LINKER/LOCATER V6.05                                                      09/23/2016  17:07:17  PAGE 107


  C:4FE3H         LINE#         2064
  C:4FE5H         LINE#         2067
  C:4FE8H         LINE#         2068
  C:4FEAH         LINE#         2069
  C:4FEBH         LINE#         2071
  C:4FECH         LINE#         2073
  C:4FEFH         LINE#         2074
  C:4FF1H         LINE#         2075
  C:4FF2H         LINE#         2081
  C:4FF5H         LINE#         2082
  C:4FF7H         LINE#         2083
  C:4FFAH         LINE#         2085
  C:4FFCH         LINE#         2086
  C:4FFEH         LINE#         2088
  C:5001H         LINE#         2089
  C:5003H         LINE#         2090
  C:5004H         LINE#         2091
  C:5005H         LINE#         2094
  C:5007H         LINE#         2095
  C:5009H         LINE#         2096
  C:500BH         LINE#         2097
  C:500EH         LINE#         2099
  C:5010H         LINE#         2100
  C:5012H         LINE#         2101
  C:5014H         LINE#         2102
  C:5016H         LINE#         2104
  C:5018H         LINE#         2105
  C:501BH         LINE#         2106
  C:501CH         LINE#         2108
  C:501EH         LINE#         2109
  C:5020H         LINE#         2110
  C:5022H         LINE#         2113
  C:5024H         LINE#         2114
  C:5025H         LINE#         2117
  C:5026H         LINE#         2128
  C:5029H         LINE#         2129
  C:502CH         LINE#         2132
  C:502FH         LINE#         2133
  C:5031H         LINE#         2134
  C:5032H         LINE#         2135
  C:5034H         LINE#         2137
  C:5037H         LINE#         2138
  C:5039H         LINE#         2139
  C:503AH         LINE#         2140
  C:503CH         LINE#         2142
  C:503FH         LINE#         2143
  C:5041H         LINE#         2144
  C:5042H         LINE#         2145
  C:5043H         LINE#         2146
  C:5044H         LINE#         2147
  C:5046H         LINE#         2149
  C:5047H         LINE#         2164
  C:5049H         LINE#         2165
  C:504BH         LINE#         2166
  C:504DH         LINE#         2167
  C:5050H         LINE#         2168
  C:5053H         LINE#         2169
BL51 BANKED LINKER/LOCATER V6.05                                                      09/23/2016  17:07:17  PAGE 108


  C:5055H         LINE#         2170
  C:5057H         LINE#         2171
  C:5059H         LINE#         2173
  C:505CH         LINE#         2175
  -------         ENDMOD        CARDAPP

  -------         MODULE        CC1101
  C:795DH         SEGMENT       ?PR?CC1101?MATER
  C:0006H         SEGMENT       ?CO?CC1101?FLASHSTR
  C:795DH         PUBLIC        _FUN_CC1101_CZ
  C:796BH         PUBLIC        _FUN_CC1101_IDLE
  C:7960H         PUBLIC        _FUN_CC1101_INIT
  C:7961H         PUBLIC        _FUN_CC1101_RESET
  C:7964H         PUBLIC        _FUN_CC1101_RVOFF
  C:7963H         PUBLIC        _FUN_CC1101_RVON
  C:7968H         PUBLIC        _FUN_CC1101_RVWR
  C:796AH         PUBLIC        _FUN_CC1101_RVWR02
  C:796DH         PUBLIC        _FUN_CC1101_RX
  C:7962H         PUBLIC        _FUN_CC1101_SETWAKEUPTIME
  C:7971H         PUBLIC        _FUN_CC1101_SPIOSOFTRXCC1101RXCC1101
  C:796CH         PUBLIC        _FUN_CC1101_WAKEUP
  N:009CH         SYMBOL        BRT
  B:0020H.0       SYMBOL        BUSY
  N:0000H         SYMBOL        CC1101
  C:796DH         SYMBOL        CC1101_RX_OVER
  C:7970H         SYMBOL        CC1101_RX_RESET
  N:00FAH         SYMBOL        CCAP0H
  N:00EAH         SYMBOL        CCAP0L
  N:00FBH         SYMBOL        CCAP1H
  N:00EBH         SYMBOL        CCAP1L
  N:00FCH         SYMBOL        CCAP2H
  N:00ECH         SYMBOL        CCAP2L
  N:00FDH         SYMBOL        CCAP3H
  N:00EDH         SYMBOL        CCAP3L
  N:00FEH         SYMBOL        CCAP4H
  N:00EEH         SYMBOL        CCAP4L
  N:00FFH         SYMBOL        CCAP5H
  N:00EFH         SYMBOL        CCAP5L
  N:00DAH         SYMBOL        CCAPM0
  N:00DBH         SYMBOL        CCAPM1
  N:00DCH         SYMBOL        CCAPM2
  N:00DDH         SYMBOL        CCAPM3
  N:00DEH         SYMBOL        CCAPM4
  N:00DFH         SYMBOL        CCAPM5
  B:00D8H.0       SYMBOL        CCF0
  B:00D8H.1       SYMBOL        CCF1
  B:00D8H.2       SYMBOL        CCF2
  B:00D8H.3       SYMBOL        CCF3
  B:00D8H.4       SYMBOL        CCF4
  B:00D8H.5       SYMBOL        CCF5
  N:00D8H         SYMBOL        CCON
  B:00D8H.7       SYMBOL        CF
  N:00F9H         SYMBOL        CH
  N:00E9H         SYMBOL        CL
  N:00D9H         SYMBOL        CMOD
  N:0002H         SYMBOL        CONST_ACTIONTYPE_GETRAND
  N:0000H         SYMBOL        CONST_ACTIONTYPE_GETSECURE
BL51 BANKED LINKER/LOCATER V6.05                                                      09/23/2016  17:07:17  PAGE 109


  N:0004H         SYMBOL        CONST_ACTIONTYPE_SETMMI
  N:0001H         SYMBOL        CONST_ACTIONTYPE_SETSECURE
  N:0003H         SYMBOL        CONST_ACTIONTYPE_TRANSFERCHANNEL
  N:0003H         SYMBOL        CONST_ACT_H
  N:0001H         SYMBOL        CONST_ACT_H_H
  N:0000H         SYMBOL        CONST_ACT_H_L
  N:0001H         SYMBOL        CONST_ACT_L
  N:0006H         SYMBOL        CONST_ACT_L_H
  N:000AH         SYMBOL        CONST_ACT_L_L
  N:0002H         SYMBOL        CONST_ACT_M
  N:0000H         SYMBOL        CONST_ACT_M_H
  N:0006H         SYMBOL        CONST_ACT_M_L
  N:0002H         SYMBOL        CONST_ACT_V
  N:0002H         SYMBOL        CONST_BAUD_115200
  N:0003H         SYMBOL        CONST_BAUD_115200PC
  N:0004H         SYMBOL        CONST_BAUD_230000
  N:0001H         SYMBOL        CONST_BAUD_38400
  N:0005H         SYMBOL        CONST_BAUD_38400PC
  N:0000H         SYMBOL        CONST_BAUD_9600
  N:0006H         SYMBOL        CONST_BAUD_9600PC
  N:000CH         SYMBOL        CONST_BAUD_BITFULL12
  N:000EH         SYMBOL        CONST_BAUD_BITFULL20
  N:0010H         SYMBOL        CONST_BAUD_BITFULL28
  N:000BH         SYMBOL        CONST_BAUD_BITFULL8
  N:000CH         SYMBOL        CONST_BAUD_BITHALF12
  N:00B3H         SYMBOL        CONST_BAUD_CURRENTBITFULL
  N:0058H         SYMBOL        CONST_BAUD_CURRENTBITHALF
  N:001DH         SYMBOL        CONST_BAUD_FULL115200
  N:000FH         SYMBOL        CONST_BAUD_FULL230000
  N:005DH         SYMBOL        CONST_BAUD_FULL38400
  N:00B3H         SYMBOL        CONST_BAUD_FULL9600
  N:000DH         SYMBOL        CONST_BAUD_HALF115200
  N:0008H         SYMBOL        CONST_BAUD_HALF230000
  N:002DH         SYMBOL        CONST_BAUD_HALF38400
  N:0058H         SYMBOL        CONST_BAUD_HALF9600
  N:00F8H         SYMBOL        CONST_BAUD_HAND115200
  N:00F3H         SYMBOL        CONST_BAUD_HAND115200PC
  N:00FCH         SYMBOL        CONST_BAUD_HAND230000
  N:00E9H         SYMBOL        CONST_BAUD_HAND38400
  N:00D8H         SYMBOL        CONST_BAUD_HAND38400PC
  N:00A3H         SYMBOL        CONST_BAUD_HAND9600
  N:0060H         SYMBOL        CONST_BAUD_HAND9600PC
  N:00FFH         SYMBOL        CONST_BLACK_H
  N:00FFH         SYMBOL        CONST_BLACK_L
  N:0014H         SYMBOL        CONST_BLUETOOTH_WORKTIME
  N:0020H         SYMBOL        CONST_BSTLIMIT
  N:0064H         SYMBOL        CONST_BSTLIMIT02
  N:0016H         SYMBOL        CONST_CARD_CONSUME
  N:0017H         SYMBOL        CONST_CARD_PASS
  N:0000H         SYMBOL        CONST_CELLFILE_H
  N:0009H         SYMBOL        CONST_CELLFILE_L
  N:0001H         SYMBOL        CONST_DPH_NORMAL
  N:0001H         SYMBOL        CONST_DPH_ONE
  N:0003H         SYMBOL        CONST_DPH_SERX
  N:0000H         SYMBOL        CONST_DPH_SETX
  N:0003H         SYMBOL        CONST_DPH_THREE
  N:0002H         SYMBOL        CONST_DPH_TWO
BL51 BANKED LINKER/LOCATER V6.05                                                      09/23/2016  17:07:17  PAGE 110


  N:0000H         SYMBOL        CONST_DPH_ZERO
  N:0007H         SYMBOL        CONST_DSRC_ACTION
  N:0009H         SYMBOL        CONST_DSRC_ACTIONTYPE
  N:0001H         SYMBOL        CONST_DSRC_CHANNELIDICC
  N:0002H         SYMBOL        CONST_DSRC_CHANNELIDSAM
  N:000AH         SYMBOL        CONST_DSRC_CONTAIN
  N:0008H         SYMBOL        CONST_DSRC_DID
  N:0000H         SYMBOL        CONST_DSRC_FILDIDAPPKEY
  N:0002H         SYMBOL        CONST_DSRC_FILDIDCONSUME
  N:0003H         SYMBOL        CONST_DSRC_FILDIDHOLD
  N:0001H         SYMBOL        CONST_DSRC_FILDIDVEHICLE
  N:000BH         SYMBOL        CONST_DSRC_FILL
  N:0006H         SYMBOL        CONST_DSRC_HEAD
  N:0005H         SYMBOL        CONST_DSRC_LLCCTRL
  N:0004H         SYMBOL        CONST_DSRC_MACCTRL
  N:0003H         SYMBOL        CONST_ETC_INPUT
  N:0002H         SYMBOL        CONST_FALSH_PREFLAG02H
  N:00F4H         SYMBOL        CONST_FALSH_PREFLAG02L
  N:0002H         SYMBOL        CONST_FALSH_PREFLAG03H
  N:00F5H         SYMBOL        CONST_FALSH_PREFLAG03L
  N:0002H         SYMBOL        CONST_FALSH_PREFLAG04H
  N:00F6H         SYMBOL        CONST_FALSH_PREFLAG04L
  N:0002H         SYMBOL        CONST_FALSH_PREFLAGH
  N:00F3H         SYMBOL        CONST_FALSH_PREFLAGL
  N:0001H         SYMBOL        CONST_FALSH_PREFLAGLEN
  N:0004H         SYMBOL        CONST_FLASHADD_BEACONIDUNIXTIMEH
  N:0000H         SYMBOL        CONST_FLASHADD_BEACONIDUNIXTIMEL
  N:0002H         SYMBOL        CONST_FLASH_0002H
  N:0058H         SYMBOL        CONST_FLASH_0002L
  N:0004H         SYMBOL        CONST_FLASH_0002LEN
  N:0002H         SYMBOL        CONST_FLASH_0012H
  N:005CH         SYMBOL        CONST_FLASH_0012L
  N:0028H         SYMBOL        CONST_FLASH_0012LEN
  N:0002H         SYMBOL        CONST_FLASH_0015H
  N:0084H         SYMBOL        CONST_FLASH_0015L
  N:0032H         SYMBOL        CONST_FLASH_0015LEN
  N:002BH         SYMBOL        CONST_FLASH_0015LENOLD
  N:002BH         SYMBOL        CONST_FLASH_0019GBLEN
  N:0002H         SYMBOL        CONST_FLASH_0019H
  N:00B6H         SYMBOL        CONST_FLASH_0019L
  N:003CH         SYMBOL        CONST_FLASH_0019LEN
  N:003FH         SYMBOL        CONST_FLASH_0019NEWGDLEN
  N:0004H         SYMBOL        CONST_FLASH_BEACONIDUNIXTIMEH
  N:0000H         SYMBOL        CONST_FLASH_BEACONIDUNIXTIMEL
  N:0008H         SYMBOL        CONST_FLASH_BEACONIDUNIXTIMELEN
  N:0002H         SYMBOL        CONST_FLASH_BLOCK01
  N:0001H         SYMBOL        CONST_FLASH_CARDTYPELEN
  N:00F3H         SYMBOL        CONST_FLASH_FILELEN
  N:0002H         SYMBOL        CONST_FLASH_LASTCARDH
  N:00F2H         SYMBOL        CONST_FLASH_LASTCARDL
  N:0002H         SYMBOL        CONST_FLASH_STARTHIGH
  N:0000H         SYMBOL        CONST_FLASH_STARTLOW
  N:0002H         SYMBOL        CONST_FLASH_SYSINFOH
  N:0000H         SYMBOL        CONST_FLASH_SYSINFOL
  N:0058H         SYMBOL        CONST_FLASH_SYSINFOLEN
  N:0002H         SYMBOL        CONST_GDO2_MCSM2
  N:0046H         SYMBOL        CONST_GDO2_VALUE
BL51 BANKED LINKER/LOCATER V6.05                                                      09/23/2016  17:07:17  PAGE 111


  N:00F0H         SYMBOL        CONST_GSM_MAXNUM
  N:0008H         SYMBOL        CONST_GSM_NUM
  N:0014H         SYMBOL        CONST_GSM_PJNUM
  N:0015H         SYMBOL        CONST_HANDSECOND
  N:0002H         SYMBOL        CONST_LHX_FLAG
  N:0005H         SYMBOL        CONST_MAX_RXNUM
  N:0008H         SYMBOL        CONST_MCU_WKCTH
  N:00FFH         SYMBOL        CONST_MCU_WKCTL
  N:0002H         SYMBOL        CONST_MF_DECREMENT
  N:0003H         SYMBOL        CONST_MF_INCREMENT
  N:00C0H         SYMBOL        CONST_MF_RC500DECREMENT
  N:00C1H         SYMBOL        CONST_MF_RC500INCREMENT
  N:0000H         SYMBOL        CONST_MF_READ
  N:0004H         SYMBOL        CONST_MF_RESTOR
  N:0001H         SYMBOL        CONST_MF_WRITE
  N:0001H         SYMBOL        CONST_MTC_INPUT
  N:0018H         SYMBOL        CONST_PPS_115200
  N:0096H         SYMBOL        CONST_PPS_230000
  N:0013H         SYMBOL        CONST_PPS_38400
  N:0010H         SYMBOL        CONST_PPS_9600
  N:0001H         SYMBOL        CONST_PRO_4SPEED
  N:00FAH         SYMBOL        CONST_PRO_OVERTIME2S
  N:0090H         SYMBOL        CONST_RTCOVERFLOW
  N:00FFH         SYMBOL        CONST_RTC_OFF
  N:0055H         SYMBOL        CONST_RTC_ON
  N:000AH         SYMBOL        CONST_SE_CHANNEL
  N:0000H         SYMBOL        CONST_SE_RXBUF
  N:0000H         SYMBOL        CONST_SE_TXBUF
  N:0000H         SYMBOL        CONST_SOF
  N:0014H         SYMBOL        CONST_SOFTBYTESP
  N:0010H         SYMBOL        CONST_SOFTFIRSTSCANTIME
  N:00FFH         SYMBOL        CONST_SOFTFIRSTSCANTIMEXX
  N:0070H         SYMBOL        CONST_SOFTSECOND
  N:000CH         SYMBOL        CONST_SSRC_FID
  N:0007H         SYMBOL        CONST_STATE_5823INIER
  N:0008H         SYMBOL        CONST_STATE_5823SLEEPER
  N:0003H         SYMBOL        CONST_STATE_ACCEPTOVER
  N:0004H         SYMBOL        CONST_STATE_ACCEPTOVERLEN
  N:0006H         SYMBOL        CONST_STATE_ACTCARDINVALID
  N:0004H         SYMBOL        CONST_STATE_ACTIVEFAIL
  N:0006H         SYMBOL        CONST_STATE_AUTHER
  N:001DH         SYMBOL        CONST_STATE_BASE01ANTICOLL
  N:0015H         SYMBOL        CONST_STATE_BASE01CONTACT
  N:0014H         SYMBOL        CONST_STATE_BASE01ESAMDF01
  N:001FH         SYMBOL        CONST_STATE_BASE01RATS
  N:001CH         SYMBOL        CONST_STATE_BASE01RE
  N:001EH         SYMBOL        CONST_STATE_BASE01SEL
  N:0019H         SYMBOL        CONST_STATE_BASE02ANTICOLL
  N:0016H         SYMBOL        CONST_STATE_BASE02CONTACT
  N:001BH         SYMBOL        CONST_STATE_BASE02RATS
  N:0018H         SYMBOL        CONST_STATE_BASE02RE
  N:001AH         SYMBOL        CONST_STATE_BASE02SEL
  N:000BH         SYMBOL        CONST_STATE_BASEESAMDF01
  N:0013H         SYMBOL        CONST_STATE_BASEN01INIT
  N:000AH         SYMBOL        CONST_STATE_BASENINIT
  N:000DH         SYMBOL        CONST_STATE_CARDPREDEAL0002
  N:000EH         SYMBOL        CONST_STATE_CARDPREDEAL0012
BL51 BANKED LINKER/LOCATER V6.05                                                      09/23/2016  17:07:17  PAGE 112


  N:000FH         SYMBOL        CONST_STATE_CARDPREDEAL0015
  N:0010H         SYMBOL        CONST_STATE_CARDPREDEAL0019
  N:000CH         SYMBOL        CONST_STATE_CARDPREDEAL1001
  N:0011H         SYMBOL        CONST_STATE_CARDPREDEAL3F00
  N:0012H         SYMBOL        CONST_STATE_CARDPREDEAL81
  N:0023H         SYMBOL        CONST_STATE_ESAMER
  N:0021H         SYMBOL        CONST_STATE_EXMEMORYER
  N:0022H         SYMBOL        CONST_STATE_EXMEMORYER02
  N:00FFH         SYMBOL        CONST_STATE_FALSE
  N:0009H         SYMBOL        CONST_STATE_GETSECURESELFILEER
  N:0005H         SYMBOL        CONST_STATE_ILLEGALACTCARD
  N:0002H         SYMBOL        CONST_STATE_ILLEGALINPUTCARD
  N:0003H         SYMBOL        CONST_STATE_INPUTCARDINVALID
  N:0001H         SYMBOL        CONST_STATE_INPUTFAIL
  N:0020H         SYMBOL        CONST_STATE_MEMORYER
  N:0005H         SYMBOL        CONST_STATE_RSTCPUER
  N:0001H         SYMBOL        CONST_STATE_SERIALACCPET
  N:0002H         SYMBOL        CONST_STATE_SERIALOVERTIME
  N:0017H         SYMBOL        CONST_STATE_TEST
  N:0000H         SYMBOL        CONST_STATE_TRUE
  N:0055H         SYMBOL        CONST_SYS_55
  N:00AAH         SYMBOL        CONST_SYS_AA
  N:0004H         SYMBOL        CONST_SYS_OBUIDLEN
  N:000AH         SYMBOL        CONST_SYS_POWERONTIMER
  N:0088H         SYMBOL        CONST_SYS_PREFLAG
  N:0064H         SYMBOL        CONST_SYS_RTCOVERTIME
  N:00FFH         SYMBOL        CONST_SYS_TRADECONFINE
  N:0001H         SYMBOL        CONST_TIMEER02
  N:00FEH         SYMBOL        CONST_TIMEER03
  N:0001H         SYMBOL        CONST_TIMEER04
  N:00FFH         SYMBOL        CONST_VSTLIMIT
  N:0000H         SYMBOL        CONST_WHITE_H
  N:0031H         SYMBOL        CONST_WHITE_L
  N:0000H         SYMBOL        CONST_WORKSTAION_0
  N:0001H         SYMBOL        CONST_WORKSTAION_1
  N:0002H         SYMBOL        CONST_WORKSTAION_2
  N:0003H         SYMBOL        CONST_WORKSTAION_3
  N:0000H         SYMBOL        CONST_XDATA_TXBUF02
  N:0080H         SYMBOL        CONST_XDATA_TXBUF02LEN
  B:00D8H.6       SYMBOL        CR
  B:00A8H.6       SYMBOL        EPCAI
  B:00A8H.6       SYMBOL        EPCA_LVD
  D:00A8H         SYMBOL        IE
  N:00AFH         SYMBOL        IE2
  N:00B7H         SYMBOL        IPH
  N:00C7H         SYMBOL        ISP_CONTR
  D:0080H         SYMBOL        P0
  D:0090H         SYMBOL        P1
  D:00A0H         SYMBOL        P2
  D:00B0H         SYMBOL        P3
  N:00C0H         SYMBOL        P4
  N:00F2H         SYMBOL        PCA_PWM0
  N:00F3H         SYMBOL        PCA_PWM1
  N:00F4H         SYMBOL        PCA_PWM2
  N:00F5H         SYMBOL        PCA_PWM3
  N:00F6H         SYMBOL        PCA_PWM4
  N:00F7H         SYMBOL        PCA_PWM5
BL51 BANKED LINKER/LOCATER V6.05                                                      09/23/2016  17:07:17  PAGE 113


  B:0080H.4       SYMBOL        PIN_522_MISO
  B:0080H.5       SYMBOL        PIN_522_MOSI
  B:00C0H.6       SYMBOL        PIN_522_RST
  B:0080H.7       SYMBOL        PIN_522_SCLK
  B:0080H.6       SYMBOL        PIN_522_SS
  B:0090H.0       SYMBOL        PIN_5823BK_CS
  B:0090H.2       SYMBOL        PIN_5823BK_IRQ
  B:0080H.0       SYMBOL        PIN_5823BK_MISO
  B:0080H.1       SYMBOL        PIN_5823BK_MOSI
  B:00C0H.2       SYMBOL        PIN_5823BK_SCLK
  B:0080H.3       SYMBOL        PIN_BELL_01
  B:0080H.2       SYMBOL        PIN_BELL_02
  B:0090H.1       SYMBOL        PIN_BK_CE
  B:00B0H.3       SYMBOL        PIN_CARD_EXIST
  B:0090H.6       SYMBOL        PIN_CC1101_GDO2
  B:00B0H.7       SYMBOL        PIN_CC1101_MISO
  B:00A0H.3       SYMBOL        PIN_CC1101_MOSI
  B:00A0H.2       SYMBOL        PIN_CC1101_SCLK
  B:00B0H.6       SYMBOL        PIN_CC1101_SS
  B:00A0H.5       SYMBOL        PIN_ESAM_RST
  B:00A0H.6       SYMBOL        PIN_ESAM_RX
  B:00A0H.6       SYMBOL        PIN_ESAM_TX
  B:00C0H.5       SYMBOL        PIN_GRE
  B:0090H.4       SYMBOL        PIN_LCD_CS
  B:0090H.7       SYMBOL        PIN_LCD_DC
  B:0090H.5       SYMBOL        PIN_LCD_RST
  B:00B0H.4       SYMBOL        PIN_LCD_SCL
  B:00C0H.3       SYMBOL        PIN_LCD_SDA
  B:00A0H.7       SYMBOL        PIN_PWRDWN
  B:0090H.3       SYMBOL        PIN_PWRDWN_LCD
  B:00A0H.4       SYMBOL        PIN_PWR_GSM
  B:00A0H.1       SYMBOL        PIN_PWR_LOWIO
  B:00C0H.1       SYMBOL        PIN_RED
  B:00B0H.0       SYMBOL        PIN_SOFTSERIALRX
  B:00B0H.1       SYMBOL        PIN_SOFTSERIALTXH
  B:00B0H.5       SYMBOL        PIN_UNFIX
  B:00A0H.0       SYMBOL        PIN_WAVE_CHANNEL1
  N:00C0H         SYMBOL        READ_BURST
  N:00A2H         SYMBOL        REG_51_AUXR1
  N:008EH         SYMBOL        REG_5412AD_AUXR
  N:0094H         SYMBOL        REG_5412AD_P0M0
  N:0093H         SYMBOL        REG_5412AD_P0M1
  N:0092H         SYMBOL        REG_5412AD_P1M0
  N:0091H         SYMBOL        REG_5412AD_P1M1
  N:0096H         SYMBOL        REG_5412AD_P2M0
  N:0095H         SYMBOL        REG_5412AD_P2M1
  N:00B2H         SYMBOL        REG_5412AD_P3M0
  N:00B1H         SYMBOL        REG_5412AD_P3M1
  N:00B4H         SYMBOL        REG_5412AD_P4M0
  N:00B3H         SYMBOL        REG_5412AD_P4M1
  N:00BBH         SYMBOL        REG_5412AD_P4SW
  N:0085H         SYMBOL        REG_5412AD_SPCTL
  N:0086H         SYMBOL        REG_5412AD_SPDAT
  N:0084H         SYMBOL        REG_5412AD_SPSTAT
  N:00ABH         SYMBOL        REG_MCU_WKCTH
  N:00AAH         SYMBOL        REG_MCU_WKCTL
  N:000DH         SYMBOL        REG_RC522_BITFRAMINGREG
BL51 BANKED LINKER/LOCATER V6.05                                                      09/23/2016  17:07:17  PAGE 114


  N:000EH         SYMBOL        REG_RC522_COLLREG
  N:0002H         SYMBOL        REG_RC522_COMIENREG
  N:0004H         SYMBOL        REG_RC522_COMIRQREG
  N:0001H         SYMBOL        REG_RC522_COMMANDREG
  N:000CH         SYMBOL        REG_RC522_CONTROLREG
  N:0021H         SYMBOL        REG_RC522_CRCRESULTREGH
  N:0022H         SYMBOL        REG_RC522_CRCRESULTREGL
  N:0028H         SYMBOL        REG_RC522_CWGSPREG
  N:0019H         SYMBOL        REG_RC522_DEMODREG
  N:0003H         SYMBOL        REG_RC522_DIVIENREG
  N:0005H         SYMBOL        REG_RC522_DIVIRQREG
  N:0006H         SYMBOL        REG_RC522_ERRORREG
  N:0009H         SYMBOL        REG_RC522_FIFODATAREG
  N:000AH         SYMBOL        REG_RC522_FIFOLEVELREG
  N:0027H         SYMBOL        REG_RC522_GSNREG
  N:001CH         SYMBOL        REG_RC522_MIFAREREG
  N:0011H         SYMBOL        REG_RC522_MODEREG
  N:0029H         SYMBOL        REG_RC522_MODGSPREG
  N:0024H         SYMBOL        REG_RC522_MODWIDTHREG
  N:0000H         SYMBOL        REG_RC522_RC522PAGE
  N:0026H         SYMBOL        REG_RC522_RFCFGREG
  N:000FH         SYMBOL        REG_RC522_RFU
  N:0013H         SYMBOL        REG_RC522_RXMODEREG
  N:0017H         SYMBOL        REG_RC522_RXSELREG
  N:0018H         SYMBOL        REG_RC522_RXTHRESHOLDREG
  N:001FH         SYMBOL        REG_RC522_SERIALSPEEDREG
  N:0007H         SYMBOL        REG_RC522_STATUS1REG
  N:0008H         SYMBOL        REG_RC522_STATUS2REG
  N:002EH         SYMBOL        REG_RC522_TCOUNTERVALUEREGH
  N:002FH         SYMBOL        REG_RC522_TCOUNTERVALUEREGL
  N:002AH         SYMBOL        REG_RC522_TMODEREG
  N:002BH         SYMBOL        REG_RC522_TPRESCALERREG
  N:002CH         SYMBOL        REG_RC522_TRELOADREGH
  N:002DH         SYMBOL        REG_RC522_TRELOADREGL
  N:0015H         SYMBOL        REG_RC522_TXAUTOREG
  N:0014H         SYMBOL        REG_RC522_TXCONTROLREG
  N:0012H         SYMBOL        REG_RC522_TXMODEREG
  N:0016H         SYMBOL        REG_RC522_TXSELREG
  N:000BH         SYMBOL        REG_RC522_WATERLEVELREG
  N:009CH         SYMBOL        REG_SYS_BRT
  N:008FH         SYMBOL        REG_WAKECLK0
  B:00D8H.4       SYMBOL        REG_WAKECLK_04
  B:00D8H.5       SYMBOL        REG_WAKECLK_05
  N:00C1H         SYMBOL        REG_WDT_CONTR
  N:00EAH         SYMBOL        RELOAD2_CONTR
  N:009BH         SYMBOL        S2BUF
  N:009AH         SYMBOL        S2CON
  C:0006H         SYMBOL        STR_CC1101_INPUT
  N:0009H         SYMBOL        TI_CCXXX0_ADDR
  N:001DH         SYMBOL        TI_CCXXX0_AGCCTRL0
  N:001CH         SYMBOL        TI_CCXXX0_AGCCTRL1
  N:001BH         SYMBOL        TI_CCXXX0_AGCCTRL2
  N:002BH         SYMBOL        TI_CCXXX0_AGCTEST
  N:001AH         SYMBOL        TI_CCXXX0_BSCFG
  N:000AH         SYMBOL        TI_CCXXX0_CHANNR
  N:0015H         SYMBOL        TI_CCXXX0_DEVIATN
  N:0003H         SYMBOL        TI_CCXXX0_FIFOTHR
BL51 BANKED LINKER/LOCATER V6.05                                                      09/23/2016  17:07:17  PAGE 115


  N:0019H         SYMBOL        TI_CCXXX0_FOCCFG
  N:0022H         SYMBOL        TI_CCXXX0_FREND0
  N:0021H         SYMBOL        TI_CCXXX0_FREND1
  N:000FH         SYMBOL        TI_CCXXX0_FREQ0
  N:000EH         SYMBOL        TI_CCXXX0_FREQ1
  N:000DH         SYMBOL        TI_CCXXX0_FREQ2
  N:0032H         SYMBOL        TI_CCXXX0_FREQEST
  N:0026H         SYMBOL        TI_CCXXX0_FSCAL0
  N:0025H         SYMBOL        TI_CCXXX0_FSCAL1
  N:0024H         SYMBOL        TI_CCXXX0_FSCAL2
  N:0023H         SYMBOL        TI_CCXXX0_FSCAL3
  N:000CH         SYMBOL        TI_CCXXX0_FSCTRL0
  N:000BH         SYMBOL        TI_CCXXX0_FSCTRL1
  N:0029H         SYMBOL        TI_CCXXX0_FSTEST
  N:0002H         SYMBOL        TI_CCXXX0_IOCFG0
  N:0001H         SYMBOL        TI_CCXXX0_IOCFG1
  N:0000H         SYMBOL        TI_CCXXX0_IOCFG2
  N:0033H         SYMBOL        TI_CCXXX0_LQI
  N:0035H         SYMBOL        TI_CCXXX0_MARCSTATE
  N:0018H         SYMBOL        TI_CCXXX0_MCSM0
  N:0017H         SYMBOL        TI_CCXXX0_MCSM1
  N:0016H         SYMBOL        TI_CCXXX0_MCSM2
  N:0014H         SYMBOL        TI_CCXXX0_MDMCFG0
  N:0013H         SYMBOL        TI_CCXXX0_MDMCFG1
  N:0012H         SYMBOL        TI_CCXXX0_MDMCFG2
  N:0011H         SYMBOL        TI_CCXXX0_MDMCFG3
  N:0010H         SYMBOL        TI_CCXXX0_MDMCFG4
  N:007FH         SYMBOL        TI_CCXXX0_NUM_RXBYTES
  N:0030H         SYMBOL        TI_CCXXX0_PARTNUM
  N:003EH         SYMBOL        TI_CCXXX0_PATABLE
  N:0008H         SYMBOL        TI_CCXXX0_PKTCTRL0
  N:0007H         SYMBOL        TI_CCXXX0_PKTCTRL1
  N:0006H         SYMBOL        TI_CCXXX0_PKTLEN
  N:0038H         SYMBOL        TI_CCXXX0_PKTSTATUS
  N:002AH         SYMBOL        TI_CCXXX0_PTEST
  N:0028H         SYMBOL        TI_CCXXX0_RCCTRL0
  N:0027H         SYMBOL        TI_CCXXX0_RCCTRL1
  N:0034H         SYMBOL        TI_CCXXX0_RSSI
  N:003BH         SYMBOL        TI_CCXXX0_RXBYTES
  N:003FH         SYMBOL        TI_CCXXX0_RXFIFO
  N:0037H         SYMBOL        TI_CCXXX0_SAFC
  N:0033H         SYMBOL        TI_CCXXX0_SCAL
  N:003AH         SYMBOL        TI_CCXXX0_SFRX
  N:003BH         SYMBOL        TI_CCXXX0_SFTX
  N:0036H         SYMBOL        TI_CCXXX0_SIDLE
  N:003DH         SYMBOL        TI_CCXXX0_SNOP
  N:0039H         SYMBOL        TI_CCXXX0_SPWD
  N:0030H         SYMBOL        TI_CCXXX0_SRES
  N:0034H         SYMBOL        TI_CCXXX0_SRX
  N:0035H         SYMBOL        TI_CCXXX0_STX
  N:0038H         SYMBOL        TI_CCXXX0_SWOR
  N:003CH         SYMBOL        TI_CCXXX0_SWORRST
  N:0032H         SYMBOL        TI_CCXXX0_SXOFF
  N:0005H         SYMBOL        TI_CCXXX0_SYNC0
  N:0004H         SYMBOL        TI_CCXXX0_SYNC1
  N:002EH         SYMBOL        TI_CCXXX0_TEST0
  N:002DH         SYMBOL        TI_CCXXX0_TEST1
BL51 BANKED LINKER/LOCATER V6.05                                                      09/23/2016  17:07:17  PAGE 116


  N:002CH         SYMBOL        TI_CCXXX0_TEST2
  N:003AH         SYMBOL        TI_CCXXX0_TXBYTES
  N:003FH         SYMBOL        TI_CCXXX0_TXFIFO
  N:0039H         SYMBOL        TI_CCXXX0_VCO_VC_DAC
  N:0031H         SYMBOL        TI_CCXXX0_VERSION
  N:0020H         SYMBOL        TI_CCXXX0_WORCTRL
  N:001FH         SYMBOL        TI_CCXXX0_WOREVT0
  N:001EH         SYMBOL        TI_CCXXX0_WOREVT1
  N:0037H         SYMBOL        TI_CCXXX0_WORTIME0
  N:0036H         SYMBOL        TI_CCXXX0_WORTIME1
  N:008FH         SYMBOL        WAKE_CLKO
  B:00B0H.2       SYMBOL        WKO_BK
  C:7965H         SYMBOL        _FUN_CC1101_ERR
  C:7969H         SYMBOL        _FUN_CC1101_ERR02
  C:795FH         SYMBOL        _FUN_CC1101_SPIOSINGLESOFT
  C:795EH         SYMBOL        _FUN_CC1101_SPIOSOFT
  C:795DH         LINE#         28
  C:795EH         LINE#         42
  C:795FH         LINE#         54
  C:7960H         LINE#         66
  C:7961H         LINE#         77
  C:7962H         LINE#         88
  C:7963H         LINE#         99
  C:7964H         LINE#         110
  C:7965H         LINE#         145
  C:7968H         LINE#         148
  C:7969H         LINE#         152
  C:796AH         LINE#         155
  C:796BH         LINE#         168
  C:796CH         LINE#         179
  C:796DH         LINE#         199
  C:7970H         LINE#         203
  C:7971H         LINE#         223
  -------         ENDMOD        CC1101

  -------         MODULE        CONTACT
  C:6804H         SEGMENT       ?PR?CONTACT?MATER
  C:6AF2H         PUBLIC        _FUN_CONTACT_CHANGEBAUD
  C:6924H         PUBLIC        _FUN_CONTACT_CHANNEL
  C:692AH         PUBLIC        _FUN_CONTACT_CHANNEL0
  C:6929H         PUBLIC        _FUN_CONTACT_CHANNEL1
  C:6804H         PUBLIC        _FUN_CONTACT_INIT
  C:6B54H         PUBLIC        _FUN_CONTACT_PPS
  C:6B7BH         PUBLIC        _FUN_TESTCONTACT_CHANNEL0
  D:00E0H         SYMBOL        ACC
  N:009CH         SYMBOL        BRT
  B:0020H.0       SYMBOL        BUSY
  N:00FAH         SYMBOL        CCAP0H
  N:00EAH         SYMBOL        CCAP0L
  N:00FBH         SYMBOL        CCAP1H
  N:00EBH         SYMBOL        CCAP1L
  N:00FCH         SYMBOL        CCAP2H
  N:00ECH         SYMBOL        CCAP2L
  N:00FDH         SYMBOL        CCAP3H
  N:00EDH         SYMBOL        CCAP3L
  N:00FEH         SYMBOL        CCAP4H
  N:00EEH         SYMBOL        CCAP4L
BL51 BANKED LINKER/LOCATER V6.05                                                      09/23/2016  17:07:17  PAGE 117


  N:00FFH         SYMBOL        CCAP5H
  N:00EFH         SYMBOL        CCAP5L
  N:00DAH         SYMBOL        CCAPM0
  N:00DBH         SYMBOL        CCAPM1
  N:00DCH         SYMBOL        CCAPM2
  N:00DDH         SYMBOL        CCAPM3
  N:00DEH         SYMBOL        CCAPM4
  N:00DFH         SYMBOL        CCAPM5
  B:00D8H.0       SYMBOL        CCF0
  B:00D8H.1       SYMBOL        CCF1
  B:00D8H.2       SYMBOL        CCF2
  B:00D8H.3       SYMBOL        CCF3
  B:00D8H.4       SYMBOL        CCF4
  B:00D8H.5       SYMBOL        CCF5
  N:00D8H         SYMBOL        CCON
  B:00D8H.7       SYMBOL        CF
  N:00F9H         SYMBOL        CH
  N:00E9H         SYMBOL        CL
  N:00D9H         SYMBOL        CMOD
  N:0002H         SYMBOL        CONST_ACTIONTYPE_GETRAND
  N:0000H         SYMBOL        CONST_ACTIONTYPE_GETSECURE
  N:0004H         SYMBOL        CONST_ACTIONTYPE_SETMMI
  N:0001H         SYMBOL        CONST_ACTIONTYPE_SETSECURE
  N:0003H         SYMBOL        CONST_ACTIONTYPE_TRANSFERCHANNEL
  N:0003H         SYMBOL        CONST_ACT_H
  N:0001H         SYMBOL        CONST_ACT_H_H
  N:0000H         SYMBOL        CONST_ACT_H_L
  N:0001H         SYMBOL        CONST_ACT_L
  N:0006H         SYMBOL        CONST_ACT_L_H
  N:000AH         SYMBOL        CONST_ACT_L_L
  N:0002H         SYMBOL        CONST_ACT_M
  N:0000H         SYMBOL        CONST_ACT_M_H
  N:0006H         SYMBOL        CONST_ACT_M_L
  N:0002H         SYMBOL        CONST_ACT_V
  N:0002H         SYMBOL        CONST_BAUD_115200
  N:0003H         SYMBOL        CONST_BAUD_115200PC
  N:0004H         SYMBOL        CONST_BAUD_230000
  N:0001H         SYMBOL        CONST_BAUD_38400
  N:0005H         SYMBOL        CONST_BAUD_38400PC
  N:0000H         SYMBOL        CONST_BAUD_9600
  N:0006H         SYMBOL        CONST_BAUD_9600PC
  N:000CH         SYMBOL        CONST_BAUD_BITFULL12
  N:000EH         SYMBOL        CONST_BAUD_BITFULL20
  N:0010H         SYMBOL        CONST_BAUD_BITFULL28
  N:000BH         SYMBOL        CONST_BAUD_BITFULL8
  N:000CH         SYMBOL        CONST_BAUD_BITHALF12
  N:00B3H         SYMBOL        CONST_BAUD_CURRENTBITFULL
  N:0058H         SYMBOL        CONST_BAUD_CURRENTBITHALF
  N:001DH         SYMBOL        CONST_BAUD_FULL115200
  N:000FH         SYMBOL        CONST_BAUD_FULL230000
  N:005DH         SYMBOL        CONST_BAUD_FULL38400
  N:00B3H         SYMBOL        CONST_BAUD_FULL9600
  N:000DH         SYMBOL        CONST_BAUD_HALF115200
  N:0008H         SYMBOL        CONST_BAUD_HALF230000
  N:002DH         SYMBOL        CONST_BAUD_HALF38400
  N:0058H         SYMBOL        CONST_BAUD_HALF9600
  N:00F8H         SYMBOL        CONST_BAUD_HAND115200
BL51 BANKED LINKER/LOCATER V6.05                                                      09/23/2016  17:07:17  PAGE 118


  N:00F3H         SYMBOL        CONST_BAUD_HAND115200PC
  N:00FCH         SYMBOL        CONST_BAUD_HAND230000
  N:00E9H         SYMBOL        CONST_BAUD_HAND38400
  N:00D8H         SYMBOL        CONST_BAUD_HAND38400PC
  N:00A3H         SYMBOL        CONST_BAUD_HAND9600
  N:0060H         SYMBOL        CONST_BAUD_HAND9600PC
  N:00FFH         SYMBOL        CONST_BLACK_H
  N:00FFH         SYMBOL        CONST_BLACK_L
  N:0014H         SYMBOL        CONST_BLUETOOTH_WORKTIME
  N:0020H         SYMBOL        CONST_BSTLIMIT
  N:0064H         SYMBOL        CONST_BSTLIMIT02
  N:0016H         SYMBOL        CONST_CARD_CONSUME
  N:0017H         SYMBOL        CONST_CARD_PASS
  N:0000H         SYMBOL        CONST_CELLFILE_H
  N:0009H         SYMBOL        CONST_CELLFILE_L
  N:0001H         SYMBOL        CONST_DPH_NORMAL
  N:0001H         SYMBOL        CONST_DPH_ONE
  N:0003H         SYMBOL        CONST_DPH_SERX
  N:0000H         SYMBOL        CONST_DPH_SETX
  N:0003H         SYMBOL        CONST_DPH_THREE
  N:0002H         SYMBOL        CONST_DPH_TWO
  N:0000H         SYMBOL        CONST_DPH_ZERO
  N:0007H         SYMBOL        CONST_DSRC_ACTION
  N:0009H         SYMBOL        CONST_DSRC_ACTIONTYPE
  N:0001H         SYMBOL        CONST_DSRC_CHANNELIDICC
  N:0002H         SYMBOL        CONST_DSRC_CHANNELIDSAM
  N:000AH         SYMBOL        CONST_DSRC_CONTAIN
  N:0008H         SYMBOL        CONST_DSRC_DID
  N:0000H         SYMBOL        CONST_DSRC_FILDIDAPPKEY
  N:0002H         SYMBOL        CONST_DSRC_FILDIDCONSUME
  N:0003H         SYMBOL        CONST_DSRC_FILDIDHOLD
  N:0001H         SYMBOL        CONST_DSRC_FILDIDVEHICLE
  N:000BH         SYMBOL        CONST_DSRC_FILL
  N:0006H         SYMBOL        CONST_DSRC_HEAD
  N:0005H         SYMBOL        CONST_DSRC_LLCCTRL
  N:0004H         SYMBOL        CONST_DSRC_MACCTRL
  N:0003H         SYMBOL        CONST_ETC_INPUT
  N:0002H         SYMBOL        CONST_FALSH_PREFLAG02H
  N:00F4H         SYMBOL        CONST_FALSH_PREFLAG02L
  N:0002H         SYMBOL        CONST_FALSH_PREFLAG03H
  N:00F5H         SYMBOL        CONST_FALSH_PREFLAG03L
  N:0002H         SYMBOL        CONST_FALSH_PREFLAG04H
  N:00F6H         SYMBOL        CONST_FALSH_PREFLAG04L
  N:0002H         SYMBOL        CONST_FALSH_PREFLAGH
  N:00F3H         SYMBOL        CONST_FALSH_PREFLAGL
  N:0001H         SYMBOL        CONST_FALSH_PREFLAGLEN
  N:0004H         SYMBOL        CONST_FLASHADD_BEACONIDUNIXTIMEH
  N:0000H         SYMBOL        CONST_FLASHADD_BEACONIDUNIXTIMEL
  N:0002H         SYMBOL        CONST_FLASH_0002H
  N:0058H         SYMBOL        CONST_FLASH_0002L
  N:0004H         SYMBOL        CONST_FLASH_0002LEN
  N:0002H         SYMBOL        CONST_FLASH_0012H
  N:005CH         SYMBOL        CONST_FLASH_0012L
  N:0028H         SYMBOL        CONST_FLASH_0012LEN
  N:0002H         SYMBOL        CONST_FLASH_0015H
  N:0084H         SYMBOL        CONST_FLASH_0015L
  N:0032H         SYMBOL        CONST_FLASH_0015LEN
BL51 BANKED LINKER/LOCATER V6.05                                                      09/23/2016  17:07:17  PAGE 119


  N:002BH         SYMBOL        CONST_FLASH_0015LENOLD
  N:002BH         SYMBOL        CONST_FLASH_0019GBLEN
  N:0002H         SYMBOL        CONST_FLASH_0019H
  N:00B6H         SYMBOL        CONST_FLASH_0019L
  N:003CH         SYMBOL        CONST_FLASH_0019LEN
  N:003FH         SYMBOL        CONST_FLASH_0019NEWGDLEN
  N:0004H         SYMBOL        CONST_FLASH_BEACONIDUNIXTIMEH
  N:0000H         SYMBOL        CONST_FLASH_BEACONIDUNIXTIMEL
  N:0008H         SYMBOL        CONST_FLASH_BEACONIDUNIXTIMELEN
  N:0002H         SYMBOL        CONST_FLASH_BLOCK01
  N:0001H         SYMBOL        CONST_FLASH_CARDTYPELEN
  N:00F3H         SYMBOL        CONST_FLASH_FILELEN
  N:0002H         SYMBOL        CONST_FLASH_LASTCARDH
  N:00F2H         SYMBOL        CONST_FLASH_LASTCARDL
  N:0002H         SYMBOL        CONST_FLASH_STARTHIGH
  N:0000H         SYMBOL        CONST_FLASH_STARTLOW
  N:0002H         SYMBOL        CONST_FLASH_SYSINFOH
  N:0000H         SYMBOL        CONST_FLASH_SYSINFOL
  N:0058H         SYMBOL        CONST_FLASH_SYSINFOLEN
  N:0002H         SYMBOL        CONST_GDO2_MCSM2
  N:0046H         SYMBOL        CONST_GDO2_VALUE
  N:00F0H         SYMBOL        CONST_GSM_MAXNUM
  N:0008H         SYMBOL        CONST_GSM_NUM
  N:0014H         SYMBOL        CONST_GSM_PJNUM
  N:0015H         SYMBOL        CONST_HANDSECOND
  N:0002H         SYMBOL        CONST_LHX_FLAG
  N:0005H         SYMBOL        CONST_MAX_RXNUM
  N:0008H         SYMBOL        CONST_MCU_WKCTH
  N:00FFH         SYMBOL        CONST_MCU_WKCTL
  N:0002H         SYMBOL        CONST_MF_DECREMENT
  N:0003H         SYMBOL        CONST_MF_INCREMENT
  N:00C0H         SYMBOL        CONST_MF_RC500DECREMENT
  N:00C1H         SYMBOL        CONST_MF_RC500INCREMENT
  N:0000H         SYMBOL        CONST_MF_READ
  N:0004H         SYMBOL        CONST_MF_RESTOR
  N:0001H         SYMBOL        CONST_MF_WRITE
  N:0001H         SYMBOL        CONST_MTC_INPUT
  N:0018H         SYMBOL        CONST_PPS_115200
  N:0096H         SYMBOL        CONST_PPS_230000
  N:0013H         SYMBOL        CONST_PPS_38400
  N:0010H         SYMBOL        CONST_PPS_9600
  N:0001H         SYMBOL        CONST_PRO_4SPEED
  N:00FAH         SYMBOL        CONST_PRO_OVERTIME2S
  N:0090H         SYMBOL        CONST_RTCOVERFLOW
  N:00FFH         SYMBOL        CONST_RTC_OFF
  N:0055H         SYMBOL        CONST_RTC_ON
  N:000AH         SYMBOL        CONST_SE_CHANNEL
  N:0000H         SYMBOL        CONST_SE_RXBUF
  N:0000H         SYMBOL        CONST_SE_TXBUF
  N:0000H         SYMBOL        CONST_SOF
  N:0014H         SYMBOL        CONST_SOFTBYTESP
  N:0010H         SYMBOL        CONST_SOFTFIRSTSCANTIME
  N:00FFH         SYMBOL        CONST_SOFTFIRSTSCANTIMEXX
  N:0070H         SYMBOL        CONST_SOFTSECOND
  N:000CH         SYMBOL        CONST_SSRC_FID
  N:0007H         SYMBOL        CONST_STATE_5823INIER
  N:0008H         SYMBOL        CONST_STATE_5823SLEEPER
BL51 BANKED LINKER/LOCATER V6.05                                                      09/23/2016  17:07:17  PAGE 120


  N:0003H         SYMBOL        CONST_STATE_ACCEPTOVER
  N:0004H         SYMBOL        CONST_STATE_ACCEPTOVERLEN
  N:0006H         SYMBOL        CONST_STATE_ACTCARDINVALID
  N:0004H         SYMBOL        CONST_STATE_ACTIVEFAIL
  N:0006H         SYMBOL        CONST_STATE_AUTHER
  N:001DH         SYMBOL        CONST_STATE_BASE01ANTICOLL
  N:0015H         SYMBOL        CONST_STATE_BASE01CONTACT
  N:0014H         SYMBOL        CONST_STATE_BASE01ESAMDF01
  N:001FH         SYMBOL        CONST_STATE_BASE01RATS
  N:001CH         SYMBOL        CONST_STATE_BASE01RE
  N:001EH         SYMBOL        CONST_STATE_BASE01SEL
  N:0019H         SYMBOL        CONST_STATE_BASE02ANTICOLL
  N:0016H         SYMBOL        CONST_STATE_BASE02CONTACT
  N:001BH         SYMBOL        CONST_STATE_BASE02RATS
  N:0018H         SYMBOL        CONST_STATE_BASE02RE
  N:001AH         SYMBOL        CONST_STATE_BASE02SEL
  N:000BH         SYMBOL        CONST_STATE_BASEESAMDF01
  N:0013H         SYMBOL        CONST_STATE_BASEN01INIT
  N:000AH         SYMBOL        CONST_STATE_BASENINIT
  N:000DH         SYMBOL        CONST_STATE_CARDPREDEAL0002
  N:000EH         SYMBOL        CONST_STATE_CARDPREDEAL0012
  N:000FH         SYMBOL        CONST_STATE_CARDPREDEAL0015
  N:0010H         SYMBOL        CONST_STATE_CARDPREDEAL0019
  N:000CH         SYMBOL        CONST_STATE_CARDPREDEAL1001
  N:0011H         SYMBOL        CONST_STATE_CARDPREDEAL3F00
  N:0012H         SYMBOL        CONST_STATE_CARDPREDEAL81
  N:0023H         SYMBOL        CONST_STATE_ESAMER
  N:0021H         SYMBOL        CONST_STATE_EXMEMORYER
  N:0022H         SYMBOL        CONST_STATE_EXMEMORYER02
  N:00FFH         SYMBOL        CONST_STATE_FALSE
  N:0009H         SYMBOL        CONST_STATE_GETSECURESELFILEER
  N:0005H         SYMBOL        CONST_STATE_ILLEGALACTCARD
  N:0002H         SYMBOL        CONST_STATE_ILLEGALINPUTCARD
  N:0003H         SYMBOL        CONST_STATE_INPUTCARDINVALID
  N:0001H         SYMBOL        CONST_STATE_INPUTFAIL
  N:0020H         SYMBOL        CONST_STATE_MEMORYER
  N:0005H         SYMBOL        CONST_STATE_RSTCPUER
  N:0001H         SYMBOL        CONST_STATE_SERIALACCPET
  N:0002H         SYMBOL        CONST_STATE_SERIALOVERTIME
  N:0017H         SYMBOL        CONST_STATE_TEST
  N:0000H         SYMBOL        CONST_STATE_TRUE
  N:0055H         SYMBOL        CONST_SYS_55
  N:00AAH         SYMBOL        CONST_SYS_AA
  N:0004H         SYMBOL        CONST_SYS_OBUIDLEN
  N:000AH         SYMBOL        CONST_SYS_POWERONTIMER
  N:0088H         SYMBOL        CONST_SYS_PREFLAG
  N:0064H         SYMBOL        CONST_SYS_RTCOVERTIME
  N:00FFH         SYMBOL        CONST_SYS_TRADECONFINE
  N:0001H         SYMBOL        CONST_TIMEER02
  N:00FEH         SYMBOL        CONST_TIMEER03
  N:0001H         SYMBOL        CONST_TIMEER04
  N:00FFH         SYMBOL        CONST_VSTLIMIT
  N:0000H         SYMBOL        CONST_WHITE_H
  N:0031H         SYMBOL        CONST_WHITE_L
  N:0000H         SYMBOL        CONST_WORKSTAION_0
  N:0001H         SYMBOL        CONST_WORKSTAION_1
  N:0002H         SYMBOL        CONST_WORKSTAION_2
BL51 BANKED LINKER/LOCATER V6.05                                                      09/23/2016  17:07:17  PAGE 121


  N:0003H         SYMBOL        CONST_WORKSTAION_3
  N:0000H         SYMBOL        CONST_XDATA_TXBUF02
  N:0080H         SYMBOL        CONST_XDATA_TXBUF02LEN
  N:0000H         SYMBOL        CONTACT
  C:6B16H         SYMBOL        CONTACT_CHANGEBAUD115200
  C:6B28H         SYMBOL        CONTACT_CHANGEBAUD115200PC
  C:6B32H         SYMBOL        CONTACT_CHANGEBAUD230000
  C:6B04H         SYMBOL        CONTACT_CHANGEBAUD38400
  C:6B44H         SYMBOL        CONTACT_CHANGEBAUD38400PC
  C:6B4EH         SYMBOL        CONTACT_CHANGEBAUD9600PC
  C:6B53H         SYMBOL        CONTACT_CHANGEBAUD_OVER
  C:6A22H         SYMBOL        CONTACT_CHANNEL0_61LEN
  C:698CH         SYMBOL        CONTACT_CHANNEL0_CMDERR
  C:69C9H         SYMBOL        CONTACT_CHANNEL0_CMDOK
  C:6988H         SYMBOL        CONTACT_CHANNEL0_CMDSTATE
  C:6AE6H         SYMBOL        CONTACT_CHANNEL0_ERR
  C:6AEBH         SYMBOL        CONTACT_CHANNEL0_ERR001
  C:6AF0H         SYMBOL        CONTACT_CHANNEL0_ERR002
  C:69E9H         SYMBOL        CONTACT_CHANNEL0_ESAM02
  C:6A91H         SYMBOL        CONTACT_CHANNEL0_ESAM03
  C:6A77H         SYMBOL        CONTACT_CHANNEL0_ESAM0RXC0
  C:696EH         SYMBOL        CONTACT_CHANNEL0_ESAM0RXCMD
  C:6ABCH         SYMBOL        CONTACT_CHANNEL0_ESAMLE
  C:6A4DH         SYMBOL        CONTACT_CHANNEL0_GETC0
  C:6AE5H         SYMBOL        CONTACT_CHANNEL0_GETOVER
  C:6A28H         SYMBOL        CONTACT_CHANNEL0_GETRESULT
  C:6A3BH         SYMBOL        CONTACT_CHANNEL0_GETRESULTRX
  C:6A40H         SYMBOL        CONTACT_CHANNEL0_GETRESULTRX02
  C:69D2H         SYMBOL        CONTACT_CHANNEL0_MODE1
  C:6AB9H         SYMBOL        CONTACT_CHANNEL0_MODE2
  C:6ADAH         SYMBOL        CONTACT_CHANNEL0_MODEOVER
  C:6ADAH         SYMBOL        CONTACT_CHANNEL0_OVER
  C:695BH         SYMBOL        CONTACT_CHANNEL0_RX1
  C:6A11H         SYMBOL        CONTACT_CHANNEL0_RX61RIGHT
  C:6A85H         SYMBOL        CONTACT_CHANNEL0_RXC0
  C:6A74H         SYMBOL        CONTACT_CHANNEL0_RXC00
  C:6A8EH         SYMBOL        CONTACT_CHANNEL0_RXC0OK
  C:697CH         SYMBOL        CONTACT_CHANNEL0_RXCMD
  C:695FH         SYMBOL        CONTACT_CHANNEL0_RXOTHER
  C:6969H         SYMBOL        CONTACT_CHANNEL0_RXOVER
  C:6A09H         SYMBOL        CONTACT_CHANNEL0_RXOVER02
  C:6AADH         SYMBOL        CONTACT_CHANNEL0_RXOVER03
  C:69A4H         SYMBOL        CONTACT_CHANNEL0_RXSW2OK
  C:69C6H         SYMBOL        CONTACT_CHANNEL0_RXSW2OKOV
  C:693CH         SYMBOL        CONTACT_CHANNEL0_START
  C:69FAH         SYMBOL        CONTACT_CHANNEL0_USERCARD02
  C:6AA0H         SYMBOL        CONTACT_CHANNEL0_USERCARD03
  C:6A82H         SYMBOL        CONTACT_CHANNEL0_USERCARDRXC0
  C:6979H         SYMBOL        CONTACT_CHANNEL0_USERCARDRXCMD
  C:6ACBH         SYMBOL        CONTACT_CHANNEL0_USERLE
  C:691FH         SYMBOL        CONTACT_INIT_ERR
  C:6865H         SYMBOL        CONTACT_INIT_ERR02
  C:6807H         SYMBOL        CONTACT_INIT_ESAM
  C:687EH         SYMBOL        CONTACT_INIT_HEAD
  C:6890H         SYMBOL        CONTACT_INIT_OVER
  C:68A3H         SYMBOL        CONTACT_INIT_READCTRL
  C:6868H         SYMBOL        CONTACT_INIT_RSTDEAL
BL51 BANKED LINKER/LOCATER V6.05                                                      09/23/2016  17:07:17  PAGE 122


  C:6821H         SYMBOL        CONTACT_INIT_USERCARD
  C:6871H         SYMBOL        CONTACT_INIT_ZERO
  C:6929H         SYMBOL        CONTACT_OPRET1_40
  C:6929H         SYMBOL        CONTACT_OPRET1_ESAM
  C:6929H         SYMBOL        CONTACT_OPRET1_NUM
  C:6929H         SYMBOL        CONTACT_OPRET1_OVER
  C:6929H         SYMBOL        CONTACT_OPRET1_RXOVER
  C:6929H         SYMBOL        CONTACT_OPRET1_SENDBCC
  C:6929H         SYMBOL        CONTACT_OPRET1_USERCARD
  C:6929H         SYMBOL        CONTACT_OPRET1_VALIDATEBCC
  C:6B63H         SYMBOL        CONTACT_PPS_OVER
  C:6B5EH         SYMBOL        CONTACT_PPS_T0
  C:6B5EH         SYMBOL        CONTACT_PPS_T1
  B:00D8H.6       SYMBOL        CR
  D:0083H         SYMBOL        DPH
  D:0082H         SYMBOL        DPL
  B:00A8H.6       SYMBOL        EPCAI
  B:00A8H.6       SYMBOL        EPCA_LVD
  D:00A8H         SYMBOL        IE
  N:00AFH         SYMBOL        IE2
  N:00B7H         SYMBOL        IPH
  N:00C7H         SYMBOL        ISP_CONTR
  D:0080H         SYMBOL        P0
  D:0090H         SYMBOL        P1
  D:00A0H         SYMBOL        P2
  D:00B0H         SYMBOL        P3
  N:00C0H         SYMBOL        P4
  N:00F2H         SYMBOL        PCA_PWM0
  N:00F3H         SYMBOL        PCA_PWM1
  N:00F4H         SYMBOL        PCA_PWM2
  N:00F5H         SYMBOL        PCA_PWM3
  N:00F6H         SYMBOL        PCA_PWM4
  N:00F7H         SYMBOL        PCA_PWM5
  B:0080H.4       SYMBOL        PIN_522_MISO
  B:0080H.5       SYMBOL        PIN_522_MOSI
  B:00C0H.6       SYMBOL        PIN_522_RST
  B:0080H.7       SYMBOL        PIN_522_SCLK
  B:0080H.6       SYMBOL        PIN_522_SS
  B:0090H.0       SYMBOL        PIN_5823BK_CS
  B:0090H.2       SYMBOL        PIN_5823BK_IRQ
  B:0080H.0       SYMBOL        PIN_5823BK_MISO
  B:0080H.1       SYMBOL        PIN_5823BK_MOSI
  B:00C0H.2       SYMBOL        PIN_5823BK_SCLK
  B:0080H.3       SYMBOL        PIN_BELL_01
  B:0080H.2       SYMBOL        PIN_BELL_02
  B:0090H.1       SYMBOL        PIN_BK_CE
  B:00B0H.3       SYMBOL        PIN_CARD_EXIST
  B:0090H.6       SYMBOL        PIN_CC1101_GDO2
  B:00B0H.7       SYMBOL        PIN_CC1101_MISO
  B:00A0H.3       SYMBOL        PIN_CC1101_MOSI
  B:00A0H.2       SYMBOL        PIN_CC1101_SCLK
  B:00B0H.6       SYMBOL        PIN_CC1101_SS
  B:00A0H.5       SYMBOL        PIN_ESAM_RST
  B:00A0H.6       SYMBOL        PIN_ESAM_RX
  B:00A0H.6       SYMBOL        PIN_ESAM_TX
  B:00C0H.5       SYMBOL        PIN_GRE
  B:0090H.4       SYMBOL        PIN_LCD_CS
BL51 BANKED LINKER/LOCATER V6.05                                                      09/23/2016  17:07:17  PAGE 123


  B:0090H.7       SYMBOL        PIN_LCD_DC
  B:0090H.5       SYMBOL        PIN_LCD_RST
  B:00B0H.4       SYMBOL        PIN_LCD_SCL
  B:00C0H.3       SYMBOL        PIN_LCD_SDA
  B:00A0H.7       SYMBOL        PIN_PWRDWN
  B:0090H.3       SYMBOL        PIN_PWRDWN_LCD
  B:00A0H.4       SYMBOL        PIN_PWR_GSM
  B:00A0H.1       SYMBOL        PIN_PWR_LOWIO
  B:00C0H.1       SYMBOL        PIN_RED
  B:00B0H.0       SYMBOL        PIN_SOFTSERIALRX
  B:00B0H.1       SYMBOL        PIN_SOFTSERIALTXH
  B:00B0H.5       SYMBOL        PIN_UNFIX
  B:00A0H.0       SYMBOL        PIN_WAVE_CHANNEL1
  N:00C0H         SYMBOL        READ_BURST
  N:00A2H         SYMBOL        REG_51_AUXR1
  N:008EH         SYMBOL        REG_5412AD_AUXR
  N:0094H         SYMBOL        REG_5412AD_P0M0
  N:0093H         SYMBOL        REG_5412AD_P0M1
  N:0092H         SYMBOL        REG_5412AD_P1M0
  N:0091H         SYMBOL        REG_5412AD_P1M1
  N:0096H         SYMBOL        REG_5412AD_P2M0
  N:0095H         SYMBOL        REG_5412AD_P2M1
  N:00B2H         SYMBOL        REG_5412AD_P3M0
  N:00B1H         SYMBOL        REG_5412AD_P3M1
  N:00B4H         SYMBOL        REG_5412AD_P4M0
  N:00B3H         SYMBOL        REG_5412AD_P4M1
  N:00BBH         SYMBOL        REG_5412AD_P4SW
  N:0085H         SYMBOL        REG_5412AD_SPCTL
  N:0086H         SYMBOL        REG_5412AD_SPDAT
  N:0084H         SYMBOL        REG_5412AD_SPSTAT
  N:00ABH         SYMBOL        REG_MCU_WKCTH
  N:00AAH         SYMBOL        REG_MCU_WKCTL
  N:000DH         SYMBOL        REG_RC522_BITFRAMINGREG
  N:000EH         SYMBOL        REG_RC522_COLLREG
  N:0002H         SYMBOL        REG_RC522_COMIENREG
  N:0004H         SYMBOL        REG_RC522_COMIRQREG
  N:0001H         SYMBOL        REG_RC522_COMMANDREG
  N:000CH         SYMBOL        REG_RC522_CONTROLREG
  N:0021H         SYMBOL        REG_RC522_CRCRESULTREGH
  N:0022H         SYMBOL        REG_RC522_CRCRESULTREGL
  N:0028H         SYMBOL        REG_RC522_CWGSPREG
  N:0019H         SYMBOL        REG_RC522_DEMODREG
  N:0003H         SYMBOL        REG_RC522_DIVIENREG
  N:0005H         SYMBOL        REG_RC522_DIVIRQREG
  N:0006H         SYMBOL        REG_RC522_ERRORREG
  N:0009H         SYMBOL        REG_RC522_FIFODATAREG
  N:000AH         SYMBOL        REG_RC522_FIFOLEVELREG
  N:0027H         SYMBOL        REG_RC522_GSNREG
  N:001CH         SYMBOL        REG_RC522_MIFAREREG
  N:0011H         SYMBOL        REG_RC522_MODEREG
  N:0029H         SYMBOL        REG_RC522_MODGSPREG
  N:0024H         SYMBOL        REG_RC522_MODWIDTHREG
  N:0000H         SYMBOL        REG_RC522_RC522PAGE
  N:0026H         SYMBOL        REG_RC522_RFCFGREG
  N:000FH         SYMBOL        REG_RC522_RFU
  N:0013H         SYMBOL        REG_RC522_RXMODEREG
  N:0017H         SYMBOL        REG_RC522_RXSELREG
BL51 BANKED LINKER/LOCATER V6.05                                                      09/23/2016  17:07:17  PAGE 124


  N:0018H         SYMBOL        REG_RC522_RXTHRESHOLDREG
  N:001FH         SYMBOL        REG_RC522_SERIALSPEEDREG
  N:0007H         SYMBOL        REG_RC522_STATUS1REG
  N:0008H         SYMBOL        REG_RC522_STATUS2REG
  N:002EH         SYMBOL        REG_RC522_TCOUNTERVALUEREGH
  N:002FH         SYMBOL        REG_RC522_TCOUNTERVALUEREGL
  N:002AH         SYMBOL        REG_RC522_TMODEREG
  N:002BH         SYMBOL        REG_RC522_TPRESCALERREG
  N:002CH         SYMBOL        REG_RC522_TRELOADREGH
  N:002DH         SYMBOL        REG_RC522_TRELOADREGL
  N:0015H         SYMBOL        REG_RC522_TXAUTOREG
  N:0014H         SYMBOL        REG_RC522_TXCONTROLREG
  N:0012H         SYMBOL        REG_RC522_TXMODEREG
  N:0016H         SYMBOL        REG_RC522_TXSELREG
  N:000BH         SYMBOL        REG_RC522_WATERLEVELREG
  N:009CH         SYMBOL        REG_SYS_BRT
  N:008FH         SYMBOL        REG_WAKECLK0
  B:00D8H.4       SYMBOL        REG_WAKECLK_04
  B:00D8H.5       SYMBOL        REG_WAKECLK_05
  N:00C1H         SYMBOL        REG_WDT_CONTR
  N:00EAH         SYMBOL        RELOAD2_CONTR
  N:009BH         SYMBOL        S2BUF
  N:009AH         SYMBOL        S2CON
  C:6B7DH         SYMBOL        TESTCONTACT_CHANNEL0_ERR
  N:0009H         SYMBOL        TI_CCXXX0_ADDR
  N:001DH         SYMBOL        TI_CCXXX0_AGCCTRL0
  N:001CH         SYMBOL        TI_CCXXX0_AGCCTRL1
  N:001BH         SYMBOL        TI_CCXXX0_AGCCTRL2
  N:002BH         SYMBOL        TI_CCXXX0_AGCTEST
  N:001AH         SYMBOL        TI_CCXXX0_BSCFG
  N:000AH         SYMBOL        TI_CCXXX0_CHANNR
  N:0015H         SYMBOL        TI_CCXXX0_DEVIATN
  N:0003H         SYMBOL        TI_CCXXX0_FIFOTHR
  N:0019H         SYMBOL        TI_CCXXX0_FOCCFG
  N:0022H         SYMBOL        TI_CCXXX0_FREND0
  N:0021H         SYMBOL        TI_CCXXX0_FREND1
  N:000FH         SYMBOL        TI_CCXXX0_FREQ0
  N:000EH         SYMBOL        TI_CCXXX0_FREQ1
  N:000DH         SYMBOL        TI_CCXXX0_FREQ2
  N:0032H         SYMBOL        TI_CCXXX0_FREQEST
  N:0026H         SYMBOL        TI_CCXXX0_FSCAL0
  N:0025H         SYMBOL        TI_CCXXX0_FSCAL1
  N:0024H         SYMBOL        TI_CCXXX0_FSCAL2
  N:0023H         SYMBOL        TI_CCXXX0_FSCAL3
  N:000CH         SYMBOL        TI_CCXXX0_FSCTRL0
  N:000BH         SYMBOL        TI_CCXXX0_FSCTRL1
  N:0029H         SYMBOL        TI_CCXXX0_FSTEST
  N:0002H         SYMBOL        TI_CCXXX0_IOCFG0
  N:0001H         SYMBOL        TI_CCXXX0_IOCFG1
  N:0000H         SYMBOL        TI_CCXXX0_IOCFG2
  N:0033H         SYMBOL        TI_CCXXX0_LQI
  N:0035H         SYMBOL        TI_CCXXX0_MARCSTATE
  N:0018H         SYMBOL        TI_CCXXX0_MCSM0
  N:0017H         SYMBOL        TI_CCXXX0_MCSM1
  N:0016H         SYMBOL        TI_CCXXX0_MCSM2
  N:0014H         SYMBOL        TI_CCXXX0_MDMCFG0
  N:0013H         SYMBOL        TI_CCXXX0_MDMCFG1
BL51 BANKED LINKER/LOCATER V6.05                                                      09/23/2016  17:07:17  PAGE 125


  N:0012H         SYMBOL        TI_CCXXX0_MDMCFG2
  N:0011H         SYMBOL        TI_CCXXX0_MDMCFG3
  N:0010H         SYMBOL        TI_CCXXX0_MDMCFG4
  N:007FH         SYMBOL        TI_CCXXX0_NUM_RXBYTES
  N:0030H         SYMBOL        TI_CCXXX0_PARTNUM
  N:003EH         SYMBOL        TI_CCXXX0_PATABLE
  N:0008H         SYMBOL        TI_CCXXX0_PKTCTRL0
  N:0007H         SYMBOL        TI_CCXXX0_PKTCTRL1
  N:0006H         SYMBOL        TI_CCXXX0_PKTLEN
  N:0038H         SYMBOL        TI_CCXXX0_PKTSTATUS
  N:002AH         SYMBOL        TI_CCXXX0_PTEST
  N:0028H         SYMBOL        TI_CCXXX0_RCCTRL0
  N:0027H         SYMBOL        TI_CCXXX0_RCCTRL1
  N:0034H         SYMBOL        TI_CCXXX0_RSSI
  N:003BH         SYMBOL        TI_CCXXX0_RXBYTES
  N:003FH         SYMBOL        TI_CCXXX0_RXFIFO
  N:0037H         SYMBOL        TI_CCXXX0_SAFC
  N:0033H         SYMBOL        TI_CCXXX0_SCAL
  N:003AH         SYMBOL        TI_CCXXX0_SFRX
  N:003BH         SYMBOL        TI_CCXXX0_SFTX
  N:0036H         SYMBOL        TI_CCXXX0_SIDLE
  N:003DH         SYMBOL        TI_CCXXX0_SNOP
  N:0039H         SYMBOL        TI_CCXXX0_SPWD
  N:0030H         SYMBOL        TI_CCXXX0_SRES
  N:0034H         SYMBOL        TI_CCXXX0_SRX
  N:0035H         SYMBOL        TI_CCXXX0_STX
  N:0038H         SYMBOL        TI_CCXXX0_SWOR
  N:003CH         SYMBOL        TI_CCXXX0_SWORRST
  N:0032H         SYMBOL        TI_CCXXX0_SXOFF
  N:0005H         SYMBOL        TI_CCXXX0_SYNC0
  N:0004H         SYMBOL        TI_CCXXX0_SYNC1
  N:002EH         SYMBOL        TI_CCXXX0_TEST0
  N:002DH         SYMBOL        TI_CCXXX0_TEST1
  N:002CH         SYMBOL        TI_CCXXX0_TEST2
  N:003AH         SYMBOL        TI_CCXXX0_TXBYTES
  N:003FH         SYMBOL        TI_CCXXX0_TXFIFO
  N:0039H         SYMBOL        TI_CCXXX0_VCO_VC_DAC
  N:0031H         SYMBOL        TI_CCXXX0_VERSION
  N:0020H         SYMBOL        TI_CCXXX0_WORCTRL
  N:001FH         SYMBOL        TI_CCXXX0_WOREVT0
  N:001EH         SYMBOL        TI_CCXXX0_WOREVT1
  N:0037H         SYMBOL        TI_CCXXX0_WORTIME0
  N:0036H         SYMBOL        TI_CCXXX0_WORTIME1
  N:008FH         SYMBOL        WAKE_CLKO
  B:00B0H.2       SYMBOL        WKO_BK
  C:68AEH         SYMBOL        _CPUCARDRESCTL1
  C:68CBH         SYMBOL        _CPUCARDRESCTL1_READBAUD
  C:68D5H         SYMBOL        _CPUCARDRESCTL2
  C:68E8H         SYMBOL        _CPUCARDRESCTL2_READBAUD
  C:68ECH         SYMBOL        _CPUCARDRESDAT
  C:68EEH         SYMBOL        _CPUCARDRESDAT1
  C:68FEH         SYMBOL        _CPUCARDRESDAT1_READBAUD
  C:68FEH         SYMBOL        _CPUCARDRESDAT2
  C:690BH         SYMBOL        _CPUCARDRESDAT3
  C:6926H         SYMBOL        _FUN_CONTACT_CHANNEL1EX
  C:6804H         LINE#         36
  C:6807H         LINE#         41
BL51 BANKED LINKER/LOCATER V6.05                                                      09/23/2016  17:07:17  PAGE 126


  C:6809H         LINE#         42
  C:680BH         LINE#         43
  C:680EH         LINE#         44
  C:6810H         LINE#         47
  C:6812H         LINE#         48
  C:6814H         LINE#         49
  C:6816H         LINE#         50
  C:6818H         LINE#         51
  C:681AH         LINE#         52
  C:681DH         LINE#         60
  C:681FH         LINE#         61
  C:6821H         LINE#         65
  C:6823H         LINE#         71
  C:6825H         LINE#         72
  C:6827H         LINE#         73
  C:6829H         LINE#         74
  C:682BH         LINE#         75
  C:682DH         LINE#         76
  C:682FH         LINE#         77
  C:6831H         LINE#         78
  C:6833H         LINE#         79
  C:6835H         LINE#         80
  C:6837H         LINE#         81
  C:6839H         LINE#         82
  C:683BH         LINE#         83
  C:683DH         LINE#         84
  C:683FH         LINE#         85
  C:6841H         LINE#         86
  C:6843H         LINE#         87
  C:6845H         LINE#         88
  C:6847H         LINE#         89
  C:6849H         LINE#         90
  C:684BH         LINE#         100
  C:684DH         LINE#         101
  C:684FH         LINE#         102
  C:6851H         LINE#         103
  C:6853H         LINE#         104
  C:6855H         LINE#         111
  C:6858H         LINE#         112
  C:6859H         LINE#         113
  C:685BH         LINE#         114
  C:685CH         LINE#         115
  C:685EH         LINE#         116
  C:6860H         LINE#         117
  C:6862H         LINE#         118
  C:6864H         LINE#         120
  C:6865H         LINE#         122
  C:6867H         LINE#         123
  C:6868H         LINE#         142
  C:6869H         LINE#         143
  C:686BH         LINE#         144
  C:686DH         LINE#         145
  C:686FH         LINE#         146
  C:6871H         LINE#         149
  C:6873H         LINE#         150
  C:6874H         LINE#         154
  C:6876H         LINE#         155
BL51 BANKED LINKER/LOCATER V6.05                                                      09/23/2016  17:07:17  PAGE 127


  C:6878H         LINE#         156
  C:687AH         LINE#         157
  C:687CH         LINE#         158
  C:687EH         LINE#         162
  C:6880H         LINE#         163
  C:6881H         LINE#         164
  C:6883H         LINE#         169
  C:6886H         LINE#         170
  C:6888H         LINE#         171
  C:6889H         LINE#         174
  C:688BH         LINE#         175
  C:688CH         LINE#         176
  C:688EH         LINE#         177
  C:6890H         LINE#         180
  C:6892H         LINE#         181
  C:6893H         LINE#         186
  C:6895H         LINE#         187
  C:6898H         LINE#         191
  C:689AH         LINE#         192
  C:689DH         LINE#         196
  C:689FH         LINE#         197
  C:68A1H         LINE#         198
  C:68A3H         LINE#         200
  C:68A6H         LINE#         202
  C:68A7H         LINE#         208
  C:68A9H         LINE#         209
  C:68ABH         LINE#         212
  C:68ADH         LINE#         213
  C:68AEH         LINE#         222
  C:68AFH         LINE#         223
  C:68B2H         LINE#         224
  C:68B5H         LINE#         225
  C:68B8H         LINE#         226
  C:68BBH         LINE#         228
  C:68BEH         LINE#         229
  C:68C1H         LINE#         230
  C:68C3H         LINE#         231
  C:68C5H         LINE#         233
  C:68C8H         LINE#         234
  C:68CAH         LINE#         235
  C:68CBH         LINE#         238
  C:68CCH         LINE#         239
  C:68CEH         LINE#         240
  C:68D1H         LINE#         241
  C:68D3H         LINE#         242
  C:68D5H         LINE#         244
  C:68D6H         LINE#         245
  C:68D8H         LINE#         246
  C:68DBH         LINE#         248
  C:68DEH         LINE#         249
  C:68E0H         LINE#         250
  C:68E2H         LINE#         252
  C:68E5H         LINE#         253
  C:68E7H         LINE#         254
  C:68E8H         LINE#         257
  C:68EAH         LINE#         258
  C:68ECH         LINE#         263
BL51 BANKED LINKER/LOCATER V6.05                                                      09/23/2016  17:07:17  PAGE 128


  C:68EDH         LINE#         264
  C:68EEH         LINE#         270
  C:68F1H         LINE#         272
  C:68F4H         LINE#         273
  C:68F6H         LINE#         274
  C:68F8H         LINE#         276
  C:68FBH         LINE#         277
  C:68FDH         LINE#         278
  C:68FEH         LINE#         285
  C:6900H         LINE#         289
  C:6903H         LINE#         290
  C:6906H         LINE#         292
  C:6909H         LINE#         293
  C:690AH         LINE#         294
  C:690BH         LINE#         309
  C:690DH         LINE#         310
  C:690FH         LINE#         312
  C:6911H         LINE#         313
  C:6913H         LINE#         315
  C:6915H         LINE#         316
  C:6917H         LINE#         318
  C:6919H         LINE#         319
  C:691BH         LINE#         322
  C:691DH         LINE#         323
  C:691EH         LINE#         324
  C:691FH         LINE#         327
  C:6921H         LINE#         328
  C:6923H         LINE#         329
  C:6924H         LINE#         346
  C:6926H         LINE#         350
  C:6928H         LINE#         351
  C:6929H         LINE#         494
  C:692AH         LINE#         533
  C:692CH         LINE#         534
  C:692EH         LINE#         535
  C:6930H         LINE#         538
  C:6931H         LINE#         539
  C:6933H         LINE#         540
  C:6934H         LINE#         543
  C:6935H         LINE#         544
  C:6937H         LINE#         545
  C:6938H         LINE#         548
  C:6939H         LINE#         549
  C:693AH         LINE#         550
  C:693BH         LINE#         551
  C:693CH         LINE#         567
  C:693EH         LINE#         568
  C:693FH         LINE#         569
  C:6940H         LINE#         570
  C:6942H         LINE#         571
  C:6944H         LINE#         572
  C:6946H         LINE#         573
  C:6948H         LINE#         574
  C:694AH         LINE#         575
  C:694DH         LINE#         576
  C:694FH         LINE#         585
  C:6951H         LINE#         586
BL51 BANKED LINKER/LOCATER V6.05                                                      09/23/2016  17:07:17  PAGE 129


  C:6954H         LINE#         588
  C:6956H         LINE#         589
  C:6959H         LINE#         590
  C:695BH         LINE#         592
  C:695DH         LINE#         593
  C:695FH         LINE#         595
  C:6961H         LINE#         596
  C:6962H         LINE#         597
  C:6964H         LINE#         598
  C:6965H         LINE#         599
  C:6966H         LINE#         600
  C:6967H         LINE#         601
  C:6968H         LINE#         602
  C:6969H         LINE#         606
  C:696BH         LINE#         607
  C:696EH         LINE#         609
  C:6970H         LINE#         610
  C:6972H         LINE#         611
  C:6974H         LINE#         612
  C:6977H         LINE#         613
  C:6979H         LINE#         615
  C:697CH         LINE#         624
  C:697EH         LINE#         625
  C:6980H         LINE#         627
  C:6981H         LINE#         633
  C:6983H         LINE#         634
  C:6985H         LINE#         635
  C:6988H         LINE#         637
  C:6989H         LINE#         649
  C:698AH         LINE#         650
  C:698CH         LINE#         654
  C:698EH         LINE#         655
  C:6990H         LINE#         656
  C:6992H         LINE#         657
  C:6994H         LINE#         658
  C:6997H         LINE#         659
  C:699AH         LINE#         660
  C:699CH         LINE#         662
  C:699DH         LINE#         663
  C:699FH         LINE#         664
  C:69A1H         LINE#         665
  C:69A4H         LINE#         668
  C:69A6H         LINE#         670
  C:69A8H         LINE#         671
  C:69A9H         LINE#         672
  C:69AAH         LINE#         681
  C:69ABH         LINE#         686
  C:69AEH         LINE#         687
  C:69B0H         LINE#         688
  C:69B1H         LINE#         689
  C:69B2H         LINE#         690
  C:69B3H         LINE#         694
  C:69B5H         LINE#         695
  C:69B6H         LINE#         700
  C:69B8H         LINE#         701
  C:69B9H         LINE#         702
  C:69BAH         LINE#         703
BL51 BANKED LINKER/LOCATER V6.05                                                      09/23/2016  17:07:17  PAGE 130


  C:69BDH         LINE#         704
  C:69BFH         LINE#         705
  C:69C0H         LINE#         706
  C:69C2H         LINE#         707
  C:69C4H         LINE#         708
  C:69C6H         LINE#         712
  C:69C9H         LINE#         720
  C:69CAH         LINE#         721
  C:69CDH         LINE#         722
  C:69CFH         LINE#         723
  C:69D2H         LINE#         733
  C:69D4H         LINE#         734
  C:69D6H         LINE#         735
  C:69D8H         LINE#         736
  C:69D9H         LINE#         737
  C:69DBH         LINE#         738
  C:69DCH         LINE#         746
  C:69DEH         LINE#         747
  C:69DFH         LINE#         748
  C:69E0H         LINE#         749
  C:69E2H         LINE#         750
  C:69E3H         LINE#         751
  C:69E6H         LINE#         754
  C:69E9H         LINE#         758
  C:69EBH         LINE#         759
  C:69EDH         LINE#         760
  C:69EFH         LINE#         762
  C:69F1H         LINE#         763
  C:69F2H         LINE#         764
  C:69F3H         LINE#         765
  C:69F5H         LINE#         766
  C:69F8H         LINE#         767
  C:69FAH         LINE#         770
  C:69FCH         LINE#         771
  C:69FEH         LINE#         772
  C:6A00H         LINE#         775
  C:6A02H         LINE#         776
  C:6A03H         LINE#         777
  C:6A04H         LINE#         778
  C:6A06H         LINE#         779
  C:6A09H         LINE#         789
  C:6A0AH         LINE#         790
  C:6A0CH         LINE#         792
  C:6A0EH         LINE#         793
  C:6A11H         LINE#         798
  C:6A13H         LINE#         799
  C:6A14H         LINE#         800
  C:6A15H         LINE#         804
  C:6A18H         LINE#         805
  C:6A1AH         LINE#         806
  C:6A1BH         LINE#         809
  C:6A1DH         LINE#         827
  C:6A1FH         LINE#         828
  C:6A22H         LINE#         848
  C:6A25H         LINE#         849
  C:6A28H         LINE#         854
  C:6A2AH         LINE#         855
BL51 BANKED LINKER/LOCATER V6.05                                                      09/23/2016  17:07:17  PAGE 131


  C:6A2BH         LINE#         856
  C:6A2CH         LINE#         857
  C:6A2DH         LINE#         861
  C:6A30H         LINE#         862
  C:6A32H         LINE#         863
  C:6A33H         LINE#         867
  C:6A36H         LINE#         868
  C:6A38H         LINE#         876
  C:6A3BH         LINE#         879
  C:6A3DH         LINE#         880
  C:6A40H         LINE#         882
  C:6A42H         LINE#         885
  C:6A45H         LINE#         886
  C:6A47H         LINE#         887
  C:6A49H         LINE#         888
  C:6A4BH         LINE#         889
  C:6A4DH         LINE#         895
  C:6A4FH         LINE#         896
  C:6A50H         LINE#         897
  C:6A51H         LINE#         899
  C:6A52H         LINE#         900
  C:6A53H         LINE#         901
  C:6A54H         LINE#         902
  C:6A56H         LINE#         903
  C:6A57H         LINE#         904
  C:6A58H         LINE#         905
  C:6A59H         LINE#         906
  C:6A5AH         LINE#         907
  C:6A5BH         LINE#         908
  C:6A5CH         LINE#         909
  C:6A5DH         LINE#         910
  C:6A5FH         LINE#         911
  C:6A60H         LINE#         914
  C:6A61H         LINE#         915
  C:6A62H         LINE#         916
  C:6A63H         LINE#         917
  C:6A65H         LINE#         923
  C:6A67H         LINE#         924
  C:6A69H         LINE#         926
  C:6A6BH         LINE#         927
  C:6A6CH         LINE#         928
  C:6A6DH         LINE#         930
  C:6A6FH         LINE#         931
  C:6A71H         LINE#         932
  C:6A74H         LINE#         936
  C:6A77H         LINE#         938
  C:6A79H         LINE#         939
  C:6A7BH         LINE#         940
  C:6A7DH         LINE#         941
  C:6A80H         LINE#         942
  C:6A82H         LINE#         944
  C:6A85H         LINE#         946
  C:6A87H         LINE#         953
  C:6A88H         LINE#         954
  C:6A8AH         LINE#         956
  C:6A8CH         LINE#         957
  C:6A8EH         LINE#         961
BL51 BANKED LINKER/LOCATER V6.05                                                      09/23/2016  17:07:17  PAGE 132


  C:6A91H         LINE#         964
  C:6A93H         LINE#         965
  C:6A95H         LINE#         966
  C:6A97H         LINE#         970
  C:6A99H         LINE#         971
  C:6A9AH         LINE#         972
  C:6A9BH         LINE#         973
  C:6A9EH         LINE#         974
  C:6AA0H         LINE#         977
  C:6AA2H         LINE#         978
  C:6AA4H         LINE#         979
  C:6AA6H         LINE#         983
  C:6AA8H         LINE#         984
  C:6AA9H         LINE#         985
  C:6AAAH         LINE#         990
  C:6AADH         LINE#         1006
  C:6AAEH         LINE#         1008
  C:6AB1H         LINE#         1009
  C:6AB3H         LINE#         1012
  C:6AB5H         LINE#         1013
  C:6AB6H         LINE#         1014
  C:6AB7H         LINE#         1015
  C:6AB9H         LINE#         1018
  C:6ABCH         LINE#         1022
  C:6ABEH         LINE#         1023
  C:6AC0H         LINE#         1024
  C:6AC2H         LINE#         1026
  C:6AC4H         LINE#         1027
  C:6AC5H         LINE#         1028
  C:6AC6H         LINE#         1029
  C:6AC9H         LINE#         1031
  C:6ACBH         LINE#         1035
  C:6ACDH         LINE#         1036
  C:6ACFH         LINE#         1037
  C:6AD1H         LINE#         1039
  C:6AD3H         LINE#         1040
  C:6AD4H         LINE#         1041
  C:6AD5H         LINE#         1048
  C:6AD8H         LINE#         1050
  C:6ADAH         LINE#         1056
  C:6ADDH         LINE#         1057
  C:6ADFH         LINE#         1058
  C:6AE1H         LINE#         1059
  C:6AE3H         LINE#         1060
  C:6AE5H         LINE#         1064
  C:6AE6H         LINE#         1069
  C:6AE8H         LINE#         1070
  C:6AEAH         LINE#         1072
  C:6AEBH         LINE#         1077
  C:6AEDH         LINE#         1078
  C:6AEFH         LINE#         1079
  C:6AF0H         LINE#         1082
  C:6AF1H         LINE#         1083
  C:6AF2H         LINE#         1096
  C:6AF5H         LINE#         1098
  C:6AF7H         LINE#         1101
  C:6AF9H         LINE#         1102
BL51 BANKED LINKER/LOCATER V6.05                                                      09/23/2016  17:07:17  PAGE 133


  C:6AFBH         LINE#         1103
  C:6AFDH         LINE#         1104
  C:6AFFH         LINE#         1109
  C:6B02H         LINE#         1111
  C:6B04H         LINE#         1113
  C:6B07H         LINE#         1115
  C:6B09H         LINE#         1118
  C:6B0BH         LINE#         1119
  C:6B0DH         LINE#         1120
  C:6B0FH         LINE#         1121
  C:6B11H         LINE#         1126
  C:6B14H         LINE#         1128
  C:6B16H         LINE#         1130
  C:6B19H         LINE#         1132
  C:6B1BH         LINE#         1135
  C:6B1DH         LINE#         1136
  C:6B1FH         LINE#         1137
  C:6B21H         LINE#         1138
  C:6B23H         LINE#         1143
  C:6B26H         LINE#         1145
  C:6B28H         LINE#         1147
  C:6B2BH         LINE#         1150
  C:6B2DH         LINE#         1156
  C:6B30H         LINE#         1158
  C:6B32H         LINE#         1161
  C:6B35H         LINE#         1164
  C:6B37H         LINE#         1167
  C:6B39H         LINE#         1168
  C:6B3BH         LINE#         1169
  C:6B3DH         LINE#         1170
  C:6B3FH         LINE#         1176
  C:6B42H         LINE#         1177
  C:6B44H         LINE#         1179
  C:6B47H         LINE#         1181
  C:6B49H         LINE#         1187
  C:6B4CH         LINE#         1188
  C:6B4EH         LINE#         1190
  C:6B50H         LINE#         1191
  C:6B53H         LINE#         1194
  C:6B54H         LINE#         1212
  C:6B56H         LINE#         1215
  C:6B58H         LINE#         1216
  C:6B5AH         LINE#         1221
  C:6B5BH         LINE#         1222
  C:6B5CH         LINE#         1223
  C:6B5DH         LINE#         1225
  C:6B5EH         LINE#         1240
  C:6B60H         LINE#         1245
  C:6B61H         LINE#         1246
  C:6B62H         LINE#         1247
  C:6B63H         LINE#         1250
  C:6B64H         LINE#         1251
  C:6B65H         LINE#         1256
  C:6B66H         LINE#         1257
  C:6B67H         LINE#         1258
  C:6B68H         LINE#         1260
  C:6B69H         LINE#         1261
BL51 BANKED LINKER/LOCATER V6.05                                                      09/23/2016  17:07:17  PAGE 134


  C:6B6AH         LINE#         1266
  C:6B6BH         LINE#         1268
  C:6B6DH         LINE#         1270
  C:6B6FH         LINE#         1271
  C:6B71H         LINE#         1273
  C:6B73H         LINE#         1274
  C:6B75H         LINE#         1275
  C:6B77H         LINE#         1276
  C:6B7AH         LINE#         1278
  C:6B7BH         LINE#         1281
  C:6B7CH         LINE#         1284
  C:6B7DH         LINE#         1290
  -------         ENDMOD        CONTACT

  -------         MODULE        DSRC
  C:505DH         SEGMENT       ?PR?DSRC?MATER
  C:001EH         SEGMENT       ?CO?DSRC?COMMLIB
  C:5495H         PUBLIC        _FUN_DSRC_NSPECIAL
  C:505DH         PUBLIC        _FUN_DSRC_VST
  D:00E0H         SYMBOL        ACC
  D:00F0H         SYMBOL        B
  N:009CH         SYMBOL        BRT
  B:0020H.0       SYMBOL        BUSY
  N:00FAH         SYMBOL        CCAP0H
  N:00EAH         SYMBOL        CCAP0L
  N:00FBH         SYMBOL        CCAP1H
  N:00EBH         SYMBOL        CCAP1L
  N:00FCH         SYMBOL        CCAP2H
  N:00ECH         SYMBOL        CCAP2L
  N:00FDH         SYMBOL        CCAP3H
  N:00EDH         SYMBOL        CCAP3L
  N:00FEH         SYMBOL        CCAP4H
  N:00EEH         SYMBOL        CCAP4L
  N:00FFH         SYMBOL        CCAP5H
  N:00EFH         SYMBOL        CCAP5L
  N:00DAH         SYMBOL        CCAPM0
  N:00DBH         SYMBOL        CCAPM1
  N:00DCH         SYMBOL        CCAPM2
  N:00DDH         SYMBOL        CCAPM3
  N:00DEH         SYMBOL        CCAPM4
  N:00DFH         SYMBOL        CCAPM5
  B:00D8H.0       SYMBOL        CCF0
  B:00D8H.1       SYMBOL        CCF1
  B:00D8H.2       SYMBOL        CCF2
  B:00D8H.3       SYMBOL        CCF3
  B:00D8H.4       SYMBOL        CCF4
  B:00D8H.5       SYMBOL        CCF5
  N:00D8H         SYMBOL        CCON
  B:00D8H.7       SYMBOL        CF
  N:00F9H         SYMBOL        CH
  N:00E9H         SYMBOL        CL
  N:00D9H         SYMBOL        CMOD
  N:0002H         SYMBOL        CONST_ACTIONTYPE_GETRAND
  N:0000H         SYMBOL        CONST_ACTIONTYPE_GETSECURE
  N:0004H         SYMBOL        CONST_ACTIONTYPE_SETMMI
  N:0001H         SYMBOL        CONST_ACTIONTYPE_SETSECURE
  N:0003H         SYMBOL        CONST_ACTIONTYPE_TRANSFERCHANNEL
BL51 BANKED LINKER/LOCATER V6.05                                                      09/23/2016  17:07:17  PAGE 135


  N:0003H         SYMBOL        CONST_ACT_H
  N:0001H         SYMBOL        CONST_ACT_H_H
  N:0000H         SYMBOL        CONST_ACT_H_L
  N:0001H         SYMBOL        CONST_ACT_L
  N:0006H         SYMBOL        CONST_ACT_L_H
  N:000AH         SYMBOL        CONST_ACT_L_L
  N:0002H         SYMBOL        CONST_ACT_M
  N:0000H         SYMBOL        CONST_ACT_M_H
  N:0006H         SYMBOL        CONST_ACT_M_L
  N:0002H         SYMBOL        CONST_ACT_V
  N:0002H         SYMBOL        CONST_BAUD_115200
  N:0003H         SYMBOL        CONST_BAUD_115200PC
  N:0004H         SYMBOL        CONST_BAUD_230000
  N:0001H         SYMBOL        CONST_BAUD_38400
  N:0005H         SYMBOL        CONST_BAUD_38400PC
  N:0000H         SYMBOL        CONST_BAUD_9600
  N:0006H         SYMBOL        CONST_BAUD_9600PC
  N:000CH         SYMBOL        CONST_BAUD_BITFULL12
  N:000EH         SYMBOL        CONST_BAUD_BITFULL20
  N:0010H         SYMBOL        CONST_BAUD_BITFULL28
  N:000BH         SYMBOL        CONST_BAUD_BITFULL8
  N:000CH         SYMBOL        CONST_BAUD_BITHALF12
  N:00B3H         SYMBOL        CONST_BAUD_CURRENTBITFULL
  N:0058H         SYMBOL        CONST_BAUD_CURRENTBITHALF
  N:001DH         SYMBOL        CONST_BAUD_FULL115200
  N:000FH         SYMBOL        CONST_BAUD_FULL230000
  N:005DH         SYMBOL        CONST_BAUD_FULL38400
  N:00B3H         SYMBOL        CONST_BAUD_FULL9600
  N:000DH         SYMBOL        CONST_BAUD_HALF115200
  N:0008H         SYMBOL        CONST_BAUD_HALF230000
  N:002DH         SYMBOL        CONST_BAUD_HALF38400
  N:0058H         SYMBOL        CONST_BAUD_HALF9600
  N:00F8H         SYMBOL        CONST_BAUD_HAND115200
  N:00F3H         SYMBOL        CONST_BAUD_HAND115200PC
  N:00FCH         SYMBOL        CONST_BAUD_HAND230000
  N:00E9H         SYMBOL        CONST_BAUD_HAND38400
  N:00D8H         SYMBOL        CONST_BAUD_HAND38400PC
  N:00A3H         SYMBOL        CONST_BAUD_HAND9600
  N:0060H         SYMBOL        CONST_BAUD_HAND9600PC
  N:00FFH         SYMBOL        CONST_BLACK_H
  N:00FFH         SYMBOL        CONST_BLACK_L
  N:0014H         SYMBOL        CONST_BLUETOOTH_WORKTIME
  N:0020H         SYMBOL        CONST_BSTLIMIT
  N:0064H         SYMBOL        CONST_BSTLIMIT02
  N:0016H         SYMBOL        CONST_CARD_CONSUME
  N:0017H         SYMBOL        CONST_CARD_PASS
  N:0000H         SYMBOL        CONST_CELLFILE_H
  N:0009H         SYMBOL        CONST_CELLFILE_L
  N:0001H         SYMBOL        CONST_DPH_NORMAL
  N:0001H         SYMBOL        CONST_DPH_ONE
  N:0003H         SYMBOL        CONST_DPH_SERX
  N:0000H         SYMBOL        CONST_DPH_SETX
  N:0003H         SYMBOL        CONST_DPH_THREE
  N:0002H         SYMBOL        CONST_DPH_TWO
  N:0000H         SYMBOL        CONST_DPH_ZERO
  N:0007H         SYMBOL        CONST_DSRC_ACTION
  N:0009H         SYMBOL        CONST_DSRC_ACTIONTYPE
BL51 BANKED LINKER/LOCATER V6.05                                                      09/23/2016  17:07:17  PAGE 136


  N:0001H         SYMBOL        CONST_DSRC_CHANNELIDICC
  N:0002H         SYMBOL        CONST_DSRC_CHANNELIDSAM
  N:000AH         SYMBOL        CONST_DSRC_CONTAIN
  N:0008H         SYMBOL        CONST_DSRC_DID
  N:0000H         SYMBOL        CONST_DSRC_FILDIDAPPKEY
  N:0002H         SYMBOL        CONST_DSRC_FILDIDCONSUME
  N:0003H         SYMBOL        CONST_DSRC_FILDIDHOLD
  N:0001H         SYMBOL        CONST_DSRC_FILDIDVEHICLE
  N:000BH         SYMBOL        CONST_DSRC_FILL
  N:0006H         SYMBOL        CONST_DSRC_HEAD
  N:0005H         SYMBOL        CONST_DSRC_LLCCTRL
  N:0004H         SYMBOL        CONST_DSRC_MACCTRL
  N:0003H         SYMBOL        CONST_ETC_INPUT
  N:0002H         SYMBOL        CONST_FALSH_PREFLAG02H
  N:00F4H         SYMBOL        CONST_FALSH_PREFLAG02L
  N:0002H         SYMBOL        CONST_FALSH_PREFLAG03H
  N:00F5H         SYMBOL        CONST_FALSH_PREFLAG03L
  N:0002H         SYMBOL        CONST_FALSH_PREFLAG04H
  N:00F6H         SYMBOL        CONST_FALSH_PREFLAG04L
  N:0002H         SYMBOL        CONST_FALSH_PREFLAGH
  N:00F3H         SYMBOL        CONST_FALSH_PREFLAGL
  N:0001H         SYMBOL        CONST_FALSH_PREFLAGLEN
  N:0004H         SYMBOL        CONST_FLASHADD_BEACONIDUNIXTIMEH
  N:0000H         SYMBOL        CONST_FLASHADD_BEACONIDUNIXTIMEL
  N:0002H         SYMBOL        CONST_FLASH_0002H
  N:0058H         SYMBOL        CONST_FLASH_0002L
  N:0004H         SYMBOL        CONST_FLASH_0002LEN
  N:0002H         SYMBOL        CONST_FLASH_0012H
  N:005CH         SYMBOL        CONST_FLASH_0012L
  N:0028H         SYMBOL        CONST_FLASH_0012LEN
  N:0002H         SYMBOL        CONST_FLASH_0015H
  N:0084H         SYMBOL        CONST_FLASH_0015L
  N:0032H         SYMBOL        CONST_FLASH_0015LEN
  N:002BH         SYMBOL        CONST_FLASH_0015LENOLD
  N:002BH         SYMBOL        CONST_FLASH_0019GBLEN
  N:0002H         SYMBOL        CONST_FLASH_0019H
  N:00B6H         SYMBOL        CONST_FLASH_0019L
  N:003CH         SYMBOL        CONST_FLASH_0019LEN
  N:003FH         SYMBOL        CONST_FLASH_0019NEWGDLEN
  N:0004H         SYMBOL        CONST_FLASH_BEACONIDUNIXTIMEH
  N:0000H         SYMBOL        CONST_FLASH_BEACONIDUNIXTIMEL
  N:0008H         SYMBOL        CONST_FLASH_BEACONIDUNIXTIMELEN
  N:0002H         SYMBOL        CONST_FLASH_BLOCK01
  N:0001H         SYMBOL        CONST_FLASH_CARDTYPELEN
  N:00F3H         SYMBOL        CONST_FLASH_FILELEN
  N:0002H         SYMBOL        CONST_FLASH_LASTCARDH
  N:00F2H         SYMBOL        CONST_FLASH_LASTCARDL
  N:0002H         SYMBOL        CONST_FLASH_STARTHIGH
  N:0000H         SYMBOL        CONST_FLASH_STARTLOW
  N:0002H         SYMBOL        CONST_FLASH_SYSINFOH
  N:0000H         SYMBOL        CONST_FLASH_SYSINFOL
  N:0058H         SYMBOL        CONST_FLASH_SYSINFOLEN
  N:0002H         SYMBOL        CONST_GDO2_MCSM2
  N:0046H         SYMBOL        CONST_GDO2_VALUE
  N:00F0H         SYMBOL        CONST_GSM_MAXNUM
  N:0008H         SYMBOL        CONST_GSM_NUM
  N:0014H         SYMBOL        CONST_GSM_PJNUM
BL51 BANKED LINKER/LOCATER V6.05                                                      09/23/2016  17:07:17  PAGE 137


  N:0015H         SYMBOL        CONST_HANDSECOND
  N:0002H         SYMBOL        CONST_LHX_FLAG
  N:0005H         SYMBOL        CONST_MAX_RXNUM
  N:0008H         SYMBOL        CONST_MCU_WKCTH
  N:00FFH         SYMBOL        CONST_MCU_WKCTL
  N:0002H         SYMBOL        CONST_MF_DECREMENT
  N:0003H         SYMBOL        CONST_MF_INCREMENT
  N:00C0H         SYMBOL        CONST_MF_RC500DECREMENT
  N:00C1H         SYMBOL        CONST_MF_RC500INCREMENT
  N:0000H         SYMBOL        CONST_MF_READ
  N:0004H         SYMBOL        CONST_MF_RESTOR
  N:0001H         SYMBOL        CONST_MF_WRITE
  N:0001H         SYMBOL        CONST_MTC_INPUT
  N:0018H         SYMBOL        CONST_PPS_115200
  N:0096H         SYMBOL        CONST_PPS_230000
  N:0013H         SYMBOL        CONST_PPS_38400
  N:0010H         SYMBOL        CONST_PPS_9600
  N:0001H         SYMBOL        CONST_PRO_4SPEED
  N:00FAH         SYMBOL        CONST_PRO_OVERTIME2S
  N:0090H         SYMBOL        CONST_RTCOVERFLOW
  N:00FFH         SYMBOL        CONST_RTC_OFF
  N:0055H         SYMBOL        CONST_RTC_ON
  N:000AH         SYMBOL        CONST_SE_CHANNEL
  N:0000H         SYMBOL        CONST_SE_RXBUF
  N:0000H         SYMBOL        CONST_SE_TXBUF
  N:0000H         SYMBOL        CONST_SOF
  N:0014H         SYMBOL        CONST_SOFTBYTESP
  N:0010H         SYMBOL        CONST_SOFTFIRSTSCANTIME
  N:00FFH         SYMBOL        CONST_SOFTFIRSTSCANTIMEXX
  N:0070H         SYMBOL        CONST_SOFTSECOND
  N:000CH         SYMBOL        CONST_SSRC_FID
  N:0007H         SYMBOL        CONST_STATE_5823INIER
  N:0008H         SYMBOL        CONST_STATE_5823SLEEPER
  N:0003H         SYMBOL        CONST_STATE_ACCEPTOVER
  N:0004H         SYMBOL        CONST_STATE_ACCEPTOVERLEN
  N:0006H         SYMBOL        CONST_STATE_ACTCARDINVALID
  N:0004H         SYMBOL        CONST_STATE_ACTIVEFAIL
  N:0006H         SYMBOL        CONST_STATE_AUTHER
  N:001DH         SYMBOL        CONST_STATE_BASE01ANTICOLL
  N:0015H         SYMBOL        CONST_STATE_BASE01CONTACT
  N:0014H         SYMBOL        CONST_STATE_BASE01ESAMDF01
  N:001FH         SYMBOL        CONST_STATE_BASE01RATS
  N:001CH         SYMBOL        CONST_STATE_BASE01RE
  N:001EH         SYMBOL        CONST_STATE_BASE01SEL
  N:0019H         SYMBOL        CONST_STATE_BASE02ANTICOLL
  N:0016H         SYMBOL        CONST_STATE_BASE02CONTACT
  N:001BH         SYMBOL        CONST_STATE_BASE02RATS
  N:0018H         SYMBOL        CONST_STATE_BASE02RE
  N:001AH         SYMBOL        CONST_STATE_BASE02SEL
  N:000BH         SYMBOL        CONST_STATE_BASEESAMDF01
  N:0013H         SYMBOL        CONST_STATE_BASEN01INIT
  N:000AH         SYMBOL        CONST_STATE_BASENINIT
  N:000DH         SYMBOL        CONST_STATE_CARDPREDEAL0002
  N:000EH         SYMBOL        CONST_STATE_CARDPREDEAL0012
  N:000FH         SYMBOL        CONST_STATE_CARDPREDEAL0015
  N:0010H         SYMBOL        CONST_STATE_CARDPREDEAL0019
  N:000CH         SYMBOL        CONST_STATE_CARDPREDEAL1001
BL51 BANKED LINKER/LOCATER V6.05                                                      09/23/2016  17:07:17  PAGE 138


  N:0011H         SYMBOL        CONST_STATE_CARDPREDEAL3F00
  N:0012H         SYMBOL        CONST_STATE_CARDPREDEAL81
  N:0023H         SYMBOL        CONST_STATE_ESAMER
  N:0021H         SYMBOL        CONST_STATE_EXMEMORYER
  N:0022H         SYMBOL        CONST_STATE_EXMEMORYER02
  N:00FFH         SYMBOL        CONST_STATE_FALSE
  N:0009H         SYMBOL        CONST_STATE_GETSECURESELFILEER
  N:0005H         SYMBOL        CONST_STATE_ILLEGALACTCARD
  N:0002H         SYMBOL        CONST_STATE_ILLEGALINPUTCARD
  N:0003H         SYMBOL        CONST_STATE_INPUTCARDINVALID
  N:0001H         SYMBOL        CONST_STATE_INPUTFAIL
  N:0020H         SYMBOL        CONST_STATE_MEMORYER
  N:0005H         SYMBOL        CONST_STATE_RSTCPUER
  N:0001H         SYMBOL        CONST_STATE_SERIALACCPET
  N:0002H         SYMBOL        CONST_STATE_SERIALOVERTIME
  N:0017H         SYMBOL        CONST_STATE_TEST
  N:0000H         SYMBOL        CONST_STATE_TRUE
  N:0055H         SYMBOL        CONST_SYS_55
  N:00AAH         SYMBOL        CONST_SYS_AA
  N:0004H         SYMBOL        CONST_SYS_OBUIDLEN
  N:000AH         SYMBOL        CONST_SYS_POWERONTIMER
  N:0088H         SYMBOL        CONST_SYS_PREFLAG
  N:0064H         SYMBOL        CONST_SYS_RTCOVERTIME
  N:00FFH         SYMBOL        CONST_SYS_TRADECONFINE
  N:0001H         SYMBOL        CONST_TIMEER02
  N:00FEH         SYMBOL        CONST_TIMEER03
  N:0001H         SYMBOL        CONST_TIMEER04
  N:00FFH         SYMBOL        CONST_VSTLIMIT
  N:0000H         SYMBOL        CONST_WHITE_H
  N:0031H         SYMBOL        CONST_WHITE_L
  N:0000H         SYMBOL        CONST_WORKSTAION_0
  N:0001H         SYMBOL        CONST_WORKSTAION_1
  N:0002H         SYMBOL        CONST_WORKSTAION_2
  N:0003H         SYMBOL        CONST_WORKSTAION_3
  N:0000H         SYMBOL        CONST_XDATA_TXBUF02
  N:0080H         SYMBOL        CONST_XDATA_TXBUF02LEN
  B:00D8H.6       SYMBOL        CR
  D:0083H         SYMBOL        DPH
  D:0082H         SYMBOL        DPL
  N:0000H         SYMBOL        DSRC
  C:54CAH         SYMBOL        DSRCSPECIAL_COMPLEXSEGSPECIALZZ
  C:563CH         SYMBOL        DSRC_GETSECURE_ENKEY
  C:563EH         SYMBOL        DSRC_GETSECURE_ENKEYOVER
  C:5626H         SYMBOL        DSRC_GETSECURE_JBM
  C:5634H         SYMBOL        DSRC_GETSECURE_NOTENKEY
  C:5653H         SYMBOL        DSRC_GETSECURE_NOTNEXTSEG
  C:563FH         SYMBOL        DSRC_GETSECURE_OVER
  C:5624H         SYMBOL        DSRC_GETSECURE_RIGHT
  C:5836H         SYMBOL        DSRC_OBUCHANNEL_OVER
  C:5691H         SYMBOL        DSRC_POWER_1BYTE
  C:56A3H         SYMBOL        DSRC_POWER_OVER
  C:54FBH         SYMBOL        DSRC_SPECIAL_ACTIONOTHER
  C:5503H         SYMBOL        DSRC_SPECIAL_ACTIONOVER
  C:54F1H         SYMBOL        DSRC_SPECIAL_ACTIONSETMMI
  C:5569H         SYMBOL        DSRC_SPECIAL_CHANNELESAM
  C:5510H         SYMBOL        DSRC_SPECIAL_CHANNELGETSECURE
  C:5562H         SYMBOL        DSRC_SPECIAL_CHANNELICC
BL51 BANKED LINKER/LOCATER V6.05                                                      09/23/2016  17:07:17  PAGE 139


  C:5587H         SYMBOL        DSRC_SPECIAL_CHANNELIDOVER
  C:5554H         SYMBOL        DSRC_SPECIAL_CHANNELOBU
  C:557EH         SYMBOL        DSRC_SPECIAL_CHANNELOTHER
  C:552FH         SYMBOL        DSRC_SPECIAL_CHANNELOVER
  C:5570H         SYMBOL        DSRC_SPECIAL_CHANNELPOWER
  C:5527H         SYMBOL        DSRC_SPECIAL_CHANNELSETMMI
  C:551AH         SYMBOL        DSRC_SPECIAL_CHANNELTRANSFERCHANNEL
  C:55CBH         SYMBOL        DSRC_SPECIAL_CLEARCARD
  C:55CEH         SYMBOL        DSRC_SPECIAL_DISABLERTC
  C:5536H         SYMBOL        DSRC_SPECIAL_IDGETSECURE
  C:553DH         SYMBOL        DSRC_SPECIAL_IDGETSECUREACCES
  C:5592H         SYMBOL        DSRC_SPECIAL_IDSETMMI
  C:5550H         SYMBOL        DSRC_SPECIAL_IDTRANSFERCHANNEL
  C:55D0H         SYMBOL        DSRC_SPECIAL_INPUT
  C:55CBH         SYMBOL        DSRC_SPECIAL_OUTPUT
  C:55D0H         SYMBOL        DSRC_SPECIAL_OVER
  C:55D0H         SYMBOL        DSRC_SPECIAL_OVERSWGSM
  C:559EH         SYMBOL        DSRC_SPECIAL_SWGSM
  C:54E0H         SYMBOL        DSRC_SPECIAL_ZCLC
  C:57DDH         SYMBOL        DSRC_TRANSFERCHANNELOBU_CARDERR
  C:57C1H         SYMBOL        DSRC_TRANSFERCHANNELOBU_CARDLOOP
  C:5800H         SYMBOL        DSRC_TRANSFERCHANNELOBU_CARDRIGHT
  C:5815H         SYMBOL        DSRC_TRANSFERCHANNELOBU_LOOPEND
  C:56D9H         SYMBOL        DSRC_TRANSFERCHANNEL_CARD
  C:5762H         SYMBOL        DSRC_TRANSFERCHANNEL_CARDERR
  C:5772H         SYMBOL        DSRC_TRANSFERCHANNEL_CARDERR02
  C:56DBH         SYMBOL        DSRC_TRANSFERCHANNEL_CARDLOOP
  C:577CH         SYMBOL        DSRC_TRANSFERCHANNEL_CARDLOOPZZ
  C:577FH         SYMBOL        DSRC_TRANSFERCHANNEL_CARDRIGHT
  C:5796H         SYMBOL        DSRC_TRANSFERCHANNEL_CARDRIGHTZZ
  C:5759H         SYMBOL        DSRC_TRANSFERCHANNEL_DEALOVER
  C:5709H         SYMBOL        DSRC_TRANSFERCHANNEL_ESAMSPE
  C:5738H         SYMBOL        DSRC_TRANSFERCHANNEL_ESAMSPEADDTIME
  C:5733H         SYMBOL        DSRC_TRANSFERCHANNEL_ESAMSPEADDTIME00
  C:5748H         SYMBOL        DSRC_TRANSFERCHANNEL_ESAMSPENOADDTIME
  C:5799H         SYMBOL        DSRC_TRANSFERCHANNEL_LOOPEND
  C:56B5H         SYMBOL        DSRC_TRANSFERCHANNEL_NOCARD
  C:56B7H         SYMBOL        DSRC_TRANSFERCHANNEL_NOCARDLOOP
  C:57B5H         SYMBOL        DSRC_TRANSFERCHANNEL_NOTNEXTSEG
  C:57A1H         SYMBOL        DSRC_TRANSFERCHANNEL_OVER
  C:5756H         SYMBOL        DSRC_TRANSFERCHANNEL_RESULT
  C:5756H         SYMBOL        DSRC_TRANSFERCHANNEL_SPEOVER
  C:56F0H         SYMBOL        DSRC_TRANSFERCHANNEL_USERSPE
  C:506FH         SYMBOL        DSRC_VST_BEANCONLOOP
  C:5089H         SYMBOL        DSRC_VST_BEANCONLOOP1
  C:53A1H         SYMBOL        DSRC_VST_BJ
  C:53CFH         SYMBOL        DSRC_VST_BJCPUPRE
  C:53FFH         SYMBOL        DSRC_VST_BJCPUPRECONSUME
  C:5403H         SYMBOL        DSRC_VST_BJCPUPREPASS
  C:5405H         SYMBOL        DSRC_VST_BJCPUPREPASSCONSUME
  C:5377H         SYMBOL        DSRC_VST_CARDTYPECONTACT
  C:5380H         SYMBOL        DSRC_VST_CARDTYPEMF
  C:5384H         SYMBOL        DSRC_VST_CARDTYPEOVER
  C:5379H         SYMBOL        DSRC_VST_CARDTYPEPRO
  C:5243H         SYMBOL        DSRC_VST_CPUPRE
  C:5251H         SYMBOL        DSRC_VST_CPUPREHAVECARD
  C:524BH         SYMBOL        DSRC_VST_CPUPRESTART
BL51 BANKED LINKER/LOCATER V6.05                                                      09/23/2016  17:07:17  PAGE 140


  C:5170H         SYMBOL        DSRC_VST_INITMODE01
  C:51BFH         SYMBOL        DSRC_VST_INITMODE02
  C:520EH         SYMBOL        DSRC_VST_INITMODEOTHER
  C:5210H         SYMBOL        DSRC_VST_INITMODEOVER
  C:5332H         SYMBOL        DSRC_VST_MFPRE
  C:5337H         SYMBOL        DSRC_VST_MFPREHAVECARD
  C:50CDH         SYMBOL        DSRC_VST_NOTUSERCARD
  C:50E0H         SYMBOL        DSRC_VST_PRE
  C:50E3H         SYMBOL        DSRC_VST_PREAID00
  C:5213H         SYMBOL        DSRC_VST_PREAID01
  C:5225H         SYMBOL        DSRC_VST_PREAID01READSYSINFO
  C:521CH         SYMBOL        DSRC_VST_PREAID01START
  C:523AH         SYMBOL        DSRC_VST_PREREADSYSINFOOVER
  C:530FH         SYMBOL        DSRC_VST_READ0002
  C:5306H         SYMBOL        DSRC_VST_SEG0002
  C:5296H         SYMBOL        DSRC_VST_SEG0012
  C:52A8H         SYMBOL        DSRC_VST_SEG001202E
  C:52A3H         SYMBOL        DSRC_VST_SEG0012START
  C:5275H         SYMBOL        DSRC_VST_SEG0015
  C:5270H         SYMBOL        DSRC_VST_SEG001512E
  C:526BH         SYMBOL        DSRC_VST_SEG0015START
  C:52C9H         SYMBOL        DSRC_VST_SEG0019
  C:52DBH         SYMBOL        DSRC_VST_SEG001902E
  C:52E0H         SYMBOL        DSRC_VST_SEG001912E
  C:52E5H         SYMBOL        DSRC_VST_SEG001915E
  C:52D6H         SYMBOL        DSRC_VST_SEG0019START
  C:5337H         SYMBOL        DSRC_VST_SEGVSTTAIL
  B:00A8H.6       SYMBOL        EPCAI
  B:00A8H.6       SYMBOL        EPCA_LVD
  D:00A8H         SYMBOL        IE
  N:00AFH         SYMBOL        IE2
  N:00B7H         SYMBOL        IPH
  N:00C7H         SYMBOL        ISP_CONTR
  D:0080H         SYMBOL        P0
  D:0090H         SYMBOL        P1
  D:00A0H         SYMBOL        P2
  D:00B0H         SYMBOL        P3
  N:00C0H         SYMBOL        P4
  N:00F2H         SYMBOL        PCA_PWM0
  N:00F3H         SYMBOL        PCA_PWM1
  N:00F4H         SYMBOL        PCA_PWM2
  N:00F5H         SYMBOL        PCA_PWM3
  N:00F6H         SYMBOL        PCA_PWM4
  N:00F7H         SYMBOL        PCA_PWM5
  B:0080H.4       SYMBOL        PIN_522_MISO
  B:0080H.5       SYMBOL        PIN_522_MOSI
  B:00C0H.6       SYMBOL        PIN_522_RST
  B:0080H.7       SYMBOL        PIN_522_SCLK
  B:0080H.6       SYMBOL        PIN_522_SS
  B:0090H.0       SYMBOL        PIN_5823BK_CS
  B:0090H.2       SYMBOL        PIN_5823BK_IRQ
  B:0080H.0       SYMBOL        PIN_5823BK_MISO
  B:0080H.1       SYMBOL        PIN_5823BK_MOSI
  B:00C0H.2       SYMBOL        PIN_5823BK_SCLK
  B:0080H.3       SYMBOL        PIN_BELL_01
  B:0080H.2       SYMBOL        PIN_BELL_02
  B:0090H.1       SYMBOL        PIN_BK_CE
BL51 BANKED LINKER/LOCATER V6.05                                                      09/23/2016  17:07:17  PAGE 141


  B:00B0H.3       SYMBOL        PIN_CARD_EXIST
  B:0090H.6       SYMBOL        PIN_CC1101_GDO2
  B:00B0H.7       SYMBOL        PIN_CC1101_MISO
  B:00A0H.3       SYMBOL        PIN_CC1101_MOSI
  B:00A0H.2       SYMBOL        PIN_CC1101_SCLK
  B:00B0H.6       SYMBOL        PIN_CC1101_SS
  B:00A0H.5       SYMBOL        PIN_ESAM_RST
  B:00A0H.6       SYMBOL        PIN_ESAM_RX
  B:00A0H.6       SYMBOL        PIN_ESAM_TX
  B:00C0H.5       SYMBOL        PIN_GRE
  B:0090H.4       SYMBOL        PIN_LCD_CS
  B:0090H.7       SYMBOL        PIN_LCD_DC
  B:0090H.5       SYMBOL        PIN_LCD_RST
  B:00B0H.4       SYMBOL        PIN_LCD_SCL
  B:00C0H.3       SYMBOL        PIN_LCD_SDA
  B:00A0H.7       SYMBOL        PIN_PWRDWN
  B:0090H.3       SYMBOL        PIN_PWRDWN_LCD
  B:00A0H.4       SYMBOL        PIN_PWR_GSM
  B:00A0H.1       SYMBOL        PIN_PWR_LOWIO
  B:00C0H.1       SYMBOL        PIN_RED
  B:00B0H.0       SYMBOL        PIN_SOFTSERIALRX
  B:00B0H.1       SYMBOL        PIN_SOFTSERIALTXH
  B:00B0H.5       SYMBOL        PIN_UNFIX
  B:00A0H.0       SYMBOL        PIN_WAVE_CHANNEL1
  N:00C0H         SYMBOL        READ_BURST
  N:00A2H         SYMBOL        REG_51_AUXR1
  N:008EH         SYMBOL        REG_5412AD_AUXR
  N:0094H         SYMBOL        REG_5412AD_P0M0
  N:0093H         SYMBOL        REG_5412AD_P0M1
  N:0092H         SYMBOL        REG_5412AD_P1M0
  N:0091H         SYMBOL        REG_5412AD_P1M1
  N:0096H         SYMBOL        REG_5412AD_P2M0
  N:0095H         SYMBOL        REG_5412AD_P2M1
  N:00B2H         SYMBOL        REG_5412AD_P3M0
  N:00B1H         SYMBOL        REG_5412AD_P3M1
  N:00B4H         SYMBOL        REG_5412AD_P4M0
  N:00B3H         SYMBOL        REG_5412AD_P4M1
  N:00BBH         SYMBOL        REG_5412AD_P4SW
  N:0085H         SYMBOL        REG_5412AD_SPCTL
  N:0086H         SYMBOL        REG_5412AD_SPDAT
  N:0084H         SYMBOL        REG_5412AD_SPSTAT
  N:00ABH         SYMBOL        REG_MCU_WKCTH
  N:00AAH         SYMBOL        REG_MCU_WKCTL
  N:000DH         SYMBOL        REG_RC522_BITFRAMINGREG
  N:000EH         SYMBOL        REG_RC522_COLLREG
  N:0002H         SYMBOL        REG_RC522_COMIENREG
  N:0004H         SYMBOL        REG_RC522_COMIRQREG
  N:0001H         SYMBOL        REG_RC522_COMMANDREG
  N:000CH         SYMBOL        REG_RC522_CONTROLREG
  N:0021H         SYMBOL        REG_RC522_CRCRESULTREGH
  N:0022H         SYMBOL        REG_RC522_CRCRESULTREGL
  N:0028H         SYMBOL        REG_RC522_CWGSPREG
  N:0019H         SYMBOL        REG_RC522_DEMODREG
  N:0003H         SYMBOL        REG_RC522_DIVIENREG
  N:0005H         SYMBOL        REG_RC522_DIVIRQREG
  N:0006H         SYMBOL        REG_RC522_ERRORREG
  N:0009H         SYMBOL        REG_RC522_FIFODATAREG
BL51 BANKED LINKER/LOCATER V6.05                                                      09/23/2016  17:07:17  PAGE 142


  N:000AH         SYMBOL        REG_RC522_FIFOLEVELREG
  N:0027H         SYMBOL        REG_RC522_GSNREG
  N:001CH         SYMBOL        REG_RC522_MIFAREREG
  N:0011H         SYMBOL        REG_RC522_MODEREG
  N:0029H         SYMBOL        REG_RC522_MODGSPREG
  N:0024H         SYMBOL        REG_RC522_MODWIDTHREG
  N:0000H         SYMBOL        REG_RC522_RC522PAGE
  N:0026H         SYMBOL        REG_RC522_RFCFGREG
  N:000FH         SYMBOL        REG_RC522_RFU
  N:0013H         SYMBOL        REG_RC522_RXMODEREG
  N:0017H         SYMBOL        REG_RC522_RXSELREG
  N:0018H         SYMBOL        REG_RC522_RXTHRESHOLDREG
  N:001FH         SYMBOL        REG_RC522_SERIALSPEEDREG
  N:0007H         SYMBOL        REG_RC522_STATUS1REG
  N:0008H         SYMBOL        REG_RC522_STATUS2REG
  N:002EH         SYMBOL        REG_RC522_TCOUNTERVALUEREGH
  N:002FH         SYMBOL        REG_RC522_TCOUNTERVALUEREGL
  N:002AH         SYMBOL        REG_RC522_TMODEREG
  N:002BH         SYMBOL        REG_RC522_TPRESCALERREG
  N:002CH         SYMBOL        REG_RC522_TRELOADREGH
  N:002DH         SYMBOL        REG_RC522_TRELOADREGL
  N:0015H         SYMBOL        REG_RC522_TXAUTOREG
  N:0014H         SYMBOL        REG_RC522_TXCONTROLREG
  N:0012H         SYMBOL        REG_RC522_TXMODEREG
  N:0016H         SYMBOL        REG_RC522_TXSELREG
  N:000BH         SYMBOL        REG_RC522_WATERLEVELREG
  N:009CH         SYMBOL        REG_SYS_BRT
  N:008FH         SYMBOL        REG_WAKECLK0
  B:00D8H.4       SYMBOL        REG_WAKECLK_04
  B:00D8H.5       SYMBOL        REG_WAKECLK_05
  N:00C1H         SYMBOL        REG_WDT_CONTR
  N:00EAH         SYMBOL        RELOAD2_CONTR
  N:009BH         SYMBOL        S2BUF
  N:009AH         SYMBOL        S2CON
  C:54C2H         SYMBOL        SEG_DSRCSPECIAL_COMPLEXSEG
  C:5835H         SYMBOL        SEG_DSRC_GETRAND
  C:55D3H         SYMBOL        SEG_DSRC_GETSECURE
  C:581FH         SYMBOL        SEG_DSRC_GETSENDBUFLEN
  C:5656H         SYMBOL        SEG_DSRC_POWER
  C:5833H         SYMBOL        SEG_DSRC_SETMMI
  C:5834H         SYMBOL        SEG_DSRC_SETSECURE
  C:56A7H         SYMBOL        SEG_DSRC_TRANSFERCHANNEL
  C:57B7H         SYMBOL        SEG_DSRC_TRANSFERCHANNELOBU
  C:001EH         SYMBOL        STR_DSRC_GETRND
  C:0024H         SYMBOL        STR_DSRC_VST
  N:0009H         SYMBOL        TI_CCXXX0_ADDR
  N:001DH         SYMBOL        TI_CCXXX0_AGCCTRL0
  N:001CH         SYMBOL        TI_CCXXX0_AGCCTRL1
  N:001BH         SYMBOL        TI_CCXXX0_AGCCTRL2
  N:002BH         SYMBOL        TI_CCXXX0_AGCTEST
  N:001AH         SYMBOL        TI_CCXXX0_BSCFG
  N:000AH         SYMBOL        TI_CCXXX0_CHANNR
  N:0015H         SYMBOL        TI_CCXXX0_DEVIATN
  N:0003H         SYMBOL        TI_CCXXX0_FIFOTHR
  N:0019H         SYMBOL        TI_CCXXX0_FOCCFG
  N:0022H         SYMBOL        TI_CCXXX0_FREND0
  N:0021H         SYMBOL        TI_CCXXX0_FREND1
BL51 BANKED LINKER/LOCATER V6.05                                                      09/23/2016  17:07:17  PAGE 143


  N:000FH         SYMBOL        TI_CCXXX0_FREQ0
  N:000EH         SYMBOL        TI_CCXXX0_FREQ1
  N:000DH         SYMBOL        TI_CCXXX0_FREQ2
  N:0032H         SYMBOL        TI_CCXXX0_FREQEST
  N:0026H         SYMBOL        TI_CCXXX0_FSCAL0
  N:0025H         SYMBOL        TI_CCXXX0_FSCAL1
  N:0024H         SYMBOL        TI_CCXXX0_FSCAL2
  N:0023H         SYMBOL        TI_CCXXX0_FSCAL3
  N:000CH         SYMBOL        TI_CCXXX0_FSCTRL0
  N:000BH         SYMBOL        TI_CCXXX0_FSCTRL1
  N:0029H         SYMBOL        TI_CCXXX0_FSTEST
  N:0002H         SYMBOL        TI_CCXXX0_IOCFG0
  N:0001H         SYMBOL        TI_CCXXX0_IOCFG1
  N:0000H         SYMBOL        TI_CCXXX0_IOCFG2
  N:0033H         SYMBOL        TI_CCXXX0_LQI
  N:0035H         SYMBOL        TI_CCXXX0_MARCSTATE
  N:0018H         SYMBOL        TI_CCXXX0_MCSM0
  N:0017H         SYMBOL        TI_CCXXX0_MCSM1
  N:0016H         SYMBOL        TI_CCXXX0_MCSM2
  N:0014H         SYMBOL        TI_CCXXX0_MDMCFG0
  N:0013H         SYMBOL        TI_CCXXX0_MDMCFG1
  N:0012H         SYMBOL        TI_CCXXX0_MDMCFG2
  N:0011H         SYMBOL        TI_CCXXX0_MDMCFG3
  N:0010H         SYMBOL        TI_CCXXX0_MDMCFG4
  N:007FH         SYMBOL        TI_CCXXX0_NUM_RXBYTES
  N:0030H         SYMBOL        TI_CCXXX0_PARTNUM
  N:003EH         SYMBOL        TI_CCXXX0_PATABLE
  N:0008H         SYMBOL        TI_CCXXX0_PKTCTRL0
  N:0007H         SYMBOL        TI_CCXXX0_PKTCTRL1
  N:0006H         SYMBOL        TI_CCXXX0_PKTLEN
  N:0038H         SYMBOL        TI_CCXXX0_PKTSTATUS
  N:002AH         SYMBOL        TI_CCXXX0_PTEST
  N:0028H         SYMBOL        TI_CCXXX0_RCCTRL0
  N:0027H         SYMBOL        TI_CCXXX0_RCCTRL1
  N:0034H         SYMBOL        TI_CCXXX0_RSSI
  N:003BH         SYMBOL        TI_CCXXX0_RXBYTES
  N:003FH         SYMBOL        TI_CCXXX0_RXFIFO
  N:0037H         SYMBOL        TI_CCXXX0_SAFC
  N:0033H         SYMBOL        TI_CCXXX0_SCAL
  N:003AH         SYMBOL        TI_CCXXX0_SFRX
  N:003BH         SYMBOL        TI_CCXXX0_SFTX
  N:0036H         SYMBOL        TI_CCXXX0_SIDLE
  N:003DH         SYMBOL        TI_CCXXX0_SNOP
  N:0039H         SYMBOL        TI_CCXXX0_SPWD
  N:0030H         SYMBOL        TI_CCXXX0_SRES
  N:0034H         SYMBOL        TI_CCXXX0_SRX
  N:0035H         SYMBOL        TI_CCXXX0_STX
  N:0038H         SYMBOL        TI_CCXXX0_SWOR
  N:003CH         SYMBOL        TI_CCXXX0_SWORRST
  N:0032H         SYMBOL        TI_CCXXX0_SXOFF
  N:0005H         SYMBOL        TI_CCXXX0_SYNC0
  N:0004H         SYMBOL        TI_CCXXX0_SYNC1
  N:002EH         SYMBOL        TI_CCXXX0_TEST0
  N:002DH         SYMBOL        TI_CCXXX0_TEST1
  N:002CH         SYMBOL        TI_CCXXX0_TEST2
  N:003AH         SYMBOL        TI_CCXXX0_TXBYTES
  N:003FH         SYMBOL        TI_CCXXX0_TXFIFO
BL51 BANKED LINKER/LOCATER V6.05                                                      09/23/2016  17:07:17  PAGE 144


  N:0039H         SYMBOL        TI_CCXXX0_VCO_VC_DAC
  N:0031H         SYMBOL        TI_CCXXX0_VERSION
  N:0020H         SYMBOL        TI_CCXXX0_WORCTRL
  N:001FH         SYMBOL        TI_CCXXX0_WOREVT0
  N:001EH         SYMBOL        TI_CCXXX0_WOREVT1
  N:0037H         SYMBOL        TI_CCXXX0_WORTIME0
  N:0036H         SYMBOL        TI_CCXXX0_WORTIME1
  C:5472H         SYMBOL        VST_BJ_READ0002
  C:542EH         SYMBOL        VST_BJ_READ0012
  C:5450H         SYMBOL        VST_BJ_READ0019
  C:53C3H         SYMBOL        VST_BJ_SETBJNOPRE
  C:53C6H         SYMBOL        VST_BJ_SETBJPREOVER
  N:008FH         SYMBOL        WAKE_CLKO
  B:00B0H.2       SYMBOL        WKO_BK
  C:5837H         SYMBOL        _FUN_DELAY_100US
  C:5836H         SYMBOL        _FUN_DSRC_OBUCHANNEL
  C:505DH         LINE#         63
  C:505FH         LINE#         64
  C:5061H         LINE#         67
  C:5064H         LINE#         68
  C:5066H         LINE#         69
  C:5069H         LINE#         77
  C:506BH         LINE#         78
  C:506DH         LINE#         79
  C:506FH         LINE#         81
  C:5070H         LINE#         83
  C:5073H         LINE#         84
  C:5075H         LINE#         85
  C:5076H         LINE#         86
  C:5077H         LINE#         87
  C:5078H         LINE#         88
  C:507AH         LINE#         99
  C:507DH         LINE#         100
  C:507FH         LINE#         101
  C:5082H         LINE#         104
  C:5084H         LINE#         105
  C:5085H         LINE#         106
  C:5087H         LINE#         107
  C:5089H         LINE#         126
  C:508BH         LINE#         128
  C:508EH         LINE#         129
  C:5090H         LINE#         130
  C:5091H         LINE#         131
  C:5093H         LINE#         132
  C:5095H         LINE#         134
  C:5098H         LINE#         135
  C:509AH         LINE#         136
  C:509BH         LINE#         139
  C:509CH         LINE#         140
  C:509DH         LINE#         141
  C:509EH         LINE#         143
  C:50A1H         LINE#         144
  C:50A3H         LINE#         145
  C:50A4H         LINE#         148
  C:50A5H         LINE#         149
  C:50A6H         LINE#         150
  C:50A7H         LINE#         151
BL51 BANKED LINKER/LOCATER V6.05                                                      09/23/2016  17:07:17  PAGE 145


  C:50A9H         LINE#         152
  C:50ABH         LINE#         154
  C:50AEH         LINE#         155
  C:50B0H         LINE#         156
  C:50B1H         LINE#         160
  C:50B3H         LINE#         161
  C:50B4H         LINE#         163
  C:50B7H         LINE#         164
  C:50B9H         LINE#         165
  C:50BAH         LINE#         178
  C:50BCH         LINE#         187
  C:50BEH         LINE#         188
  C:50BFH         LINE#         197
  C:50C2H         LINE#         199
  C:50C4H         LINE#         200
  C:50C5H         LINE#         208
  C:50C8H         LINE#         210
  C:50CAH         LINE#         211
  C:50CBH         LINE#         212
  C:50CDH         LINE#         223
  C:50D0H         LINE#         224
  C:50D3H         LINE#         225
  C:50D6H         LINE#         226
  C:50D8H         LINE#         227
  C:50DBH         LINE#         229
  C:50DDH         LINE#         230
  C:50E0H         LINE#         240
  C:50E3H         LINE#         249
  C:50E6H         LINE#         250
  C:50E9H         LINE#         251
  C:50ECH         LINE#         252
  C:50EEH         LINE#         253
  C:50F1H         LINE#         257
  C:50F3H         LINE#         258
  C:50F5H         LINE#         259
  C:50F6H         LINE#         261
  C:50F9H         LINE#         267
  C:50FCH         LINE#         268
  C:50FEH         LINE#         269
  C:50FFH         LINE#         270
  C:5101H         LINE#         272
  C:5104H         LINE#         273
  C:5106H         LINE#         274
  C:5107H         LINE#         276
  C:5109H         LINE#         277
  C:510BH         LINE#         279
  C:510EH         LINE#         280
  C:5110H         LINE#         281
  C:5111H         LINE#         283
  C:5113H         LINE#         284
  C:5115H         LINE#         286
  C:5118H         LINE#         287
  C:511AH         LINE#         288
  C:511BH         LINE#         295
  C:511DH         LINE#         296
  C:511FH         LINE#         297
  C:5121H         LINE#         298
BL51 BANKED LINKER/LOCATER V6.05                                                      09/23/2016  17:07:17  PAGE 146


  C:5123H         LINE#         299
  C:5125H         LINE#         300
  C:5127H         LINE#         301
  C:512AH         LINE#         302
  C:512BH         LINE#         305
  C:512DH         LINE#         306
  C:512FH         LINE#         307
  C:5131H         LINE#         308
  C:5133H         LINE#         309
  C:5135H         LINE#         310
  C:5137H         LINE#         311
  C:513AH         LINE#         314
  C:513DH         LINE#         315
  C:513FH         LINE#         316
  C:5142H         LINE#         318
  C:5144H         LINE#         319
  C:5146H         LINE#         320
  C:5148H         LINE#         321
  C:514AH         LINE#         324
  C:514DH         LINE#         326
  C:514EH         LINE#         327
  C:5150H         LINE#         329
  C:5153H         LINE#         330
  C:5155H         LINE#         331
  C:5156H         LINE#         332
  C:5157H         LINE#         334
  C:515AH         LINE#         335
  C:515CH         LINE#         336
  C:515DH         LINE#         337
  C:515EH         LINE#         339
  C:5161H         LINE#         340
  C:5163H         LINE#         341
  C:5164H         LINE#         342
  C:5165H         LINE#         344
  C:5168H         LINE#         345
  C:516AH         LINE#         346
  C:516BH         LINE#         347
  C:516DH         LINE#         354
  C:5170H         LINE#         356
  C:5173H         LINE#         358
  C:5176H         LINE#         359
  C:5178H         LINE#         360
  C:5179H         LINE#         361
  C:517BH         LINE#         363
  C:517EH         LINE#         364
  C:5180H         LINE#         365
  C:5181H         LINE#         367
  C:5183H         LINE#         368
  C:5185H         LINE#         370
  C:5188H         LINE#         371
  C:518AH         LINE#         372
  C:518BH         LINE#         375
  C:518EH         LINE#         376
  C:5190H         LINE#         377
  C:5193H         LINE#         380
  C:5195H         LINE#         381
  C:5197H         LINE#         382
BL51 BANKED LINKER/LOCATER V6.05                                                      09/23/2016  17:07:17  PAGE 147


  C:5199H         LINE#         383
  C:519BH         LINE#         385
  C:519EH         LINE#         387
  C:519FH         LINE#         388
  C:51A1H         LINE#         390
  C:51A4H         LINE#         391
  C:51A6H         LINE#         392
  C:51A7H         LINE#         393
  C:51A8H         LINE#         395
  C:51ABH         LINE#         396
  C:51ADH         LINE#         397
  C:51AEH         LINE#         398
  C:51AFH         LINE#         400
  C:51B2H         LINE#         401
  C:51B4H         LINE#         402
  C:51B5H         LINE#         403
  C:51B6H         LINE#         405
  C:51B9H         LINE#         406
  C:51BBH         LINE#         407
  C:51BCH         LINE#         410
  C:51BDH         LINE#         417
  C:51BFH         LINE#         419
  C:51C2H         LINE#         421
  C:51C5H         LINE#         422
  C:51C7H         LINE#         423
  C:51C8H         LINE#         424
  C:51CAH         LINE#         426
  C:51CDH         LINE#         427
  C:51CFH         LINE#         428
  C:51D0H         LINE#         430
  C:51D2H         LINE#         431
  C:51D4H         LINE#         433
  C:51D7H         LINE#         434
  C:51D9H         LINE#         435
  C:51DAH         LINE#         438
  C:51DDH         LINE#         439
  C:51DFH         LINE#         440
  C:51E2H         LINE#         442
  C:51E4H         LINE#         443
  C:51E6H         LINE#         444
  C:51E8H         LINE#         445
  C:51EAH         LINE#         447
  C:51EDH         LINE#         449
  C:51EEH         LINE#         450
  C:51F0H         LINE#         452
  C:51F3H         LINE#         453
  C:51F5H         LINE#         454
  C:51F6H         LINE#         455
  C:51F7H         LINE#         457
  C:51FAH         LINE#         458
  C:51FCH         LINE#         459
  C:51FDH         LINE#         460
  C:51FEH         LINE#         462
  C:5201H         LINE#         463
  C:5203H         LINE#         464
  C:5204H         LINE#         465
  C:5205H         LINE#         467
BL51 BANKED LINKER/LOCATER V6.05                                                      09/23/2016  17:07:17  PAGE 148


  C:5208H         LINE#         468
  C:520AH         LINE#         469
  C:520BH         LINE#         471
  C:520CH         LINE#         473
  C:520EH         LINE#         476
  C:5210H         LINE#         481
  C:5213H         LINE#         487
  C:5215H         LINE#         488
  C:5216H         LINE#         489
  C:5219H         LINE#         491
  C:521CH         LINE#         494
  C:521EH         LINE#         495
  C:521FH         LINE#         502
  C:5221H         LINE#         503
  C:5223H         LINE#         504
  C:5225H         LINE#         509
  C:5228H         LINE#         510
  C:522BH         LINE#         511
  C:522EH         LINE#         512
  C:522FH         LINE#         513
  C:5231H         LINE#         514
  C:5234H         LINE#         515
  C:5236H         LINE#         517
  C:5238H         LINE#         518
  C:5239H         LINE#         519
  C:523AH         LINE#         522
  C:523DH         LINE#         523
  C:5240H         LINE#         524
  C:5243H         LINE#         527
  C:5245H         LINE#         528
  C:5246H         LINE#         530
  C:5248H         LINE#         531
  C:524BH         LINE#         534
  C:524EH         LINE#         536
  C:5251H         LINE#         538
  C:5253H         LINE#         540
  C:5255H         LINE#         541
  C:5257H         LINE#         543
  C:525AH         LINE#         544
  C:525CH         LINE#         545
  C:525DH         LINE#         546
  C:525EH         LINE#         547
  C:5260H         LINE#         549
  C:5261H         LINE#         550
  C:5262H         LINE#         553
  C:5264H         LINE#         554
  C:5266H         LINE#         559
  C:5269H         LINE#         560
  C:526BH         LINE#         562
  C:526EH         LINE#         563
  C:526FH         LINE#         564
  C:5270H         LINE#         566
  C:5273H         LINE#         567
  C:5274H         LINE#         568
  C:5275H         LINE#         579
  C:5278H         LINE#         580
  C:527AH         LINE#         581
BL51 BANKED LINKER/LOCATER V6.05                                                      09/23/2016  17:07:17  PAGE 149


  C:527BH         LINE#         582
  C:527DH         LINE#         584
  C:527EH         LINE#         585
  C:527FH         LINE#         586
  C:5280H         LINE#         594
  C:5283H         LINE#         595
  C:5285H         LINE#         596
  C:5287H         LINE#         597
  C:5289H         LINE#         598
  C:528CH         LINE#         599
  C:528EH         LINE#         600
  C:5290H         LINE#         601
  C:5292H         LINE#         602
  C:5293H         LINE#         620
  C:5294H         LINE#         621
  C:5295H         LINE#         622
  C:5296H         LINE#         638
  C:5298H         LINE#         639
  C:529AH         LINE#         641
  C:529CH         LINE#         642
  C:529EH         LINE#         644
  C:52A1H         LINE#         645
  C:52A3H         LINE#         648
  C:52A6H         LINE#         649
  C:52A7H         LINE#         650
  C:52A8H         LINE#         659
  C:52ABH         LINE#         660
  C:52ADH         LINE#         661
  C:52AEH         LINE#         662
  C:52B0H         LINE#         664
  C:52B1H         LINE#         665
  C:52B2H         LINE#         670
  C:52B3H         LINE#         672
  C:52B6H         LINE#         673
  C:52B8H         LINE#         674
  C:52BAH         LINE#         675
  C:52BCH         LINE#         676
  C:52BFH         LINE#         677
  C:52C1H         LINE#         678
  C:52C3H         LINE#         679
  C:52C5H         LINE#         680
  C:52C6H         LINE#         682
  C:52C7H         LINE#         683
  C:52C8H         LINE#         684
  C:52C9H         LINE#         707
  C:52CBH         LINE#         708
  C:52CDH         LINE#         710
  C:52CFH         LINE#         711
  C:52D1H         LINE#         713
  C:52D4H         LINE#         714
  C:52D6H         LINE#         717
  C:52D9H         LINE#         718
  C:52DAH         LINE#         719
  C:52DBH         LINE#         721
  C:52DEH         LINE#         722
  C:52DFH         LINE#         723
  C:52E0H         LINE#         725
BL51 BANKED LINKER/LOCATER V6.05                                                      09/23/2016  17:07:17  PAGE 150


  C:52E3H         LINE#         726
  C:52E4H         LINE#         727
  C:52E5H         LINE#         737
  C:52E8H         LINE#         738
  C:52EAH         LINE#         739
  C:52EBH         LINE#         740
  C:52EDH         LINE#         742
  C:52EEH         LINE#         743
  C:52EFH         LINE#         744
  C:52F0H         LINE#         746
  C:52F3H         LINE#         747
  C:52F5H         LINE#         748
  C:52F7H         LINE#         749
  C:52F9H         LINE#         750
  C:52FCH         LINE#         751
  C:52FEH         LINE#         752
  C:5300H         LINE#         753
  C:5302H         LINE#         754
  C:5303H         LINE#         755
  C:5304H         LINE#         756
  C:5305H         LINE#         757
  C:5306H         LINE#         760
  C:5308H         LINE#         761
  C:530AH         LINE#         768
  C:530DH         LINE#         769
  C:530FH         LINE#         780
  C:5312H         LINE#         781
  C:5314H         LINE#         782
  C:5315H         LINE#         783
  C:5317H         LINE#         785
  C:5318H         LINE#         786
  C:5319H         LINE#         787
  C:531AH         LINE#         789
  C:531DH         LINE#         790
  C:531FH         LINE#         791
  C:5321H         LINE#         792
  C:5323H         LINE#         793
  C:5326H         LINE#         794
  C:5328H         LINE#         795
  C:532AH         LINE#         796
  C:532CH         LINE#         797
  C:532DH         LINE#         798
  C:532EH         LINE#         799
  C:532FH         LINE#         800
  C:5330H         LINE#         809
  C:5332H         LINE#         815
  C:5335H         LINE#         816
  C:5337H         LINE#         899
  C:5339H         LINE#         901
  C:533BH         LINE#         903
  C:533EH         LINE#         904
  C:5340H         LINE#         905
  C:5341H         LINE#         906
  C:5343H         LINE#         907
  C:5345H         LINE#         908
  C:5347H         LINE#         909
  C:5349H         LINE#         911
BL51 BANKED LINKER/LOCATER V6.05                                                      09/23/2016  17:07:17  PAGE 151


  C:534CH         LINE#         912
  C:534EH         LINE#         913
  C:534FH         LINE#         915
  C:5351H         LINE#         918
  C:5354H         LINE#         919
  C:5357H         LINE#         920
  C:535AH         LINE#         923
  C:535CH         LINE#         925
  C:535FH         LINE#         926
  C:5361H         LINE#         927
  C:5362H         LINE#         928
  C:5363H         LINE#         931
  C:5364H         LINE#         933
  C:5366H         LINE#         934
  C:5367H         LINE#         935
  C:5369H         LINE#         936
  C:536BH         LINE#         948
  C:536CH         LINE#         950
  C:536EH         LINE#         951
  C:536FH         LINE#         952
  C:5371H         LINE#         955
  C:5374H         LINE#         956
  C:5377H         LINE#         958
  C:5379H         LINE#         960
  C:537CH         LINE#         961
  C:537EH         LINE#         962
  C:5380H         LINE#         964
  C:5382H         LINE#         965
  C:5384H         LINE#         985
  C:5386H         LINE#         987
  C:5388H         LINE#         991
  C:538BH         LINE#         992
  C:538DH         LINE#         993
  C:538EH         LINE#         994
  C:538FH         LINE#         1006
  C:5391H         LINE#         1008
  C:5394H         LINE#         1009
  C:5396H         LINE#         1010
  C:5397H         LINE#         1014
  C:539AH         LINE#         1015
  C:539CH         LINE#         1016
  C:539DH         LINE#         1017
  C:539EH         LINE#         1019
  C:53A1H         LINE#         1041
  C:53A3H         LINE#         1043
  C:53A6H         LINE#         1044
  C:53A9H         LINE#         1045
  C:53ACH         LINE#         1046
  C:53ADH         LINE#         1047
  C:53AFH         LINE#         1048
  C:53B2H         LINE#         1049
  C:53B4H         LINE#         1051
  C:53B6H         LINE#         1052
  C:53B7H         LINE#         1053
  C:53B8H         LINE#         1068
  C:53BAH         LINE#         1069
  C:53BBH         LINE#         1071
BL51 BANKED LINKER/LOCATER V6.05                                                      09/23/2016  17:07:17  PAGE 152


  C:53BEH         LINE#         1073
  C:53C1H         LINE#         1075
  C:53C3H         LINE#         1082
  C:53C6H         LINE#         1084
  C:53C9H         LINE#         1085
  C:53CCH         LINE#         1086
  C:53CFH         LINE#         1088
  C:53D1H         LINE#         1091
  C:53D3H         LINE#         1092
  C:53D5H         LINE#         1094
  C:53D8H         LINE#         1095
  C:53DAH         LINE#         1096
  C:53DBH         LINE#         1097
  C:53DCH         LINE#         1098
  C:53DEH         LINE#         1103
  C:53E0H         LINE#         1104
  C:53E2H         LINE#         1105
  C:53E5H         LINE#         1106
  C:53E8H         LINE#         1107
  C:53EAH         LINE#         1108
  C:53ECH         LINE#         1109
  C:53EFH         LINE#         1110
  C:53F1H         LINE#         1112
  C:53F4H         LINE#         1113
  C:53F6H         LINE#         1114
  C:53F7H         LINE#         1115
  C:53F8H         LINE#         1116
  C:53FAH         LINE#         1117
  C:53FCH         LINE#         1119
  C:53FFH         LINE#         1121
  C:5401H         LINE#         1122
  C:5403H         LINE#         1124
  C:5405H         LINE#         1126
  C:5407H         LINE#         1140
  C:540AH         LINE#         1141
  C:540CH         LINE#         1142
  C:540EH         LINE#         1143
  C:5410H         LINE#         1148
  C:5412H         LINE#         1149
  C:5413H         LINE#         1157
  C:5416H         LINE#         1158
  C:5418H         LINE#         1159
  C:541AH         LINE#         1160
  C:541CH         LINE#         1161
  C:541FH         LINE#         1162
  C:5421H         LINE#         1163
  C:5423H         LINE#         1164
  C:5425H         LINE#         1165
  C:5426H         LINE#         1179
  C:5427H         LINE#         1180
  C:5428H         LINE#         1181
  C:5429H         LINE#         1188
  C:542CH         LINE#         1189
  C:542EH         LINE#         1195
  C:5431H         LINE#         1196
  C:5433H         LINE#         1198
  C:5435H         LINE#         1206
BL51 BANKED LINKER/LOCATER V6.05                                                      09/23/2016  17:07:17  PAGE 153


  C:5437H         LINE#         1207
  C:5438H         LINE#         1209
  C:543BH         LINE#         1210
  C:543DH         LINE#         1211
  C:543FH         LINE#         1212
  C:5441H         LINE#         1213
  C:5444H         LINE#         1214
  C:5446H         LINE#         1215
  C:5448H         LINE#         1216
  C:544AH         LINE#         1217
  C:544BH         LINE#         1218
  C:544CH         LINE#         1219
  C:544DH         LINE#         1220
  C:544EH         LINE#         1222
  C:5450H         LINE#         1232
  C:5453H         LINE#         1233
  C:5455H         LINE#         1234
  C:5457H         LINE#         1235
  C:5459H         LINE#         1239
  C:545BH         LINE#         1240
  C:545CH         LINE#         1242
  C:545FH         LINE#         1243
  C:5461H         LINE#         1244
  C:5463H         LINE#         1245
  C:5465H         LINE#         1246
  C:5468H         LINE#         1247
  C:546AH         LINE#         1248
  C:546CH         LINE#         1249
  C:546EH         LINE#         1250
  C:546FH         LINE#         1251
  C:5470H         LINE#         1252
  C:5471H         LINE#         1253
  C:5472H         LINE#         1258
  C:5475H         LINE#         1259
  C:5477H         LINE#         1261
  C:5479H         LINE#         1265
  C:547BH         LINE#         1266
  C:547CH         LINE#         1268
  C:547FH         LINE#         1269
  C:5481H         LINE#         1270
  C:5483H         LINE#         1271
  C:5485H         LINE#         1272
  C:5488H         LINE#         1273
  C:548AH         LINE#         1274
  C:548CH         LINE#         1275
  C:548EH         LINE#         1276
  C:548FH         LINE#         1277
  C:5490H         LINE#         1278
  C:5491H         LINE#         1279
  C:5492H         LINE#         1283
  C:5495H         LINE#         1313
  C:5498H         LINE#         1314
  C:549AH         LINE#         1315
  C:549DH         LINE#         1318
  C:549FH         LINE#         1320
  C:54A2H         LINE#         1321
  C:54A4H         LINE#         1322
BL51 BANKED LINKER/LOCATER V6.05                                                      09/23/2016  17:07:17  PAGE 154


  C:54A5H         LINE#         1324
  C:54A6H         LINE#         1325
  C:54A8H         LINE#         1326
  C:54A9H         LINE#         1328
  C:54ABH         LINE#         1329
  C:54ADH         LINE#         1330
  C:54AEH         LINE#         1331
  C:54B0H         LINE#         1338
  C:54B3H         LINE#         1339
  C:54B5H         LINE#         1340
  C:54B6H         LINE#         1341
  C:54B7H         LINE#         1342
  C:54B9H         LINE#         1344
  C:54BCH         LINE#         1345
  C:54BEH         LINE#         1346
  C:54BFH         LINE#         1348
  C:54C0H         LINE#         1349
  C:54C2H         LINE#         1384
  C:54C3H         LINE#         1385
  C:54C4H         LINE#         1387
  C:54C7H         LINE#         1388
  C:54CAH         LINE#         1392
  C:54CBH         LINE#         1393
  C:54CCH         LINE#         1395
  C:54CFH         LINE#         1396
  C:54D1H         LINE#         1397
  C:54D2H         LINE#         1400
  C:54D3H         LINE#         1401
  C:54D4H         LINE#         1402
  C:54D5H         LINE#         1403
  C:54D6H         LINE#         1405
  C:54D8H         LINE#         1406
  C:54DAH         LINE#         1407
  C:54DBH         LINE#         1408
  C:54DCH         LINE#         1409
  C:54DDH         LINE#         1410
  C:54E0H         LINE#         1412
  C:54E1H         LINE#         1413
  C:54E2H         LINE#         1414
  C:54E3H         LINE#         1418
  C:54E4H         LINE#         1419
  C:54E5H         LINE#         1420
  C:54E7H         LINE#         1421
  C:54E9H         LINE#         1424
  C:54EAH         LINE#         1425
  C:54EBH         LINE#         1426
  C:54ECH         LINE#         1427
  C:54EDH         LINE#         1430
  C:54EEH         LINE#         1431
  C:54F1H         LINE#         1434
  C:54F3H         LINE#         1436
  C:54F6H         LINE#         1437
  C:54F8H         LINE#         1438
  C:54F9H         LINE#         1439
  C:54FBH         LINE#         1441
  C:54FDH         LINE#         1443
  C:5500H         LINE#         1444
BL51 BANKED LINKER/LOCATER V6.05                                                      09/23/2016  17:07:17  PAGE 155


  C:5502H         LINE#         1445
  C:5503H         LINE#         1449
  C:5504H         LINE#         1450
  C:5505H         LINE#         1451
  C:5506H         LINE#         1453
  C:5509H         LINE#         1454
  C:550BH         LINE#         1455
  C:550CH         LINE#         1458
  C:550DH         LINE#         1459
  C:5510H         LINE#         1461
  C:5512H         LINE#         1463
  C:5515H         LINE#         1464
  C:5517H         LINE#         1465
  C:5518H         LINE#         1466
  C:551AH         LINE#         1468
  C:551DH         LINE#         1469
  C:551FH         LINE#         1471
  C:5522H         LINE#         1472
  C:5524H         LINE#         1473
  C:5525H         LINE#         1474
  C:5527H         LINE#         1476
  C:5529H         LINE#         1478
  C:552CH         LINE#         1479
  C:552EH         LINE#         1480
  C:552FH         LINE#         1490
  C:5530H         LINE#         1491
  C:5531H         LINE#         1492
  C:5532H         LINE#         1493
  C:5533H         LINE#         1500
  C:5536H         LINE#         1510
  C:5539H         LINE#         1513
  C:553AH         LINE#         1514
  C:553CH         LINE#         1515
  C:553DH         LINE#         1517
  C:553FH         LINE#         1518
  C:5541H         LINE#         1519
  C:5543H         LINE#         1521
  C:5544H         LINE#         1522
  C:5545H         LINE#         1524
  C:5548H         LINE#         1525
  C:554AH         LINE#         1526
  C:554BH         LINE#         1527
  C:554CH         LINE#         1528
  C:554DH         LINE#         1536
  C:5550H         LINE#         1545
  C:5553H         LINE#         1547
  C:5554H         LINE#         1552
  C:5557H         LINE#         1555
  C:555AH         LINE#         1556
  C:555CH         LINE#         1557
  C:555DH         LINE#         1558
  C:555EH         LINE#         1559
  C:555FH         LINE#         1561
  C:5562H         LINE#         1563
  C:5565H         LINE#         1565
  C:5567H         LINE#         1566
  C:5569H         LINE#         1574
BL51 BANKED LINKER/LOCATER V6.05                                                      09/23/2016  17:07:17  PAGE 156


  C:556CH         LINE#         1575
  C:556EH         LINE#         1576
  C:5570H         LINE#         1581
  C:5573H         LINE#         1583
  C:5576H         LINE#         1584
  C:5578H         LINE#         1585
  C:5579H         LINE#         1586
  C:557AH         LINE#         1587
  C:557BH         LINE#         1595
  C:557EH         LINE#         1599
  C:5581H         LINE#         1600
  C:5583H         LINE#         1601
  C:5584H         LINE#         1602
  C:5585H         LINE#         1603
  C:5587H         LINE#         1607
  C:558AH         LINE#         1608
  C:558CH         LINE#         1609
  C:558DH         LINE#         1610
  C:558EH         LINE#         1611
  C:558FH         LINE#         1619
  C:5592H         LINE#         1624
  C:5593H         LINE#         1626
  C:5596H         LINE#         1627
  C:5598H         LINE#         1628
  C:5599H         LINE#         1629
  C:559AH         LINE#         1635
  C:559CH         LINE#         1636
  C:559EH         LINE#         1644
  C:559FH         LINE#         1645
  C:55A1H         LINE#         1647
  C:55A4H         LINE#         1648
  C:55A6H         LINE#         1649
  C:55A7H         LINE#         1650
  C:55A8H         LINE#         1651
  C:55A9H         LINE#         1653
  C:55AAH         LINE#         1655
  C:55ADH         LINE#         1656
  C:55AFH         LINE#         1657
  C:55B0H         LINE#         1658
  C:55B1H         LINE#         1665
  C:55B2H         LINE#         1671
  C:55B3H         LINE#         1672
  C:55B5H         LINE#         1673
  C:55B6H         LINE#         1675
  C:55B7H         LINE#         1677
  C:55BAH         LINE#         1678
  C:55BCH         LINE#         1679
  C:55BDH         LINE#         1681
  C:55BEH         LINE#         1682
  C:55BFH         LINE#         1684
  C:55C1H         LINE#         1685
  C:55C3H         LINE#         1687
  C:55C5H         LINE#         1688
  C:55C7H         LINE#         1689
  C:55C9H         LINE#         1690
  C:55CBH         LINE#         1784
  C:55CEH         LINE#         1806
BL51 BANKED LINKER/LOCATER V6.05                                                      09/23/2016  17:07:17  PAGE 157


  C:55D0H         LINE#         1925
  C:55D3H         LINE#         1956
  C:55D6H         LINE#         1957
  C:55D7H         LINE#         1958
  C:55D8H         LINE#         1959
  C:55DAH         LINE#         1964
  C:55DCH         LINE#         1965
  C:55DDH         LINE#         1966
  C:55DFH         LINE#         1967
  C:55E0H         LINE#         1968
  C:55E1H         LINE#         1969
  C:55E2H         LINE#         1970
  C:55E3H         LINE#         1971
  C:55E5H         LINE#         1973
  C:55E7H         LINE#         1975
  C:55E8H         LINE#         1976
  C:55EAH         LINE#         1977
  C:55EBH         LINE#         1979
  C:55EDH         LINE#         1981
  C:55EEH         LINE#         1982
  C:55EFH         LINE#         1984
  C:55F0H         LINE#         1985
  C:55F1H         LINE#         1987
  C:55F3H         LINE#         1989
  C:55F5H         LINE#         1990
  C:55F7H         LINE#         1991
  C:55FAH         LINE#         1992
  C:55FDH         LINE#         1993
  C:5600H         LINE#         1995
  C:5602H         LINE#         1996
  C:5604H         LINE#         1997
  C:5606H         LINE#         2000
  C:5609H         LINE#         2020
  C:560BH         LINE#         2021
  C:560DH         LINE#         2022
  C:560FH         LINE#         2036
  C:5610H         LINE#         2037
  C:5611H         LINE#         2038
  C:5612H         LINE#         2039
  C:5613H         LINE#         2040
  C:5614H         LINE#         2043
  C:5617H         LINE#         2044
  C:5619H         LINE#         2045
  C:561AH         LINE#         2049
  C:561CH         LINE#         2050
  C:561EH         LINE#         2051
  C:5621H         LINE#         2063
  C:5624H         LINE#         2067
  C:5626H         LINE#         2069
  C:5627H         LINE#         2071
  C:562AH         LINE#         2072
  C:562CH         LINE#         2073
  C:562DH         LINE#         2074
  C:562EH         LINE#         2075
  C:5630H         LINE#         2078
  C:5631H         LINE#         2079
  C:5634H         LINE#         2081
BL51 BANKED LINKER/LOCATER V6.05                                                      09/23/2016  17:07:17  PAGE 158


  C:5636H         LINE#         2082
  C:5637H         LINE#         2083
  C:5638H         LINE#         2085
  C:5639H         LINE#         2086
  C:563AH         LINE#         2088
  C:563CH         LINE#         2090
  C:563EH         LINE#         2097
  C:563FH         LINE#         2102
  C:5641H         LINE#         2103
  C:5643H         LINE#         2104
  C:5644H         LINE#         2105
  C:5646H         LINE#         2106
  C:5648H         LINE#         2107
  C:5649H         LINE#         2109
  C:564AH         LINE#         2110
  C:564CH         LINE#         2112
  C:564DH         LINE#         2113
  C:564EH         LINE#         2115
  C:5650H         LINE#         2117
  C:5653H         LINE#         2120
  C:5656H         LINE#         2132
  C:5657H         LINE#         2133
  C:5658H         LINE#         2134
  C:5659H         LINE#         2136
  C:565BH         LINE#         2138
  C:565EH         LINE#         2139
  C:5660H         LINE#         2140
  C:5661H         LINE#         2142
  C:5662H         LINE#         2143
  C:5664H         LINE#         2146
  C:5666H         LINE#         2147
  C:5667H         LINE#         2156
  C:5668H         LINE#         2157
  C:566AH         LINE#         2158
  C:566CH         LINE#         2161
  C:566EH         LINE#         2162
  C:566FH         LINE#         2165
  C:5672H         LINE#         2166
  C:5674H         LINE#         2167
  C:5675H         LINE#         2168
  C:5677H         LINE#         2169
  C:5679H         LINE#         2178
  C:567CH         LINE#         2179
  C:567DH         LINE#         2180
  C:5680H         LINE#         2181
  C:5682H         LINE#         2183
  C:5684H         LINE#         2185
  C:5687H         LINE#         2186
  C:5689H         LINE#         2187
  C:568AH         LINE#         2188
  C:568BH         LINE#         2189
  C:568CH         LINE#         2192
  C:568EH         LINE#         2193
  C:568FH         LINE#         2194
  C:5691H         LINE#         2196
  C:5692H         LINE#         2198
  C:5695H         LINE#         2199
BL51 BANKED LINKER/LOCATER V6.05                                                      09/23/2016  17:07:17  PAGE 159


  C:5697H         LINE#         2200
  C:5698H         LINE#         2202
  C:5699H         LINE#         2203
  C:569AH         LINE#         2204
  C:569BH         LINE#         2205
  C:569CH         LINE#         2206
  C:569DH         LINE#         2207
  C:569EH         LINE#         2208
  C:56A0H         LINE#         2211
  C:56A2H         LINE#         2212
  C:56A3H         LINE#         2233
  C:56A4H         LINE#         2279
  C:56A7H         LINE#         2293
  C:56A8H         LINE#         2295
  C:56ABH         LINE#         2296
  C:56ADH         LINE#         2297
  C:56AEH         LINE#         2298
  C:56AFH         LINE#         2346
  C:56B2H         LINE#         2347
  C:56B5H         LINE#         2359
  C:56B6H         LINE#         2360
  C:56B7H         LINE#         2370
  C:56B9H         LINE#         2372
  C:56BCH         LINE#         2373
  C:56BEH         LINE#         2374
  C:56BFH         LINE#         2375
  C:56C0H         LINE#         2376
  C:56C2H         LINE#         2378
  C:56C5H         LINE#         2379
  C:56C7H         LINE#         2380
  C:56C8H         LINE#         2381
  C:56C9H         LINE#         2383
  C:56CCH         LINE#         2384
  C:56CEH         LINE#         2385
  C:56CFH         LINE#         2386
  C:56D0H         LINE#         2388
  C:56D1H         LINE#         2389
  C:56D2H         LINE#         2390
  C:56D3H         LINE#         2391
  C:56D4H         LINE#         2392
  C:56D6H         LINE#         2393
  C:56D9H         LINE#         2427
  C:56DAH         LINE#         2428
  C:56DBH         LINE#         2430
  C:56DCH         LINE#         2431
  C:56DDH         LINE#         2433
  C:56DEH         LINE#         2434
  C:56DFH         LINE#         2436
  C:56E2H         LINE#         2437
  C:56E5H         LINE#         2439
  C:56E7H         LINE#         2440
  C:56E9H         LINE#         2441
  C:56EBH         LINE#         2444
  C:56ECH         LINE#         2445
  C:56EDH         LINE#         2451
  C:56F0H         LINE#         2455
  C:56F2H         LINE#         2456
BL51 BANKED LINKER/LOCATER V6.05                                                      09/23/2016  17:07:17  PAGE 160


  C:56F4H         LINE#         2460
  C:56F5H         LINE#         2461
  C:56F7H         LINE#         2463
  C:56F9H         LINE#         2466
  C:56FBH         LINE#         2467
  C:56FDH         LINE#         2468
  C:56FFH         LINE#         2470
  C:5702H         LINE#         2471
  C:5704H         LINE#         2472
  C:5705H         LINE#         2473
  C:5707H         LINE#         2475
  C:5709H         LINE#         2487
  C:570BH         LINE#         2489
  C:570DH         LINE#         2490
  C:570FH         LINE#         2491
  C:5710H         LINE#         2492
  C:5711H         LINE#         2493
  C:5712H         LINE#         2494
  C:5713H         LINE#         2495
  C:5714H         LINE#         2496
  C:5715H         LINE#         2497
  C:5716H         LINE#         2498
  C:5719H         LINE#         2499
  C:571BH         LINE#         2501
  C:571DH         LINE#         2502
  C:571FH         LINE#         2503
  C:5721H         LINE#         2505
  C:5722H         LINE#         2506
  C:5724H         LINE#         2508
  C:5726H         LINE#         2509
  C:5727H         LINE#         2510
  C:5728H         LINE#         2511
  C:572AH         LINE#         2513
  C:572CH         LINE#         2514
  C:572DH         LINE#         2515
  C:572EH         LINE#         2517
  C:5730H         LINE#         2518
  C:5731H         LINE#         2520
  C:5733H         LINE#         2524
  C:5734H         LINE#         2526
  C:5736H         LINE#         2527
  C:5738H         LINE#         2530
  C:573AH         LINE#         2531
  C:573CH         LINE#         2532
  C:573EH         LINE#         2534
  C:5741H         LINE#         2535
  C:5743H         LINE#         2536
  C:5744H         LINE#         2537
  C:5746H         LINE#         2538
  C:5748H         LINE#         2541
  C:574AH         LINE#         2542
  C:574CH         LINE#         2543
  C:574EH         LINE#         2545
  C:5751H         LINE#         2546
  C:5753H         LINE#         2547
  C:5754H         LINE#         2548
  C:5756H         LINE#         2560
BL51 BANKED LINKER/LOCATER V6.05                                                      09/23/2016  17:07:17  PAGE 161


  C:5759H         LINE#         2565
  C:575BH         LINE#         2566
  C:575DH         LINE#         2567
  C:575FH         LINE#         2569
  C:5760H         LINE#         2586
  C:5762H         LINE#         2621
  C:5763H         LINE#         2622
  C:5765H         LINE#         2625
  C:5767H         LINE#         2626
  C:5768H         LINE#         2627
  C:5769H         LINE#         2628
  C:576BH         LINE#         2631
  C:576DH         LINE#         2632
  C:576EH         LINE#         2633
  C:576FH         LINE#         2636
  C:5771H         LINE#         2637
  C:5772H         LINE#         2640
  C:5773H         LINE#         2642
  C:5774H         LINE#         2643
  C:5775H         LINE#         2644
  C:5776H         LINE#         2645
  C:5777H         LINE#         2646
  C:5778H         LINE#         2648
  C:577AH         LINE#         2649
  C:577CH         LINE#         2652
  C:577FH         LINE#         2655
  C:5780H         LINE#         2657
  C:5781H         LINE#         2659
  C:5784H         LINE#         2660
  C:5786H         LINE#         2661
  C:5787H         LINE#         2662
  C:5788H         LINE#         2663
  C:5789H         LINE#         2664
  C:578AH         LINE#         2665
  C:578BH         LINE#         2667
  C:578CH         LINE#         2668
  C:578DH         LINE#         2669
  C:578EH         LINE#         2670
  C:578FH         LINE#         2671
  C:5790H         LINE#         2673
  C:5791H         LINE#         2675
  C:5794H         LINE#         2676
  C:5796H         LINE#         2678
  C:5799H         LINE#         2680
  C:579AH         LINE#         2682
  C:579DH         LINE#         2683
  C:579FH         LINE#         2684
  C:57A0H         LINE#         2685
  C:57A1H         LINE#         2697
  C:57A3H         LINE#         2698
  C:57A5H         LINE#         2699
  C:57A6H         LINE#         2700
  C:57A8H         LINE#         2701
  C:57AAH         LINE#         2702
  C:57ABH         LINE#         2704
  C:57ACH         LINE#         2705
  C:57AEH         LINE#         2707
BL51 BANKED LINKER/LOCATER V6.05                                                      09/23/2016  17:07:17  PAGE 162


  C:57AFH         LINE#         2708
  C:57B0H         LINE#         2710
  C:57B2H         LINE#         2721
  C:57B5H         LINE#         2723
  C:57B7H         LINE#         2736
  C:57B8H         LINE#         2738
  C:57BBH         LINE#         2739
  C:57BDH         LINE#         2740
  C:57BEH         LINE#         2741
  C:57BFH         LINE#         2743
  C:57C0H         LINE#         2744
  C:57C1H         LINE#         2746
  C:57C2H         LINE#         2747
  C:57C3H         LINE#         2749
  C:57C4H         LINE#         2750
  C:57C5H         LINE#         2752
  C:57C8H         LINE#         2753
  C:57CBH         LINE#         2754
  C:57CDH         LINE#         2755
  C:57CFH         LINE#         2756
  C:57D1H         LINE#         2763
  C:57D4H         LINE#         2765
  C:57D6H         LINE#         2766
  C:57D8H         LINE#         2767
  C:57DAH         LINE#         2769
  C:57DBH         LINE#         2770
  C:57DDH         LINE#         2774
  C:57DEH         LINE#         2775
  C:57E0H         LINE#         2777
  C:57E3H         LINE#         2778
  C:57E5H         LINE#         2779
  C:57E6H         LINE#         2780
  C:57E7H         LINE#         2781
  C:57E9H         LINE#         2783
  C:57ECH         LINE#         2784
  C:57EEH         LINE#         2785
  C:57EFH         LINE#         2786
  C:57F0H         LINE#         2788
  C:57F3H         LINE#         2789
  C:57F5H         LINE#         2790
  C:57F6H         LINE#         2791
  C:57F7H         LINE#         2793
  C:57F8H         LINE#         2794
  C:57F9H         LINE#         2795
  C:57FAH         LINE#         2796
  C:57FBH         LINE#         2797
  C:57FCH         LINE#         2798
  C:57FEH         LINE#         2799
  C:5800H         LINE#         2801
  C:5801H         LINE#         2803
  C:5802H         LINE#         2805
  C:5805H         LINE#         2806
  C:5807H         LINE#         2807
  C:5808H         LINE#         2808
  C:5809H         LINE#         2809
  C:580AH         LINE#         2810
  C:580BH         LINE#         2811
BL51 BANKED LINKER/LOCATER V6.05                                                      09/23/2016  17:07:17  PAGE 163


  C:580CH         LINE#         2813
  C:580DH         LINE#         2814
  C:580EH         LINE#         2815
  C:580FH         LINE#         2816
  C:5810H         LINE#         2817
  C:5811H         LINE#         2819
  C:5812H         LINE#         2820
  C:5815H         LINE#         2825
  C:5816H         LINE#         2827
  C:5819H         LINE#         2828
  C:581BH         LINE#         2829
  C:581CH         LINE#         2830
  C:581DH         LINE#         2833
  C:581FH         LINE#         2846
  C:5820H         LINE#         2847
  C:5821H         LINE#         2848
  C:5823H         LINE#         2849
  C:5824H         LINE#         2852
  C:5826H         LINE#         2853
  C:5828H         LINE#         2855
  C:5829H         LINE#         2856
  C:582CH         LINE#         2857
  C:582EH         LINE#         2858
  C:582FH         LINE#         2859
  C:5830H         LINE#         2860
  C:5832H         LINE#         2862
  C:5833H         LINE#         2874
  C:5834H         LINE#         2886
  C:5835H         LINE#         2898
  C:5836H         LINE#         2913
  C:5837H         LINE#         2917
  C:5839H         LINE#         2918
  C:583BH         LINE#         2919
  C:583DH         LINE#         2920
  C:583FH         LINE#         2921
  C:5841H         LINE#         2922
  C:5843H         LINE#         2923
  C:5845H         LINE#         2925
  -------         ENDMOD        DSRC

  -------         MODULE        FLASH
  C:75FDH         SEGMENT       FLASH
  C:7699H         PUBLIC        _ERASEFLASH
  C:75FDH         PUBLIC        _RDFLASH
  C:7616H         PUBLIC        _RDFLASHXR
  C:763CH         PUBLIC        _WRFLASH
  C:7664H         PUBLIC        _WRFLASHXR
  C:76CAH         SYMBOL        BYTE_READ
  C:76D9H         SYMBOL        BYTE_WRITE
  D:0083H         SYMBOL        DPH
  D:0082H         SYMBOL        DPL
  B:00A8H.7       SYMBOL        EA
  N:0089H         SYMBOL        ENABLE_ISP
  C:76AEH         SYMBOL        ERASEFLASH_1
  C:76F5H         SYMBOL        IAP_DISABLE
  N:00C3H         SYMBOL        ISP_ADDRH
  N:00C4H         SYMBOL        ISP_ADDRL
BL51 BANKED LINKER/LOCATER V6.05                                                      09/23/2016  17:07:17  PAGE 164


  N:0001H         SYMBOL        ISP_BYTE_READ
  N:0002H         SYMBOL        ISP_BYTE_WRITE
  N:00C5H         SYMBOL        ISP_CMD
  N:00C7H         SYMBOL        ISP_CONTR
  N:00C2H         SYMBOL        ISP_DATA
  N:0003H         SYMBOL        ISP_SECTOR_ERASE
  N:00C6H         SYMBOL        ISP_TRIG
  C:7623H         SYMBOL        RDFLASHXR_1
  C:760AH         SYMBOL        RDFLASH_1
  N:0014H         SYMBOL        REG_VALUE_HIGHADDR
  N:005AH         SYMBOL        REG_VALUE_ISPTRIG01
  N:00A5H         SYMBOL        REG_VALUE_ISPTRIG02
  N:0002H         SYMBOL        REG_VALUE_LOWADDR
  C:76E8H         SYMBOL        SECTOR_ERASE
  N:0000H         SYMBOL        WAIT_TIME
  C:7680H         SYMBOL        WRFLASHXR_1
  C:7658H         SYMBOL        WRFLASH_1
  C:76B6H         SYMBOL        _ERASEFLASHSTART
  C:76A4H         SYMBOL        _ERASEFLASHSTART1
  C:76A1H         SYMBOL        _ERASEFLASHSTART2
  C:76B3H         SYMBOL        _ERASEFLASHSTART_ERR
  C:76C9H         SYMBOL        _ERASEFLASH_OVER
  C:763BH         SYMBOL        _RDFLASHXR_OVER
  C:7615H         SYMBOL        _RDFLASH_OVER
  C:7646H         SYMBOL        _WRFLASHSTART
  C:7643H         SYMBOL        _WRFLASHSTART_ERR
  C:766EH         SYMBOL        _WRFLASHXRSTART
  C:766BH         SYMBOL        _WRFLASHXRSTART_ERR
  C:7698H         SYMBOL        _WRFLASHXR_OVER
  C:7663H         SYMBOL        _WRFLASH_OVER
  C:75FDH         LINE#         40
  C:75FEH         LINE#         41
  C:7600H         LINE#         42
  C:7602H         LINE#         43
  C:7603H         LINE#         44
  C:7604H         LINE#         45
  C:7607H         LINE#         46
  C:760AH         LINE#         48
  C:760DH         LINE#         49
  C:760EH         LINE#         50
  C:760FH         LINE#         51
  C:7610H         LINE#         52
  C:7612H         LINE#         53
  C:7615H         LINE#         55
  C:7616H         LINE#         65
  C:7617H         LINE#         66
  C:7619H         LINE#         67
  C:761BH         LINE#         68
  C:761CH         LINE#         69
  C:761DH         LINE#         70
  C:7620H         LINE#         71
  C:7623H         LINE#         73
  C:7626H         LINE#         75
  C:7628H         LINE#         76
  C:762AH         LINE#         77
  C:762DH         LINE#         78
  C:762FH         LINE#         79
BL51 BANKED LINKER/LOCATER V6.05                                                      09/23/2016  17:07:17  PAGE 165


  C:7630H         LINE#         80
  C:7632H         LINE#         81
  C:7634H         LINE#         82
  C:7635H         LINE#         85
  C:7636H         LINE#         86
  C:7638H         LINE#         87
  C:763BH         LINE#         90
  C:763CH         LINE#         100
  C:763EH         LINE#         101
  C:7641H         LINE#         102
  C:7643H         LINE#         105
  C:7646H         LINE#         107
  C:7649H         LINE#         108
  C:764BH         LINE#         109
  C:764CH         LINE#         110
  C:764EH         LINE#         111
  C:7650H         LINE#         112
  C:7651H         LINE#         113
  C:7652H         LINE#         114
  C:7655H         LINE#         115
  C:7658H         LINE#         117
  C:7659H         LINE#         118
  C:765AH         LINE#         119
  C:765DH         LINE#         120
  C:765EH         LINE#         121
  C:7660H         LINE#         122
  C:7663H         LINE#         125
  C:7664H         LINE#         135
  C:7666H         LINE#         136
  C:7669H         LINE#         137
  C:766BH         LINE#         140
  C:766EH         LINE#         142
  C:7671H         LINE#         143
  C:7673H         LINE#         144
  C:7674H         LINE#         145
  C:7676H         LINE#         146
  C:7678H         LINE#         147
  C:7679H         LINE#         148
  C:767AH         LINE#         149
  C:767DH         LINE#         150
  C:7680H         LINE#         153
  C:7682H         LINE#         154
  C:7684H         LINE#         155
  C:7687H         LINE#         156
  C:7689H         LINE#         157
  C:768AH         LINE#         158
  C:768CH         LINE#         159
  C:768EH         LINE#         161
  C:768FH         LINE#         162
  C:7692H         LINE#         163
  C:7693H         LINE#         164
  C:7695H         LINE#         165
  C:7698H         LINE#         168
  C:7699H         LINE#         177
  C:769AH         LINE#         178
  C:769CH         LINE#         179
  C:769FH         LINE#         180
BL51 BANKED LINKER/LOCATER V6.05                                                      09/23/2016  17:07:17  PAGE 166


  C:76A1H         LINE#         183
  C:76A4H         LINE#         185
  C:76A6H         LINE#         186
  C:76A9H         LINE#         187
  C:76ACH         LINE#         188
  C:76AEH         LINE#         190
  C:76B1H         LINE#         191
  C:76B3H         LINE#         194
  C:76B6H         LINE#         196
  C:76B9H         LINE#         197
  C:76BBH         LINE#         199
  C:76BEH         LINE#         200
  C:76C0H         LINE#         201
  C:76C1H         LINE#         202
  C:76C2H         LINE#         203
  C:76C4H         LINE#         204
  C:76C6H         LINE#         205
  C:76C9H         LINE#         207
  C:76CAH         LINE#         212
  C:76CDH         LINE#         213
  C:76D0H         LINE#         214
  C:76D3H         LINE#         215
  C:76D6H         LINE#         216
  C:76D8H         LINE#         217
  C:76D9H         LINE#         222
  C:76DCH         LINE#         223
  C:76DFH         LINE#         224
  C:76E1H         LINE#         225
  C:76E4H         LINE#         226
  C:76E7H         LINE#         227
  C:76E8H         LINE#         230
  C:76EBH         LINE#         231
  C:76EEH         LINE#         232
  C:76F1H         LINE#         233
  C:76F4H         LINE#         234
  C:76F5H         LINE#         237
  C:76F8H         LINE#         238
  C:76FBH         LINE#         239
  C:76FEH         LINE#         240
  C:7701H         LINE#         241
  C:7704H         LINE#         242
  -------         ENDMOD        FLASH

  -------         MODULE        GSM
  C:7477H         SEGMENT       ?PR?GSM?MATER
  C:7705H         SEGMENT       ?CO?GSM?FLASHSTR
  C:75F4H         PUBLIC        GSM_SERIALINTRX_RXRIGHT
  C:7705H         PUBLIC        STR_GSM_INPUT
  C:771BH         PUBLIC        STR_GSM_OUTPUT
  C:774AH         PUBLIC        STR_GSM_RRING
  C:7731H         PUBLIC        STR_GSM_SRR
  C:77AAH         PUBLIC        STR_GSM_VOTALOW
  C:75FCH         PUBLIC        _FUN_GSM_AUDIO
  C:75FBH         PUBLIC        _FUN_GSM_GETCELLIDEN
  C:75C1H         PUBLIC        _FUN_GSM_GETOFFSET
  C:7477H         PUBLIC        _FUN_GSM_INSERT
  C:75F8H         PUBLIC        _FUN_GSM_RTCDIS
BL51 BANKED LINKER/LOCATER V6.05                                                      09/23/2016  17:07:17  PAGE 167


  C:75F7H         PUBLIC        _FUN_GSM_RTCEN
  C:75FAH         PUBLIC        _FUN_GSM_RTCOFF
  C:75F9H         PUBLIC        _FUN_GSM_RTCON
  C:75F4H         PUBLIC        _FUN_GSM_SERIALINTRX
  D:00F0H         SYMBOL        B
  N:009CH         SYMBOL        BRT
  B:0020H.0       SYMBOL        BUSY
  N:00FAH         SYMBOL        CCAP0H
  N:00EAH         SYMBOL        CCAP0L
  N:00FBH         SYMBOL        CCAP1H
  N:00EBH         SYMBOL        CCAP1L
  N:00FCH         SYMBOL        CCAP2H
  N:00ECH         SYMBOL        CCAP2L
  N:00FDH         SYMBOL        CCAP3H
  N:00EDH         SYMBOL        CCAP3L
  N:00FEH         SYMBOL        CCAP4H
  N:00EEH         SYMBOL        CCAP4L
  N:00FFH         SYMBOL        CCAP5H
  N:00EFH         SYMBOL        CCAP5L
  N:00DAH         SYMBOL        CCAPM0
  N:00DBH         SYMBOL        CCAPM1
  N:00DCH         SYMBOL        CCAPM2
  N:00DDH         SYMBOL        CCAPM3
  N:00DEH         SYMBOL        CCAPM4
  N:00DFH         SYMBOL        CCAPM5
  B:00D8H.0       SYMBOL        CCF0
  B:00D8H.1       SYMBOL        CCF1
  B:00D8H.2       SYMBOL        CCF2
  B:00D8H.3       SYMBOL        CCF3
  B:00D8H.4       SYMBOL        CCF4
  B:00D8H.5       SYMBOL        CCF5
  N:00D8H         SYMBOL        CCON
  B:00D8H.7       SYMBOL        CF
  N:00F9H         SYMBOL        CH
  N:00E9H         SYMBOL        CL
  N:00D9H         SYMBOL        CMOD
  N:0002H         SYMBOL        CONST_ACTIONTYPE_GETRAND
  N:0000H         SYMBOL        CONST_ACTIONTYPE_GETSECURE
  N:0004H         SYMBOL        CONST_ACTIONTYPE_SETMMI
  N:0001H         SYMBOL        CONST_ACTIONTYPE_SETSECURE
  N:0003H         SYMBOL        CONST_ACTIONTYPE_TRANSFERCHANNEL
  N:0003H         SYMBOL        CONST_ACT_H
  N:0001H         SYMBOL        CONST_ACT_H_H
  N:0000H         SYMBOL        CONST_ACT_H_L
  N:0001H         SYMBOL        CONST_ACT_L
  N:0006H         SYMBOL        CONST_ACT_L_H
  N:000AH         SYMBOL        CONST_ACT_L_L
  N:0002H         SYMBOL        CONST_ACT_M
  N:0000H         SYMBOL        CONST_ACT_M_H
  N:0006H         SYMBOL        CONST_ACT_M_L
  N:0002H         SYMBOL        CONST_ACT_V
  N:0002H         SYMBOL        CONST_BAUD_115200
  N:0003H         SYMBOL        CONST_BAUD_115200PC
  N:0004H         SYMBOL        CONST_BAUD_230000
  N:0001H         SYMBOL        CONST_BAUD_38400
  N:0005H         SYMBOL        CONST_BAUD_38400PC
  N:0000H         SYMBOL        CONST_BAUD_9600
BL51 BANKED LINKER/LOCATER V6.05                                                      09/23/2016  17:07:17  PAGE 168


  N:0006H         SYMBOL        CONST_BAUD_9600PC
  N:000CH         SYMBOL        CONST_BAUD_BITFULL12
  N:000EH         SYMBOL        CONST_BAUD_BITFULL20
  N:0010H         SYMBOL        CONST_BAUD_BITFULL28
  N:000BH         SYMBOL        CONST_BAUD_BITFULL8
  N:000CH         SYMBOL        CONST_BAUD_BITHALF12
  N:00B3H         SYMBOL        CONST_BAUD_CURRENTBITFULL
  N:0058H         SYMBOL        CONST_BAUD_CURRENTBITHALF
  N:001DH         SYMBOL        CONST_BAUD_FULL115200
  N:000FH         SYMBOL        CONST_BAUD_FULL230000
  N:005DH         SYMBOL        CONST_BAUD_FULL38400
  N:00B3H         SYMBOL        CONST_BAUD_FULL9600
  N:000DH         SYMBOL        CONST_BAUD_HALF115200
  N:0008H         SYMBOL        CONST_BAUD_HALF230000
  N:002DH         SYMBOL        CONST_BAUD_HALF38400
  N:0058H         SYMBOL        CONST_BAUD_HALF9600
  N:00F8H         SYMBOL        CONST_BAUD_HAND115200
  N:00F3H         SYMBOL        CONST_BAUD_HAND115200PC
  N:00FCH         SYMBOL        CONST_BAUD_HAND230000
  N:00E9H         SYMBOL        CONST_BAUD_HAND38400
  N:00D8H         SYMBOL        CONST_BAUD_HAND38400PC
  N:00A3H         SYMBOL        CONST_BAUD_HAND9600
  N:0060H         SYMBOL        CONST_BAUD_HAND9600PC
  N:00FFH         SYMBOL        CONST_BLACK_H
  N:00FFH         SYMBOL        CONST_BLACK_L
  N:0014H         SYMBOL        CONST_BLUETOOTH_WORKTIME
  N:0020H         SYMBOL        CONST_BSTLIMIT
  N:0064H         SYMBOL        CONST_BSTLIMIT02
  N:0016H         SYMBOL        CONST_CARD_CONSUME
  N:0017H         SYMBOL        CONST_CARD_PASS
  N:0000H         SYMBOL        CONST_CELLFILE_H
  N:0009H         SYMBOL        CONST_CELLFILE_L
  N:0001H         SYMBOL        CONST_DPH_NORMAL
  N:0001H         SYMBOL        CONST_DPH_ONE
  N:0003H         SYMBOL        CONST_DPH_SERX
  N:0000H         SYMBOL        CONST_DPH_SETX
  N:0003H         SYMBOL        CONST_DPH_THREE
  N:0002H         SYMBOL        CONST_DPH_TWO
  N:0000H         SYMBOL        CONST_DPH_ZERO
  N:0007H         SYMBOL        CONST_DSRC_ACTION
  N:0009H         SYMBOL        CONST_DSRC_ACTIONTYPE
  N:0001H         SYMBOL        CONST_DSRC_CHANNELIDICC
  N:0002H         SYMBOL        CONST_DSRC_CHANNELIDSAM
  N:000AH         SYMBOL        CONST_DSRC_CONTAIN
  N:0008H         SYMBOL        CONST_DSRC_DID
  N:0000H         SYMBOL        CONST_DSRC_FILDIDAPPKEY
  N:0002H         SYMBOL        CONST_DSRC_FILDIDCONSUME
  N:0003H         SYMBOL        CONST_DSRC_FILDIDHOLD
  N:0001H         SYMBOL        CONST_DSRC_FILDIDVEHICLE
  N:000BH         SYMBOL        CONST_DSRC_FILL
  N:0006H         SYMBOL        CONST_DSRC_HEAD
  N:0005H         SYMBOL        CONST_DSRC_LLCCTRL
  N:0004H         SYMBOL        CONST_DSRC_MACCTRL
  N:0003H         SYMBOL        CONST_ETC_INPUT
  N:0002H         SYMBOL        CONST_FALSH_PREFLAG02H
  N:00F4H         SYMBOL        CONST_FALSH_PREFLAG02L
  N:0002H         SYMBOL        CONST_FALSH_PREFLAG03H
BL51 BANKED LINKER/LOCATER V6.05                                                      09/23/2016  17:07:17  PAGE 169


  N:00F5H         SYMBOL        CONST_FALSH_PREFLAG03L
  N:0002H         SYMBOL        CONST_FALSH_PREFLAG04H
  N:00F6H         SYMBOL        CONST_FALSH_PREFLAG04L
  N:0002H         SYMBOL        CONST_FALSH_PREFLAGH
  N:00F3H         SYMBOL        CONST_FALSH_PREFLAGL
  N:0001H         SYMBOL        CONST_FALSH_PREFLAGLEN
  N:0004H         SYMBOL        CONST_FLASHADD_BEACONIDUNIXTIMEH
  N:0000H         SYMBOL        CONST_FLASHADD_BEACONIDUNIXTIMEL
  N:0002H         SYMBOL        CONST_FLASH_0002H
  N:0058H         SYMBOL        CONST_FLASH_0002L
  N:0004H         SYMBOL        CONST_FLASH_0002LEN
  N:0002H         SYMBOL        CONST_FLASH_0012H
  N:005CH         SYMBOL        CONST_FLASH_0012L
  N:0028H         SYMBOL        CONST_FLASH_0012LEN
  N:0002H         SYMBOL        CONST_FLASH_0015H
  N:0084H         SYMBOL        CONST_FLASH_0015L
  N:0032H         SYMBOL        CONST_FLASH_0015LEN
  N:002BH         SYMBOL        CONST_FLASH_0015LENOLD
  N:002BH         SYMBOL        CONST_FLASH_0019GBLEN
  N:0002H         SYMBOL        CONST_FLASH_0019H
  N:00B6H         SYMBOL        CONST_FLASH_0019L
  N:003CH         SYMBOL        CONST_FLASH_0019LEN
  N:003FH         SYMBOL        CONST_FLASH_0019NEWGDLEN
  N:0004H         SYMBOL        CONST_FLASH_BEACONIDUNIXTIMEH
  N:0000H         SYMBOL        CONST_FLASH_BEACONIDUNIXTIMEL
  N:0008H         SYMBOL        CONST_FLASH_BEACONIDUNIXTIMELEN
  N:0002H         SYMBOL        CONST_FLASH_BLOCK01
  N:0001H         SYMBOL        CONST_FLASH_CARDTYPELEN
  N:00F3H         SYMBOL        CONST_FLASH_FILELEN
  N:0002H         SYMBOL        CONST_FLASH_LASTCARDH
  N:00F2H         SYMBOL        CONST_FLASH_LASTCARDL
  N:0002H         SYMBOL        CONST_FLASH_STARTHIGH
  N:0000H         SYMBOL        CONST_FLASH_STARTLOW
  N:0002H         SYMBOL        CONST_FLASH_SYSINFOH
  N:0000H         SYMBOL        CONST_FLASH_SYSINFOL
  N:0058H         SYMBOL        CONST_FLASH_SYSINFOLEN
  N:0002H         SYMBOL        CONST_GDO2_MCSM2
  N:0046H         SYMBOL        CONST_GDO2_VALUE
  N:00F0H         SYMBOL        CONST_GSM_MAXNUM
  N:0008H         SYMBOL        CONST_GSM_NUM
  N:0014H         SYMBOL        CONST_GSM_PJNUM
  N:0015H         SYMBOL        CONST_HANDSECOND
  N:0002H         SYMBOL        CONST_LHX_FLAG
  N:0005H         SYMBOL        CONST_MAX_RXNUM
  N:0008H         SYMBOL        CONST_MCU_WKCTH
  N:00FFH         SYMBOL        CONST_MCU_WKCTL
  N:0002H         SYMBOL        CONST_MF_DECREMENT
  N:0003H         SYMBOL        CONST_MF_INCREMENT
  N:00C0H         SYMBOL        CONST_MF_RC500DECREMENT
  N:00C1H         SYMBOL        CONST_MF_RC500INCREMENT
  N:0000H         SYMBOL        CONST_MF_READ
  N:0004H         SYMBOL        CONST_MF_RESTOR
  N:0001H         SYMBOL        CONST_MF_WRITE
  N:0001H         SYMBOL        CONST_MTC_INPUT
  N:0018H         SYMBOL        CONST_PPS_115200
  N:0096H         SYMBOL        CONST_PPS_230000
  N:0013H         SYMBOL        CONST_PPS_38400
BL51 BANKED LINKER/LOCATER V6.05                                                      09/23/2016  17:07:17  PAGE 170


  N:0010H         SYMBOL        CONST_PPS_9600
  N:0001H         SYMBOL        CONST_PRO_4SPEED
  N:00FAH         SYMBOL        CONST_PRO_OVERTIME2S
  N:0090H         SYMBOL        CONST_RTCOVERFLOW
  N:00FFH         SYMBOL        CONST_RTC_OFF
  N:0055H         SYMBOL        CONST_RTC_ON
  N:000AH         SYMBOL        CONST_SE_CHANNEL
  N:0000H         SYMBOL        CONST_SE_RXBUF
  N:0000H         SYMBOL        CONST_SE_TXBUF
  N:0000H         SYMBOL        CONST_SOF
  N:0014H         SYMBOL        CONST_SOFTBYTESP
  N:0010H         SYMBOL        CONST_SOFTFIRSTSCANTIME
  N:00FFH         SYMBOL        CONST_SOFTFIRSTSCANTIMEXX
  N:0070H         SYMBOL        CONST_SOFTSECOND
  N:000CH         SYMBOL        CONST_SSRC_FID
  N:0007H         SYMBOL        CONST_STATE_5823INIER
  N:0008H         SYMBOL        CONST_STATE_5823SLEEPER
  N:0003H         SYMBOL        CONST_STATE_ACCEPTOVER
  N:0004H         SYMBOL        CONST_STATE_ACCEPTOVERLEN
  N:0006H         SYMBOL        CONST_STATE_ACTCARDINVALID
  N:0004H         SYMBOL        CONST_STATE_ACTIVEFAIL
  N:0006H         SYMBOL        CONST_STATE_AUTHER
  N:001DH         SYMBOL        CONST_STATE_BASE01ANTICOLL
  N:0015H         SYMBOL        CONST_STATE_BASE01CONTACT
  N:0014H         SYMBOL        CONST_STATE_BASE01ESAMDF01
  N:001FH         SYMBOL        CONST_STATE_BASE01RATS
  N:001CH         SYMBOL        CONST_STATE_BASE01RE
  N:001EH         SYMBOL        CONST_STATE_BASE01SEL
  N:0019H         SYMBOL        CONST_STATE_BASE02ANTICOLL
  N:0016H         SYMBOL        CONST_STATE_BASE02CONTACT
  N:001BH         SYMBOL        CONST_STATE_BASE02RATS
  N:0018H         SYMBOL        CONST_STATE_BASE02RE
  N:001AH         SYMBOL        CONST_STATE_BASE02SEL
  N:000BH         SYMBOL        CONST_STATE_BASEESAMDF01
  N:0013H         SYMBOL        CONST_STATE_BASEN01INIT
  N:000AH         SYMBOL        CONST_STATE_BASENINIT
  N:000DH         SYMBOL        CONST_STATE_CARDPREDEAL0002
  N:000EH         SYMBOL        CONST_STATE_CARDPREDEAL0012
  N:000FH         SYMBOL        CONST_STATE_CARDPREDEAL0015
  N:0010H         SYMBOL        CONST_STATE_CARDPREDEAL0019
  N:000CH         SYMBOL        CONST_STATE_CARDPREDEAL1001
  N:0011H         SYMBOL        CONST_STATE_CARDPREDEAL3F00
  N:0012H         SYMBOL        CONST_STATE_CARDPREDEAL81
  N:0023H         SYMBOL        CONST_STATE_ESAMER
  N:0021H         SYMBOL        CONST_STATE_EXMEMORYER
  N:0022H         SYMBOL        CONST_STATE_EXMEMORYER02
  N:00FFH         SYMBOL        CONST_STATE_FALSE
  N:0009H         SYMBOL        CONST_STATE_GETSECURESELFILEER
  N:0005H         SYMBOL        CONST_STATE_ILLEGALACTCARD
  N:0002H         SYMBOL        CONST_STATE_ILLEGALINPUTCARD
  N:0003H         SYMBOL        CONST_STATE_INPUTCARDINVALID
  N:0001H         SYMBOL        CONST_STATE_INPUTFAIL
  N:0020H         SYMBOL        CONST_STATE_MEMORYER
  N:0005H         SYMBOL        CONST_STATE_RSTCPUER
  N:0001H         SYMBOL        CONST_STATE_SERIALACCPET
  N:0002H         SYMBOL        CONST_STATE_SERIALOVERTIME
  N:0017H         SYMBOL        CONST_STATE_TEST
BL51 BANKED LINKER/LOCATER V6.05                                                      09/23/2016  17:07:17  PAGE 171


  N:0000H         SYMBOL        CONST_STATE_TRUE
  N:0055H         SYMBOL        CONST_SYS_55
  N:00AAH         SYMBOL        CONST_SYS_AA
  N:0004H         SYMBOL        CONST_SYS_OBUIDLEN
  N:000AH         SYMBOL        CONST_SYS_POWERONTIMER
  N:0088H         SYMBOL        CONST_SYS_PREFLAG
  N:0064H         SYMBOL        CONST_SYS_RTCOVERTIME
  N:00FFH         SYMBOL        CONST_SYS_TRADECONFINE
  N:0001H         SYMBOL        CONST_TIMEER02
  N:00FEH         SYMBOL        CONST_TIMEER03
  N:0001H         SYMBOL        CONST_TIMEER04
  N:00FFH         SYMBOL        CONST_VSTLIMIT
  N:0000H         SYMBOL        CONST_WHITE_H
  N:0031H         SYMBOL        CONST_WHITE_L
  N:0000H         SYMBOL        CONST_WORKSTAION_0
  N:0001H         SYMBOL        CONST_WORKSTAION_1
  N:0002H         SYMBOL        CONST_WORKSTAION_2
  N:0003H         SYMBOL        CONST_WORKSTAION_3
  N:0000H         SYMBOL        CONST_XDATA_TXBUF02
  N:0080H         SYMBOL        CONST_XDATA_TXBUF02LEN
  B:00D8H.6       SYMBOL        CR
  D:0083H         SYMBOL        DPH
  D:0082H         SYMBOL        DPL
  B:00A8H.6       SYMBOL        EPCAI
  B:00A8H.6       SYMBOL        EPCA_LVD
  N:0000H         SYMBOL        GSM
  C:75BEH         SYMBOL        GSM_INSERT_ER
  C:7558H         SYMBOL        GSM_INSERT_ESAMTOUSERCARDUPDATA1
  C:7585H         SYMBOL        GSM_INSERT_ESAMTOUSERCARDUPDATA2
  C:747DH         SYMBOL        GSM_INSERT_INSERTCARD
  C:75BBH         SYMBOL        GSM_INSERT_OVER
  C:74BBH         SYMBOL        GSM_INSERT_YDCG
  C:74DCH         SYMBOL        GSM_INSERT_YDCG04
  C:74F1H         SYMBOL        GSM_INSERT_YDCG05
  C:7506H         SYMBOL        GSM_INSERT_YDCG06
  C:751BH         SYMBOL        GSM_INSERT_YDCG07
  C:75F6H         SYMBOL        GSM_REPORTMSG_OVER
  C:75F5H         SYMBOL        GSM_SERIALINTRX_EROVER
  C:75F5H         SYMBOL        GSM_SERIALINTRX_RTCSWOVER
  D:00A8H         SYMBOL        IE
  N:00AFH         SYMBOL        IE2
  N:00B7H         SYMBOL        IPH
  N:00C7H         SYMBOL        ISP_CONTR
  D:0080H         SYMBOL        P0
  D:0090H         SYMBOL        P1
  D:00A0H         SYMBOL        P2
  D:00B0H         SYMBOL        P3
  N:00C0H         SYMBOL        P4
  N:00F2H         SYMBOL        PCA_PWM0
  N:00F3H         SYMBOL        PCA_PWM1
  N:00F4H         SYMBOL        PCA_PWM2
  N:00F5H         SYMBOL        PCA_PWM3
  N:00F6H         SYMBOL        PCA_PWM4
  N:00F7H         SYMBOL        PCA_PWM5
  B:0080H.4       SYMBOL        PIN_522_MISO
  B:0080H.5       SYMBOL        PIN_522_MOSI
  B:00C0H.6       SYMBOL        PIN_522_RST
BL51 BANKED LINKER/LOCATER V6.05                                                      09/23/2016  17:07:17  PAGE 172


  B:0080H.7       SYMBOL        PIN_522_SCLK
  B:0080H.6       SYMBOL        PIN_522_SS
  B:0090H.0       SYMBOL        PIN_5823BK_CS
  B:0090H.2       SYMBOL        PIN_5823BK_IRQ
  B:0080H.0       SYMBOL        PIN_5823BK_MISO
  B:0080H.1       SYMBOL        PIN_5823BK_MOSI
  B:00C0H.2       SYMBOL        PIN_5823BK_SCLK
  B:0080H.3       SYMBOL        PIN_BELL_01
  B:0080H.2       SYMBOL        PIN_BELL_02
  B:0090H.1       SYMBOL        PIN_BK_CE
  B:00B0H.3       SYMBOL        PIN_CARD_EXIST
  B:0090H.6       SYMBOL        PIN_CC1101_GDO2
  B:00B0H.7       SYMBOL        PIN_CC1101_MISO
  B:00A0H.3       SYMBOL        PIN_CC1101_MOSI
  B:00A0H.2       SYMBOL        PIN_CC1101_SCLK
  B:00B0H.6       SYMBOL        PIN_CC1101_SS
  B:00A0H.5       SYMBOL        PIN_ESAM_RST
  B:00A0H.6       SYMBOL        PIN_ESAM_RX
  B:00A0H.6       SYMBOL        PIN_ESAM_TX
  B:00C0H.5       SYMBOL        PIN_GRE
  B:0090H.4       SYMBOL        PIN_LCD_CS
  B:0090H.7       SYMBOL        PIN_LCD_DC
  B:0090H.5       SYMBOL        PIN_LCD_RST
  B:00B0H.4       SYMBOL        PIN_LCD_SCL
  B:00C0H.3       SYMBOL        PIN_LCD_SDA
  B:00A0H.7       SYMBOL        PIN_PWRDWN
  B:0090H.3       SYMBOL        PIN_PWRDWN_LCD
  B:00A0H.4       SYMBOL        PIN_PWR_GSM
  B:00A0H.1       SYMBOL        PIN_PWR_LOWIO
  B:00C0H.1       SYMBOL        PIN_RED
  B:00B0H.0       SYMBOL        PIN_SOFTSERIALRX
  B:00B0H.1       SYMBOL        PIN_SOFTSERIALTXH
  B:00B0H.5       SYMBOL        PIN_UNFIX
  B:00A0H.0       SYMBOL        PIN_WAVE_CHANNEL1
  N:00C0H         SYMBOL        READ_BURST
  N:00A2H         SYMBOL        REG_51_AUXR1
  N:008EH         SYMBOL        REG_5412AD_AUXR
  N:0094H         SYMBOL        REG_5412AD_P0M0
  N:0093H         SYMBOL        REG_5412AD_P0M1
  N:0092H         SYMBOL        REG_5412AD_P1M0
  N:0091H         SYMBOL        REG_5412AD_P1M1
  N:0096H         SYMBOL        REG_5412AD_P2M0
  N:0095H         SYMBOL        REG_5412AD_P2M1
  N:00B2H         SYMBOL        REG_5412AD_P3M0
  N:00B1H         SYMBOL        REG_5412AD_P3M1
  N:00B4H         SYMBOL        REG_5412AD_P4M0
  N:00B3H         SYMBOL        REG_5412AD_P4M1
  N:00BBH         SYMBOL        REG_5412AD_P4SW
  N:0085H         SYMBOL        REG_5412AD_SPCTL
  N:0086H         SYMBOL        REG_5412AD_SPDAT
  N:0084H         SYMBOL        REG_5412AD_SPSTAT
  N:00ABH         SYMBOL        REG_MCU_WKCTH
  N:00AAH         SYMBOL        REG_MCU_WKCTL
  N:000DH         SYMBOL        REG_RC522_BITFRAMINGREG
  N:000EH         SYMBOL        REG_RC522_COLLREG
  N:0002H         SYMBOL        REG_RC522_COMIENREG
  N:0004H         SYMBOL        REG_RC522_COMIRQREG
BL51 BANKED LINKER/LOCATER V6.05                                                      09/23/2016  17:07:17  PAGE 173


  N:0001H         SYMBOL        REG_RC522_COMMANDREG
  N:000CH         SYMBOL        REG_RC522_CONTROLREG
  N:0021H         SYMBOL        REG_RC522_CRCRESULTREGH
  N:0022H         SYMBOL        REG_RC522_CRCRESULTREGL
  N:0028H         SYMBOL        REG_RC522_CWGSPREG
  N:0019H         SYMBOL        REG_RC522_DEMODREG
  N:0003H         SYMBOL        REG_RC522_DIVIENREG
  N:0005H         SYMBOL        REG_RC522_DIVIRQREG
  N:0006H         SYMBOL        REG_RC522_ERRORREG
  N:0009H         SYMBOL        REG_RC522_FIFODATAREG
  N:000AH         SYMBOL        REG_RC522_FIFOLEVELREG
  N:0027H         SYMBOL        REG_RC522_GSNREG
  N:001CH         SYMBOL        REG_RC522_MIFAREREG
  N:0011H         SYMBOL        REG_RC522_MODEREG
  N:0029H         SYMBOL        REG_RC522_MODGSPREG
  N:0024H         SYMBOL        REG_RC522_MODWIDTHREG
  N:0000H         SYMBOL        REG_RC522_RC522PAGE
  N:0026H         SYMBOL        REG_RC522_RFCFGREG
  N:000FH         SYMBOL        REG_RC522_RFU
  N:0013H         SYMBOL        REG_RC522_RXMODEREG
  N:0017H         SYMBOL        REG_RC522_RXSELREG
  N:0018H         SYMBOL        REG_RC522_RXTHRESHOLDREG
  N:001FH         SYMBOL        REG_RC522_SERIALSPEEDREG
  N:0007H         SYMBOL        REG_RC522_STATUS1REG
  N:0008H         SYMBOL        REG_RC522_STATUS2REG
  N:002EH         SYMBOL        REG_RC522_TCOUNTERVALUEREGH
  N:002FH         SYMBOL        REG_RC522_TCOUNTERVALUEREGL
  N:002AH         SYMBOL        REG_RC522_TMODEREG
  N:002BH         SYMBOL        REG_RC522_TPRESCALERREG
  N:002CH         SYMBOL        REG_RC522_TRELOADREGH
  N:002DH         SYMBOL        REG_RC522_TRELOADREGL
  N:0015H         SYMBOL        REG_RC522_TXAUTOREG
  N:0014H         SYMBOL        REG_RC522_TXCONTROLREG
  N:0012H         SYMBOL        REG_RC522_TXMODEREG
  N:0016H         SYMBOL        REG_RC522_TXSELREG
  N:000BH         SYMBOL        REG_RC522_WATERLEVELREG
  N:009CH         SYMBOL        REG_SYS_BRT
  N:008FH         SYMBOL        REG_WAKECLK0
  B:00D8H.4       SYMBOL        REG_WAKECLK_04
  B:00D8H.5       SYMBOL        REG_WAKECLK_05
  N:00C1H         SYMBOL        REG_WDT_CONTR
  N:00EAH         SYMBOL        RELOAD2_CONTR
  N:009BH         SYMBOL        S2BUF
  N:009AH         SYMBOL        S2CON
  C:7761H         SYMBOL        STR_GSM_CRR
  C:77C3H         SYMBOL        STR_GSM_GETCELLID
  C:777AH         SYMBOL        STR_GSM_NYJLGS
  C:7793H         SYMBOL        STR_GSM_NYXGS
  N:0009H         SYMBOL        TI_CCXXX0_ADDR
  N:001DH         SYMBOL        TI_CCXXX0_AGCCTRL0
  N:001CH         SYMBOL        TI_CCXXX0_AGCCTRL1
  N:001BH         SYMBOL        TI_CCXXX0_AGCCTRL2
  N:002BH         SYMBOL        TI_CCXXX0_AGCTEST
  N:001AH         SYMBOL        TI_CCXXX0_BSCFG
  N:000AH         SYMBOL        TI_CCXXX0_CHANNR
  N:0015H         SYMBOL        TI_CCXXX0_DEVIATN
  N:0003H         SYMBOL        TI_CCXXX0_FIFOTHR
BL51 BANKED LINKER/LOCATER V6.05                                                      09/23/2016  17:07:17  PAGE 174


  N:0019H         SYMBOL        TI_CCXXX0_FOCCFG
  N:0022H         SYMBOL        TI_CCXXX0_FREND0
  N:0021H         SYMBOL        TI_CCXXX0_FREND1
  N:000FH         SYMBOL        TI_CCXXX0_FREQ0
  N:000EH         SYMBOL        TI_CCXXX0_FREQ1
  N:000DH         SYMBOL        TI_CCXXX0_FREQ2
  N:0032H         SYMBOL        TI_CCXXX0_FREQEST
  N:0026H         SYMBOL        TI_CCXXX0_FSCAL0
  N:0025H         SYMBOL        TI_CCXXX0_FSCAL1
  N:0024H         SYMBOL        TI_CCXXX0_FSCAL2
  N:0023H         SYMBOL        TI_CCXXX0_FSCAL3
  N:000CH         SYMBOL        TI_CCXXX0_FSCTRL0
  N:000BH         SYMBOL        TI_CCXXX0_FSCTRL1
  N:0029H         SYMBOL        TI_CCXXX0_FSTEST
  N:0002H         SYMBOL        TI_CCXXX0_IOCFG0
  N:0001H         SYMBOL        TI_CCXXX0_IOCFG1
  N:0000H         SYMBOL        TI_CCXXX0_IOCFG2
  N:0033H         SYMBOL        TI_CCXXX0_LQI
  N:0035H         SYMBOL        TI_CCXXX0_MARCSTATE
  N:0018H         SYMBOL        TI_CCXXX0_MCSM0
  N:0017H         SYMBOL        TI_CCXXX0_MCSM1
  N:0016H         SYMBOL        TI_CCXXX0_MCSM2
  N:0014H         SYMBOL        TI_CCXXX0_MDMCFG0
  N:0013H         SYMBOL        TI_CCXXX0_MDMCFG1
  N:0012H         SYMBOL        TI_CCXXX0_MDMCFG2
  N:0011H         SYMBOL        TI_CCXXX0_MDMCFG3
  N:0010H         SYMBOL        TI_CCXXX0_MDMCFG4
  N:007FH         SYMBOL        TI_CCXXX0_NUM_RXBYTES
  N:0030H         SYMBOL        TI_CCXXX0_PARTNUM
  N:003EH         SYMBOL        TI_CCXXX0_PATABLE
  N:0008H         SYMBOL        TI_CCXXX0_PKTCTRL0
  N:0007H         SYMBOL        TI_CCXXX0_PKTCTRL1
  N:0006H         SYMBOL        TI_CCXXX0_PKTLEN
  N:0038H         SYMBOL        TI_CCXXX0_PKTSTATUS
  N:002AH         SYMBOL        TI_CCXXX0_PTEST
  N:0028H         SYMBOL        TI_CCXXX0_RCCTRL0
  N:0027H         SYMBOL        TI_CCXXX0_RCCTRL1
  N:0034H         SYMBOL        TI_CCXXX0_RSSI
  N:003BH         SYMBOL        TI_CCXXX0_RXBYTES
  N:003FH         SYMBOL        TI_CCXXX0_RXFIFO
  N:0037H         SYMBOL        TI_CCXXX0_SAFC
  N:0033H         SYMBOL        TI_CCXXX0_SCAL
  N:003AH         SYMBOL        TI_CCXXX0_SFRX
  N:003BH         SYMBOL        TI_CCXXX0_SFTX
  N:0036H         SYMBOL        TI_CCXXX0_SIDLE
  N:003DH         SYMBOL        TI_CCXXX0_SNOP
  N:0039H         SYMBOL        TI_CCXXX0_SPWD
  N:0030H         SYMBOL        TI_CCXXX0_SRES
  N:0034H         SYMBOL        TI_CCXXX0_SRX
  N:0035H         SYMBOL        TI_CCXXX0_STX
  N:0038H         SYMBOL        TI_CCXXX0_SWOR
  N:003CH         SYMBOL        TI_CCXXX0_SWORRST
  N:0032H         SYMBOL        TI_CCXXX0_SXOFF
  N:0005H         SYMBOL        TI_CCXXX0_SYNC0
  N:0004H         SYMBOL        TI_CCXXX0_SYNC1
  N:002EH         SYMBOL        TI_CCXXX0_TEST0
  N:002DH         SYMBOL        TI_CCXXX0_TEST1
BL51 BANKED LINKER/LOCATER V6.05                                                      09/23/2016  17:07:17  PAGE 175


  N:002CH         SYMBOL        TI_CCXXX0_TEST2
  N:003AH         SYMBOL        TI_CCXXX0_TXBYTES
  N:003FH         SYMBOL        TI_CCXXX0_TXFIFO
  N:0039H         SYMBOL        TI_CCXXX0_VCO_VC_DAC
  N:0031H         SYMBOL        TI_CCXXX0_VERSION
  N:0020H         SYMBOL        TI_CCXXX0_WORCTRL
  N:001FH         SYMBOL        TI_CCXXX0_WOREVT0
  N:001EH         SYMBOL        TI_CCXXX0_WOREVT1
  N:0037H         SYMBOL        TI_CCXXX0_WORTIME0
  N:0036H         SYMBOL        TI_CCXXX0_WORTIME1
  N:008FH         SYMBOL        WAKE_CLKO
  B:00B0H.2       SYMBOL        WKO_BK
  C:75F2H         SYMBOL        XXXXXXXXOVER
  C:7534H         SYMBOL        _FUN_GSM_INSERT_ESAMTOUSERCARD
  C:75F6H         SYMBOL        _FUN_GSM_REPORTMSG
  C:7477H         LINE#         60
  C:747AH         LINE#         62
  C:747DH         LINE#         66
  C:747FH         LINE#         67
  C:7481H         LINE#         70
  C:7484H         LINE#         71
  C:7486H         LINE#         72
  C:7487H         LINE#         75
  C:748AH         LINE#         76
  C:748DH         LINE#         77
  C:748FH         LINE#         78
  C:7491H         LINE#         79
  C:7494H         LINE#         81
  C:7496H         LINE#         83
  C:7499H         LINE#         84
  C:749BH         LINE#         85
  C:749CH         LINE#         86
  C:749EH         LINE#         87
  C:74A0H         LINE#         89
  C:74A3H         LINE#         97
  C:74A6H         LINE#         99
  C:74A8H         LINE#         100
  C:74ABH         LINE#         101
  C:74AEH         LINE#         102
  C:74B0H         LINE#         103
  C:74B3H         LINE#         104
  C:74B5H         LINE#         105
  C:74B8H         LINE#         107
  C:74BBH         LINE#         147
  C:74BEH         LINE#         148
  C:74C1H         LINE#         149
  C:74C4H         LINE#         150
  C:74C6H         LINE#         151
  C:74C9H         LINE#         152
  C:74CBH         LINE#         162
  C:74CDH         LINE#         163
  C:74CFH         LINE#         165
  C:74D2H         LINE#         166
  C:74D4H         LINE#         167
  C:74D5H         LINE#         168
  C:74D7H         LINE#         169
  C:74D9H         LINE#         171
BL51 BANKED LINKER/LOCATER V6.05                                                      09/23/2016  17:07:17  PAGE 176


  C:74DCH         LINE#         175
  C:74DEH         LINE#         176
  C:74E0H         LINE#         177
  C:74E2H         LINE#         178
  C:74E4H         LINE#         179
  C:74E6H         LINE#         180
  C:74E8H         LINE#         181
  C:74EBH         LINE#         182
  C:74ECH         LINE#         183
  C:74EEH         LINE#         184
  C:74F1H         LINE#         187
  C:74F3H         LINE#         188
  C:74F5H         LINE#         189
  C:74F7H         LINE#         190
  C:74F9H         LINE#         191
  C:74FBH         LINE#         192
  C:74FDH         LINE#         193
  C:7500H         LINE#         194
  C:7501H         LINE#         195
  C:7503H         LINE#         196
  C:7506H         LINE#         199
  C:7508H         LINE#         200
  C:750AH         LINE#         201
  C:750CH         LINE#         202
  C:750EH         LINE#         203
  C:7510H         LINE#         204
  C:7512H         LINE#         205
  C:7515H         LINE#         206
  C:7516H         LINE#         207
  C:7518H         LINE#         208
  C:751BH         LINE#         213
  C:751DH         LINE#         214
  C:751FH         LINE#         216
  C:7522H         LINE#         217
  C:7524H         LINE#         218
  C:7525H         LINE#         220
  C:7526H         LINE#         221
  C:7527H         LINE#         223
  C:752AH         LINE#         224
  C:752CH         LINE#         225
  C:752DH         LINE#         227
  C:752EH         LINE#         229
  C:7531H         LINE#         230
  C:7533H         LINE#         231
  C:7534H         LINE#         237
  C:7536H         LINE#         238
  C:7538H         LINE#         239
  C:753AH         LINE#         240
  C:753CH         LINE#         241
  C:753EH         LINE#         243
  C:7541H         LINE#         244
  C:7543H         LINE#         245
  C:7544H         LINE#         246
  C:7545H         LINE#         247
  C:7547H         LINE#         249
  C:754AH         LINE#         250
  C:754CH         LINE#         251
BL51 BANKED LINKER/LOCATER V6.05                                                      09/23/2016  17:07:17  PAGE 177


  C:754DH         LINE#         252
  C:754EH         LINE#         253
  C:7550H         LINE#         254
  C:7553H         LINE#         255
  C:7554H         LINE#         258
  C:7556H         LINE#         261
  C:7558H         LINE#         266
  C:755AH         LINE#         267
  C:755CH         LINE#         268
  C:755EH         LINE#         269
  C:7560H         LINE#         270
  C:7562H         LINE#         271
  C:7565H         LINE#         278
  C:7567H         LINE#         280
  C:756AH         LINE#         281
  C:756CH         LINE#         282
  C:756DH         LINE#         283
  C:756EH         LINE#         284
  C:7570H         LINE#         286
  C:7573H         LINE#         287
  C:7575H         LINE#         288
  C:7576H         LINE#         289
  C:7577H         LINE#         291
  C:7579H         LINE#         292
  C:757BH         LINE#         293
  C:757DH         LINE#         294
  C:7580H         LINE#         295
  C:7581H         LINE#         298
  C:7583H         LINE#         302
  C:7585H         LINE#         306
  C:7586H         LINE#         307
  C:7588H         LINE#         309
  C:758BH         LINE#         310
  C:758DH         LINE#         311
  C:758EH         LINE#         312
  C:7590H         LINE#         314
  C:7593H         LINE#         315
  C:7595H         LINE#         316
  C:7596H         LINE#         317
  C:7598H         LINE#         319
  C:759BH         LINE#         320
  C:759DH         LINE#         321
  C:759EH         LINE#         322
  C:75A0H         LINE#         324
  C:75A3H         LINE#         325
  C:75A5H         LINE#         326
  C:75A6H         LINE#         329
  C:75A8H         LINE#         331
  C:75ABH         LINE#         332
  C:75ADH         LINE#         333
  C:75AEH         LINE#         334
  C:75AFH         LINE#         336
  C:75B2H         LINE#         337
  C:75B4H         LINE#         338
  C:75B5H         LINE#         339
  C:75B6H         LINE#         341
  C:75B8H         LINE#         343
BL51 BANKED LINKER/LOCATER V6.05                                                      09/23/2016  17:07:17  PAGE 178


  C:75BBH         LINE#         347
  C:75BDH         LINE#         348
  C:75BEH         LINE#         353
  C:75C0H         LINE#         354
  C:75C1H         LINE#         366
  C:75C4H         LINE#         367
  C:75C7H         LINE#         369
  C:75C8H         LINE#         370
  C:75C9H         LINE#         373
  C:75CCH         LINE#         374
  C:75CEH         LINE#         375
  C:75CFH         LINE#         377
  C:75D2H         LINE#         378
  C:75D3H         LINE#         380
  C:75D6H         LINE#         383
  C:75D9H         LINE#         384
  C:75DBH         LINE#         385
  C:75DCH         LINE#         387
  C:75DDH         LINE#         388
  C:75DEH         LINE#         391
  C:75E1H         LINE#         392
  C:75E3H         LINE#         393
  C:75E4H         LINE#         395
  C:75E7H         LINE#         396
  C:75E8H         LINE#         398
  C:75E9H         LINE#         399
  C:75EBH         LINE#         401
  C:75EEH         LINE#         402
  C:75F0H         LINE#         403
  C:75F1H         LINE#         406
  C:75F2H         LINE#         430
  C:75F4H         LINE#         434
  C:75F5H         LINE#         441
  C:75F6H         LINE#         457
  C:75F7H         LINE#         465
  C:75F8H         LINE#         472
  C:75F9H         LINE#         479
  C:75FAH         LINE#         486
  C:75FBH         LINE#         499
  C:75FCH         LINE#         511
  -------         ENDMOD        GSM

  -------         MODULE        HDLC
  C:3AD7H         SEGMENT       ?PR?HDLC?MATER
  C:7855H         SEGMENT       ?CO?HDLC?FLASHSTR
  C:3CCAH         PUBLIC        HDLC_5823_RXLOOP
  C:3EA7H         PUBLIC        RX_EN
  C:3E13H         PUBLIC        SPI_READ_REG
  C:3DC3H         PUBLIC        SPI_RW
  C:3E7DH         PUBLIC        SPI_WRITE_REG
  C:3EE2H         PUBLIC        TX_CARRIER_EN
  C:418DH         PUBLIC        _AUTOASKREG
  C:40B2H         PUBLIC        _ENTER_RECEIVE_MODE
  C:3FCDH         PUBLIC        _ENTER_SLEEP_MODE
  C:40D2H         PUBLIC        _ENTER_TX_CARRIER_MODE
  C:441BH         PUBLIC        _FUN_HDLC_5822INIT
  C:3DB8H         PUBLIC        _FUN_HDLC_5830INIT
BL51 BANKED LINKER/LOCATER V6.05                                                      09/23/2016  17:07:17  PAGE 179


  C:4604H         PUBLIC        _FUN_HDLC_CHANGECHANNEL
  C:4686H         PUBLIC        _FUN_HDLC_CHECKREG9TO18
  C:4667H         PUBLIC        _FUN_HDLC_CLOSECLR
  C:4422H         PUBLIC        _FUN_HDLC_FREXIAODUI
  C:4670H         PUBLIC        _FUN_HDLC_ISSLEEPMOD
  C:3C82H         PUBLIC        _FUN_HDLC_RX
  C:44ECH         PUBLIC        _FUN_HDLC_RXSETMMI
  C:3AD7H         PUBLIC        _FUN_HDLC_TX
  C:3F3BH         PUBLIC        _POWER_UP
  D:00E0H         SYMBOL        ACC
  C:41A0H         SYMBOL        AUTOASKREG_08
  C:4238H         SYMBOL        AUTOASKREG_17
  C:4262H         SYMBOL        AUTOASKREG_18
  C:41DFH         SYMBOL        AUTOASKREG_916
  D:00F0H         SYMBOL        B
  C:4182H         SYMBOL        BK5822_1MSDELAY
  C:4182H         SYMBOL        BK5822_LOOP
  C:4184H         SYMBOL        BK5822_LOOP1
  C:4186H         SYMBOL        BK5822_LOOP2
  C:418CH         SYMBOL        BK5822_OVER
  C:4155H         SYMBOL        BK_SPIRST_1
  C:415AH         SYMBOL        BK_SPIRST_2
  N:009CH         SYMBOL        BRT
  B:0020H.0       SYMBOL        BUSY
  N:00FAH         SYMBOL        CCAP0H
  N:00EAH         SYMBOL        CCAP0L
  N:00FBH         SYMBOL        CCAP1H
  N:00EBH         SYMBOL        CCAP1L
  N:00FCH         SYMBOL        CCAP2H
  N:00ECH         SYMBOL        CCAP2L
  N:00FDH         SYMBOL        CCAP3H
  N:00EDH         SYMBOL        CCAP3L
  N:00FEH         SYMBOL        CCAP4H
  N:00EEH         SYMBOL        CCAP4L
  N:00FFH         SYMBOL        CCAP5H
  N:00EFH         SYMBOL        CCAP5L
  N:00DAH         SYMBOL        CCAPM0
  N:00DBH         SYMBOL        CCAPM1
  N:00DCH         SYMBOL        CCAPM2
  N:00DDH         SYMBOL        CCAPM3
  N:00DEH         SYMBOL        CCAPM4
  N:00DFH         SYMBOL        CCAPM5
  B:00D8H.0       SYMBOL        CCF0
  B:00D8H.1       SYMBOL        CCF1
  B:00D8H.2       SYMBOL        CCF2
  B:00D8H.3       SYMBOL        CCF3
  B:00D8H.4       SYMBOL        CCF4
  B:00D8H.5       SYMBOL        CCF5
  N:00D8H         SYMBOL        CCON
  B:00D8H.7       SYMBOL        CF
  N:00F9H         SYMBOL        CH
  N:00E9H         SYMBOL        CL
  N:00D9H         SYMBOL        CMOD
  N:0002H         SYMBOL        CONST_ACTIONTYPE_GETRAND
  N:0000H         SYMBOL        CONST_ACTIONTYPE_GETSECURE
  N:0004H         SYMBOL        CONST_ACTIONTYPE_SETMMI
  N:0001H         SYMBOL        CONST_ACTIONTYPE_SETSECURE
BL51 BANKED LINKER/LOCATER V6.05                                                      09/23/2016  17:07:17  PAGE 180


  N:0003H         SYMBOL        CONST_ACTIONTYPE_TRANSFERCHANNEL
  N:0003H         SYMBOL        CONST_ACT_H
  N:0001H         SYMBOL        CONST_ACT_H_H
  N:0000H         SYMBOL        CONST_ACT_H_L
  N:0001H         SYMBOL        CONST_ACT_L
  N:0006H         SYMBOL        CONST_ACT_L_H
  N:000AH         SYMBOL        CONST_ACT_L_L
  N:0002H         SYMBOL        CONST_ACT_M
  N:0000H         SYMBOL        CONST_ACT_M_H
  N:0006H         SYMBOL        CONST_ACT_M_L
  N:0002H         SYMBOL        CONST_ACT_V
  N:0002H         SYMBOL        CONST_BAUD_115200
  N:0003H         SYMBOL        CONST_BAUD_115200PC
  N:0004H         SYMBOL        CONST_BAUD_230000
  N:0001H         SYMBOL        CONST_BAUD_38400
  N:0005H         SYMBOL        CONST_BAUD_38400PC
  N:0000H         SYMBOL        CONST_BAUD_9600
  N:0006H         SYMBOL        CONST_BAUD_9600PC
  N:000CH         SYMBOL        CONST_BAUD_BITFULL12
  N:000EH         SYMBOL        CONST_BAUD_BITFULL20
  N:0010H         SYMBOL        CONST_BAUD_BITFULL28
  N:000BH         SYMBOL        CONST_BAUD_BITFULL8
  N:000CH         SYMBOL        CONST_BAUD_BITHALF12
  N:00B3H         SYMBOL        CONST_BAUD_CURRENTBITFULL
  N:0058H         SYMBOL        CONST_BAUD_CURRENTBITHALF
  N:001DH         SYMBOL        CONST_BAUD_FULL115200
  N:000FH         SYMBOL        CONST_BAUD_FULL230000
  N:005DH         SYMBOL        CONST_BAUD_FULL38400
  N:00B3H         SYMBOL        CONST_BAUD_FULL9600
  N:000DH         SYMBOL        CONST_BAUD_HALF115200
  N:0008H         SYMBOL        CONST_BAUD_HALF230000
  N:002DH         SYMBOL        CONST_BAUD_HALF38400
  N:0058H         SYMBOL        CONST_BAUD_HALF9600
  N:00F8H         SYMBOL        CONST_BAUD_HAND115200
  N:00F3H         SYMBOL        CONST_BAUD_HAND115200PC
  N:00FCH         SYMBOL        CONST_BAUD_HAND230000
  N:00E9H         SYMBOL        CONST_BAUD_HAND38400
  N:00D8H         SYMBOL        CONST_BAUD_HAND38400PC
  N:00A3H         SYMBOL        CONST_BAUD_HAND9600
  N:0060H         SYMBOL        CONST_BAUD_HAND9600PC
  N:00FFH         SYMBOL        CONST_BLACK_H
  N:00FFH         SYMBOL        CONST_BLACK_L
  N:0014H         SYMBOL        CONST_BLUETOOTH_WORKTIME
  N:0020H         SYMBOL        CONST_BSTLIMIT
  N:0064H         SYMBOL        CONST_BSTLIMIT02
  N:0016H         SYMBOL        CONST_CARD_CONSUME
  N:0017H         SYMBOL        CONST_CARD_PASS
  N:0000H         SYMBOL        CONST_CELLFILE_H
  N:0009H         SYMBOL        CONST_CELLFILE_L
  N:0001H         SYMBOL        CONST_DPH_NORMAL
  N:0001H         SYMBOL        CONST_DPH_ONE
  N:0003H         SYMBOL        CONST_DPH_SERX
  N:0000H         SYMBOL        CONST_DPH_SETX
  N:0003H         SYMBOL        CONST_DPH_THREE
  N:0002H         SYMBOL        CONST_DPH_TWO
  N:0000H         SYMBOL        CONST_DPH_ZERO
  N:0007H         SYMBOL        CONST_DSRC_ACTION
BL51 BANKED LINKER/LOCATER V6.05                                                      09/23/2016  17:07:17  PAGE 181


  N:0009H         SYMBOL        CONST_DSRC_ACTIONTYPE
  N:0001H         SYMBOL        CONST_DSRC_CHANNELIDICC
  N:0002H         SYMBOL        CONST_DSRC_CHANNELIDSAM
  N:000AH         SYMBOL        CONST_DSRC_CONTAIN
  N:0008H         SYMBOL        CONST_DSRC_DID
  N:0000H         SYMBOL        CONST_DSRC_FILDIDAPPKEY
  N:0002H         SYMBOL        CONST_DSRC_FILDIDCONSUME
  N:0003H         SYMBOL        CONST_DSRC_FILDIDHOLD
  N:0001H         SYMBOL        CONST_DSRC_FILDIDVEHICLE
  N:000BH         SYMBOL        CONST_DSRC_FILL
  N:0006H         SYMBOL        CONST_DSRC_HEAD
  N:0005H         SYMBOL        CONST_DSRC_LLCCTRL
  N:0004H         SYMBOL        CONST_DSRC_MACCTRL
  N:0003H         SYMBOL        CONST_ETC_INPUT
  N:0002H         SYMBOL        CONST_FALSH_PREFLAG02H
  N:00F4H         SYMBOL        CONST_FALSH_PREFLAG02L
  N:0002H         SYMBOL        CONST_FALSH_PREFLAG03H
  N:00F5H         SYMBOL        CONST_FALSH_PREFLAG03L
  N:0002H         SYMBOL        CONST_FALSH_PREFLAG04H
  N:00F6H         SYMBOL        CONST_FALSH_PREFLAG04L
  N:0002H         SYMBOL        CONST_FALSH_PREFLAGH
  N:00F3H         SYMBOL        CONST_FALSH_PREFLAGL
  N:0001H         SYMBOL        CONST_FALSH_PREFLAGLEN
  N:0004H         SYMBOL        CONST_FLASHADD_BEACONIDUNIXTIMEH
  N:0000H         SYMBOL        CONST_FLASHADD_BEACONIDUNIXTIMEL
  N:0002H         SYMBOL        CONST_FLASH_0002H
  N:0058H         SYMBOL        CONST_FLASH_0002L
  N:0004H         SYMBOL        CONST_FLASH_0002LEN
  N:0002H         SYMBOL        CONST_FLASH_0012H
  N:005CH         SYMBOL        CONST_FLASH_0012L
  N:0028H         SYMBOL        CONST_FLASH_0012LEN
  N:0002H         SYMBOL        CONST_FLASH_0015H
  N:0084H         SYMBOL        CONST_FLASH_0015L
  N:0032H         SYMBOL        CONST_FLASH_0015LEN
  N:002BH         SYMBOL        CONST_FLASH_0015LENOLD
  N:002BH         SYMBOL        CONST_FLASH_0019GBLEN
  N:0002H         SYMBOL        CONST_FLASH_0019H
  N:00B6H         SYMBOL        CONST_FLASH_0019L
  N:003CH         SYMBOL        CONST_FLASH_0019LEN
  N:003FH         SYMBOL        CONST_FLASH_0019NEWGDLEN
  N:0004H         SYMBOL        CONST_FLASH_BEACONIDUNIXTIMEH
  N:0000H         SYMBOL        CONST_FLASH_BEACONIDUNIXTIMEL
  N:0008H         SYMBOL        CONST_FLASH_BEACONIDUNIXTIMELEN
  N:0002H         SYMBOL        CONST_FLASH_BLOCK01
  N:0001H         SYMBOL        CONST_FLASH_CARDTYPELEN
  N:00F3H         SYMBOL        CONST_FLASH_FILELEN
  N:0002H         SYMBOL        CONST_FLASH_LASTCARDH
  N:00F2H         SYMBOL        CONST_FLASH_LASTCARDL
  N:0002H         SYMBOL        CONST_FLASH_STARTHIGH
  N:0000H         SYMBOL        CONST_FLASH_STARTLOW
  N:0002H         SYMBOL        CONST_FLASH_SYSINFOH
  N:0000H         SYMBOL        CONST_FLASH_SYSINFOL
  N:0058H         SYMBOL        CONST_FLASH_SYSINFOLEN
  N:0002H         SYMBOL        CONST_GDO2_MCSM2
  N:0046H         SYMBOL        CONST_GDO2_VALUE
  N:00F0H         SYMBOL        CONST_GSM_MAXNUM
  N:0008H         SYMBOL        CONST_GSM_NUM
BL51 BANKED LINKER/LOCATER V6.05                                                      09/23/2016  17:07:17  PAGE 182


  N:0014H         SYMBOL        CONST_GSM_PJNUM
  N:0015H         SYMBOL        CONST_HANDSECOND
  N:0002H         SYMBOL        CONST_LHX_FLAG
  N:0005H         SYMBOL        CONST_MAX_RXNUM
  N:0008H         SYMBOL        CONST_MCU_WKCTH
  N:00FFH         SYMBOL        CONST_MCU_WKCTL
  N:0002H         SYMBOL        CONST_MF_DECREMENT
  N:0003H         SYMBOL        CONST_MF_INCREMENT
  N:00C0H         SYMBOL        CONST_MF_RC500DECREMENT
  N:00C1H         SYMBOL        CONST_MF_RC500INCREMENT
  N:0000H         SYMBOL        CONST_MF_READ
  N:0004H         SYMBOL        CONST_MF_RESTOR
  N:0001H         SYMBOL        CONST_MF_WRITE
  N:0001H         SYMBOL        CONST_MTC_INPUT
  N:0018H         SYMBOL        CONST_PPS_115200
  N:0096H         SYMBOL        CONST_PPS_230000
  N:0013H         SYMBOL        CONST_PPS_38400
  N:0010H         SYMBOL        CONST_PPS_9600
  N:0001H         SYMBOL        CONST_PRO_4SPEED
  N:00FAH         SYMBOL        CONST_PRO_OVERTIME2S
  N:0090H         SYMBOL        CONST_RTCOVERFLOW
  N:00FFH         SYMBOL        CONST_RTC_OFF
  N:0055H         SYMBOL        CONST_RTC_ON
  N:000AH         SYMBOL        CONST_SE_CHANNEL
  N:0000H         SYMBOL        CONST_SE_RXBUF
  N:0000H         SYMBOL        CONST_SE_TXBUF
  N:0000H         SYMBOL        CONST_SOF
  N:0014H         SYMBOL        CONST_SOFTBYTESP
  N:0010H         SYMBOL        CONST_SOFTFIRSTSCANTIME
  N:00FFH         SYMBOL        CONST_SOFTFIRSTSCANTIMEXX
  N:0070H         SYMBOL        CONST_SOFTSECOND
  N:000CH         SYMBOL        CONST_SSRC_FID
  N:0007H         SYMBOL        CONST_STATE_5823INIER
  N:0008H         SYMBOL        CONST_STATE_5823SLEEPER
  N:0003H         SYMBOL        CONST_STATE_ACCEPTOVER
  N:0004H         SYMBOL        CONST_STATE_ACCEPTOVERLEN
  N:0006H         SYMBOL        CONST_STATE_ACTCARDINVALID
  N:0004H         SYMBOL        CONST_STATE_ACTIVEFAIL
  N:0006H         SYMBOL        CONST_STATE_AUTHER
  N:001DH         SYMBOL        CONST_STATE_BASE01ANTICOLL
  N:0015H         SYMBOL        CONST_STATE_BASE01CONTACT
  N:0014H         SYMBOL        CONST_STATE_BASE01ESAMDF01
  N:001FH         SYMBOL        CONST_STATE_BASE01RATS
  N:001CH         SYMBOL        CONST_STATE_BASE01RE
  N:001EH         SYMBOL        CONST_STATE_BASE01SEL
  N:0019H         SYMBOL        CONST_STATE_BASE02ANTICOLL
  N:0016H         SYMBOL        CONST_STATE_BASE02CONTACT
  N:001BH         SYMBOL        CONST_STATE_BASE02RATS
  N:0018H         SYMBOL        CONST_STATE_BASE02RE
  N:001AH         SYMBOL        CONST_STATE_BASE02SEL
  N:000BH         SYMBOL        CONST_STATE_BASEESAMDF01
  N:0013H         SYMBOL        CONST_STATE_BASEN01INIT
  N:000AH         SYMBOL        CONST_STATE_BASENINIT
  N:000DH         SYMBOL        CONST_STATE_CARDPREDEAL0002
  N:000EH         SYMBOL        CONST_STATE_CARDPREDEAL0012
  N:000FH         SYMBOL        CONST_STATE_CARDPREDEAL0015
  N:0010H         SYMBOL        CONST_STATE_CARDPREDEAL0019
BL51 BANKED LINKER/LOCATER V6.05                                                      09/23/2016  17:07:17  PAGE 183


  N:000CH         SYMBOL        CONST_STATE_CARDPREDEAL1001
  N:0011H         SYMBOL        CONST_STATE_CARDPREDEAL3F00
  N:0012H         SYMBOL        CONST_STATE_CARDPREDEAL81
  N:0023H         SYMBOL        CONST_STATE_ESAMER
  N:0021H         SYMBOL        CONST_STATE_EXMEMORYER
  N:0022H         SYMBOL        CONST_STATE_EXMEMORYER02
  N:00FFH         SYMBOL        CONST_STATE_FALSE
  N:0009H         SYMBOL        CONST_STATE_GETSECURESELFILEER
  N:0005H         SYMBOL        CONST_STATE_ILLEGALACTCARD
  N:0002H         SYMBOL        CONST_STATE_ILLEGALINPUTCARD
  N:0003H         SYMBOL        CONST_STATE_INPUTCARDINVALID
  N:0001H         SYMBOL        CONST_STATE_INPUTFAIL
  N:0020H         SYMBOL        CONST_STATE_MEMORYER
  N:0005H         SYMBOL        CONST_STATE_RSTCPUER
  N:0001H         SYMBOL        CONST_STATE_SERIALACCPET
  N:0002H         SYMBOL        CONST_STATE_SERIALOVERTIME
  N:0017H         SYMBOL        CONST_STATE_TEST
  N:0000H         SYMBOL        CONST_STATE_TRUE
  N:0055H         SYMBOL        CONST_SYS_55
  N:00AAH         SYMBOL        CONST_SYS_AA
  N:0004H         SYMBOL        CONST_SYS_OBUIDLEN
  N:000AH         SYMBOL        CONST_SYS_POWERONTIMER
  N:0088H         SYMBOL        CONST_SYS_PREFLAG
  N:0064H         SYMBOL        CONST_SYS_RTCOVERTIME
  N:00FFH         SYMBOL        CONST_SYS_TRADECONFINE
  N:0001H         SYMBOL        CONST_TIMEER02
  N:00FEH         SYMBOL        CONST_TIMEER03
  N:0001H         SYMBOL        CONST_TIMEER04
  N:00FFH         SYMBOL        CONST_VSTLIMIT
  N:0000H         SYMBOL        CONST_WHITE_H
  N:0031H         SYMBOL        CONST_WHITE_L
  N:0000H         SYMBOL        CONST_WORKSTAION_0
  N:0001H         SYMBOL        CONST_WORKSTAION_1
  N:0002H         SYMBOL        CONST_WORKSTAION_2
  N:0003H         SYMBOL        CONST_WORKSTAION_3
  N:0000H         SYMBOL        CONST_XDATA_TXBUF02
  N:0080H         SYMBOL        CONST_XDATA_TXBUF02LEN
  B:00D8H.6       SYMBOL        CR
  D:0083H         SYMBOL        DPH
  D:0082H         SYMBOL        DPL
  B:00A8H.7       SYMBOL        EA
  B:00A8H.6       SYMBOL        EPCAI
  B:00A8H.6       SYMBOL        EPCA_LVD
  N:0000H         SYMBOL        HDLC
  C:3CF7H         SYMBOL        HDLC_5823_CLEARRXER
  C:3D1AH         SYMBOL        HDLC_5823_RECEVICEDATA
  C:3D6EH         SYMBOL        HDLC_5823_RXFIFO
  C:3D7AH         SYMBOL        HDLC_5823_RXFIFOLENOK
  C:3CD0H         SYMBOL        HDLC_5823_RXLOOPMI
  C:3CDCH         SYMBOL        HDLC_5823_RXLOOPOVER
  C:3CA9H         SYMBOL        HDLC_5823_RXLOOPS
  C:45E5H         SYMBOL        HDLC_5823_RXSETFIFOLENOK
  C:4510H         SYMBOL        HDLC_5823_RXSETMMILOOPS
  C:4637H         SYMBOL        HDLC_CHANGECHANNEL_1
  C:4710H         SYMBOL        HDLC_CHECKREG9TO18_COMP17CON
  C:46FAH         SYMBOL        HDLC_CHECKREG9TO18_COMP17LOOP
  C:4745H         SYMBOL        HDLC_CHECKREG9TO18_COMP18CON
BL51 BANKED LINKER/LOCATER V6.05                                                      09/23/2016  17:07:17  PAGE 184


  C:472FH         SYMBOL        HDLC_CHECKREG9TO18_COMP18LOOP
  C:46C3H         SYMBOL        HDLC_CHECKREG9TO18_COMPCON
  C:46A7H         SYMBOL        HDLC_CHECKREG9TO18_COMPLOOP
  C:474CH         SYMBOL        HDLC_CHECKREG9TO18_ERR
  C:468BH         SYMBOL        HDLC_CHECKREG9TO18_LOOP
  C:4762H         SYMBOL        HDLC_SETRXTXRESET_0
  C:4783H         SYMBOL        HDLC_SETRXTXRESET_1
  C:3C5FH         SYMBOL        HDLC_TX7E_FALGCODE
  C:3C6FH         SYMBOL        HDLC_TX7E_FALGCODE0
  C:3BBBH         SYMBOL        HDLC_TX_DATAFLAGCODE
  C:3BEAH         SYMBOL        HDLC_TX_DATAFLAGCODE_0
  C:3C0EH         SYMBOL        HDLC_TX_DATAFLAGCODE_0FZC
  C:3BF7H         SYMBOL        HDLC_TX_DATAFLAGCODE_0ZC
  C:3BBEH         SYMBOL        HDLC_TX_DATAFLAGCODE_1
  C:3BCDH         SYMBOL        HDLC_TX_DATAFLAGCODE_1ZC
  C:3BDBH         SYMBOL        HDLC_TX_DATAFLAGCODE_1ZCOVER
  C:3C32H         SYMBOL        HDLC_TX_ENDCODE
  C:3BAFH         SYMBOL        HDLC_TX_FALGCODESTART
  C:3C44H         SYMBOL        HDLC_TX_OVER
  C:3B9DH         SYMBOL        HDLC_TX_PRECODE
  C:3BB8H         SYMBOL        HDLC_TX_SENDDATA
  C:3BB6H         SYMBOL        HDLC_TX_SENDDATASTART
  C:3C2AH         SYMBOL        HDLC_TX_SENDENDCODE
  C:3B88H         SYMBOL        HDLC_TX_SET
  C:3B98H         SYMBOL        HDLC_TX_SETOVER
  C:3B7BH         SYMBOL        HDLC_TX_T
  C:3B14H         SYMBOL        HDLC_TX_UNFIX
  C:3B40H         SYMBOL        HDLC_TX_WDT
  D:00A8H         SYMBOL        IE
  N:00AFH         SYMBOL        IE2
  N:00B7H         SYMBOL        IPH
  N:00C7H         SYMBOL        ISP_CONTR
  D:0080H         SYMBOL        P0
  D:0090H         SYMBOL        P1
  D:00A0H         SYMBOL        P2
  D:00B0H         SYMBOL        P3
  N:00C0H         SYMBOL        P4
  N:00F2H         SYMBOL        PCA_PWM0
  N:00F3H         SYMBOL        PCA_PWM1
  N:00F4H         SYMBOL        PCA_PWM2
  N:00F5H         SYMBOL        PCA_PWM3
  N:00F6H         SYMBOL        PCA_PWM4
  N:00F7H         SYMBOL        PCA_PWM5
  B:0080H.4       SYMBOL        PIN_522_MISO
  B:0080H.5       SYMBOL        PIN_522_MOSI
  B:00C0H.6       SYMBOL        PIN_522_RST
  B:0080H.7       SYMBOL        PIN_522_SCLK
  B:0080H.6       SYMBOL        PIN_522_SS
  B:0090H.0       SYMBOL        PIN_5823BK_CS
  B:0090H.2       SYMBOL        PIN_5823BK_IRQ
  B:0080H.0       SYMBOL        PIN_5823BK_MISO
  B:0080H.1       SYMBOL        PIN_5823BK_MOSI
  B:00C0H.2       SYMBOL        PIN_5823BK_SCLK
  B:0080H.3       SYMBOL        PIN_BELL_01
  B:0080H.2       SYMBOL        PIN_BELL_02
  B:0090H.1       SYMBOL        PIN_BK_CE
  B:00B0H.3       SYMBOL        PIN_CARD_EXIST
BL51 BANKED LINKER/LOCATER V6.05                                                      09/23/2016  17:07:17  PAGE 185


  B:0090H.6       SYMBOL        PIN_CC1101_GDO2
  B:00B0H.7       SYMBOL        PIN_CC1101_MISO
  B:00A0H.3       SYMBOL        PIN_CC1101_MOSI
  B:00A0H.2       SYMBOL        PIN_CC1101_SCLK
  B:00B0H.6       SYMBOL        PIN_CC1101_SS
  B:00A0H.5       SYMBOL        PIN_ESAM_RST
  B:00A0H.6       SYMBOL        PIN_ESAM_RX
  B:00A0H.6       SYMBOL        PIN_ESAM_TX
  B:00C0H.5       SYMBOL        PIN_GRE
  B:0090H.4       SYMBOL        PIN_LCD_CS
  B:0090H.7       SYMBOL        PIN_LCD_DC
  B:0090H.5       SYMBOL        PIN_LCD_RST
  B:00B0H.4       SYMBOL        PIN_LCD_SCL
  B:00C0H.3       SYMBOL        PIN_LCD_SDA
  B:00A0H.7       SYMBOL        PIN_PWRDWN
  B:0090H.3       SYMBOL        PIN_PWRDWN_LCD
  B:00A0H.4       SYMBOL        PIN_PWR_GSM
  B:00A0H.1       SYMBOL        PIN_PWR_LOWIO
  B:00C0H.1       SYMBOL        PIN_RED
  B:00B0H.0       SYMBOL        PIN_SOFTSERIALRX
  B:00B0H.1       SYMBOL        PIN_SOFTSERIALTXH
  B:00B0H.5       SYMBOL        PIN_UNFIX
  B:00A0H.0       SYMBOL        PIN_WAVE_CHANNEL1
  C:3F55H         SYMBOL        POWER_UP_1
  C:3F5AH         SYMBOL        POWER_UP_2
  N:00C0H         SYMBOL        READ_BURST
  C:7895H         SYMBOL        REGARRASKANALOGREG17
  C:78A3H         SYMBOL        REGARRASKANALOGREG18
  C:7855H         SYMBOL        REGARROBU
  C:788DH         SYMBOL        REGARROBU14
  C:7891H         SYMBOL        REGARROBU15
  C:786DH         SYMBOL        REGARROBU_06
  C:7879H         SYMBOL        REGARROBU_09
  C:7881H         SYMBOL        REGARROBU_11
  N:00A2H         SYMBOL        REG_51_AUXR1
  N:008EH         SYMBOL        REG_5412AD_AUXR
  N:0094H         SYMBOL        REG_5412AD_P0M0
  N:0093H         SYMBOL        REG_5412AD_P0M1
  N:0092H         SYMBOL        REG_5412AD_P1M0
  N:0091H         SYMBOL        REG_5412AD_P1M1
  N:0096H         SYMBOL        REG_5412AD_P2M0
  N:0095H         SYMBOL        REG_5412AD_P2M1
  N:00B2H         SYMBOL        REG_5412AD_P3M0
  N:00B1H         SYMBOL        REG_5412AD_P3M1
  N:00B4H         SYMBOL        REG_5412AD_P4M0
  N:00B3H         SYMBOL        REG_5412AD_P4M1
  N:00BBH         SYMBOL        REG_5412AD_P4SW
  N:0085H         SYMBOL        REG_5412AD_SPCTL
  N:0086H         SYMBOL        REG_5412AD_SPDAT
  N:0084H         SYMBOL        REG_5412AD_SPSTAT
  N:00ABH         SYMBOL        REG_MCU_WKCTH
  N:00AAH         SYMBOL        REG_MCU_WKCTL
  N:000DH         SYMBOL        REG_RC522_BITFRAMINGREG
  N:000EH         SYMBOL        REG_RC522_COLLREG
  N:0002H         SYMBOL        REG_RC522_COMIENREG
  N:0004H         SYMBOL        REG_RC522_COMIRQREG
  N:0001H         SYMBOL        REG_RC522_COMMANDREG
BL51 BANKED LINKER/LOCATER V6.05                                                      09/23/2016  17:07:17  PAGE 186


  N:000CH         SYMBOL        REG_RC522_CONTROLREG
  N:0021H         SYMBOL        REG_RC522_CRCRESULTREGH
  N:0022H         SYMBOL        REG_RC522_CRCRESULTREGL
  N:0028H         SYMBOL        REG_RC522_CWGSPREG
  N:0019H         SYMBOL        REG_RC522_DEMODREG
  N:0003H         SYMBOL        REG_RC522_DIVIENREG
  N:0005H         SYMBOL        REG_RC522_DIVIRQREG
  N:0006H         SYMBOL        REG_RC522_ERRORREG
  N:0009H         SYMBOL        REG_RC522_FIFODATAREG
  N:000AH         SYMBOL        REG_RC522_FIFOLEVELREG
  N:0027H         SYMBOL        REG_RC522_GSNREG
  N:001CH         SYMBOL        REG_RC522_MIFAREREG
  N:0011H         SYMBOL        REG_RC522_MODEREG
  N:0029H         SYMBOL        REG_RC522_MODGSPREG
  N:0024H         SYMBOL        REG_RC522_MODWIDTHREG
  N:0000H         SYMBOL        REG_RC522_RC522PAGE
  N:0026H         SYMBOL        REG_RC522_RFCFGREG
  N:000FH         SYMBOL        REG_RC522_RFU
  N:0013H         SYMBOL        REG_RC522_RXMODEREG
  N:0017H         SYMBOL        REG_RC522_RXSELREG
  N:0018H         SYMBOL        REG_RC522_RXTHRESHOLDREG
  N:001FH         SYMBOL        REG_RC522_SERIALSPEEDREG
  N:0007H         SYMBOL        REG_RC522_STATUS1REG
  N:0008H         SYMBOL        REG_RC522_STATUS2REG
  N:002EH         SYMBOL        REG_RC522_TCOUNTERVALUEREGH
  N:002FH         SYMBOL        REG_RC522_TCOUNTERVALUEREGL
  N:002AH         SYMBOL        REG_RC522_TMODEREG
  N:002BH         SYMBOL        REG_RC522_TPRESCALERREG
  N:002CH         SYMBOL        REG_RC522_TRELOADREGH
  N:002DH         SYMBOL        REG_RC522_TRELOADREGL
  N:0015H         SYMBOL        REG_RC522_TXAUTOREG
  N:0014H         SYMBOL        REG_RC522_TXCONTROLREG
  N:0012H         SYMBOL        REG_RC522_TXMODEREG
  N:0016H         SYMBOL        REG_RC522_TXSELREG
  N:000BH         SYMBOL        REG_RC522_WATERLEVELREG
  N:009CH         SYMBOL        REG_SYS_BRT
  N:008FH         SYMBOL        REG_WAKECLK0
  B:00D8H.4       SYMBOL        REG_WAKECLK_04
  B:00D8H.5       SYMBOL        REG_WAKECLK_05
  N:00C1H         SYMBOL        REG_WDT_CONTR
  N:00EAH         SYMBOL        RELOAD2_CONTR
  C:3EC1H         SYMBOL        RX_EN_1
  C:3EC6H         SYMBOL        RX_EN_2
  N:009BH         SYMBOL        S2BUF
  N:009AH         SYMBOL        S2CON
  C:3C4BH         SYMBOL        SEG_HDLC_TX7E
  C:3DDAH         SYMBOL        SPI_R
  C:3E1FH         SYMBOL        SPI_READ_REG_1
  C:3E27H         SYMBOL        SPI_READ_REG_MOV
  C:3E38H         SYMBOL        SPI_READ_REG_MOVOV
  C:3E2AH         SYMBOL        SPI_READ_REG_MOVX
  C:3DC9H         SYMBOL        SPI_RW_1
  C:3E42H         SYMBOL        SPI_W
  C:3E8CH         SYMBOL        SPI_WRITE_REG_1
  N:0009H         SYMBOL        TI_CCXXX0_ADDR
  N:001DH         SYMBOL        TI_CCXXX0_AGCCTRL0
  N:001CH         SYMBOL        TI_CCXXX0_AGCCTRL1
BL51 BANKED LINKER/LOCATER V6.05                                                      09/23/2016  17:07:17  PAGE 187


  N:001BH         SYMBOL        TI_CCXXX0_AGCCTRL2
  N:002BH         SYMBOL        TI_CCXXX0_AGCTEST
  N:001AH         SYMBOL        TI_CCXXX0_BSCFG
  N:000AH         SYMBOL        TI_CCXXX0_CHANNR
  N:0015H         SYMBOL        TI_CCXXX0_DEVIATN
  N:0003H         SYMBOL        TI_CCXXX0_FIFOTHR
  N:0019H         SYMBOL        TI_CCXXX0_FOCCFG
  N:0022H         SYMBOL        TI_CCXXX0_FREND0
  N:0021H         SYMBOL        TI_CCXXX0_FREND1
  N:000FH         SYMBOL        TI_CCXXX0_FREQ0
  N:000EH         SYMBOL        TI_CCXXX0_FREQ1
  N:000DH         SYMBOL        TI_CCXXX0_FREQ2
  N:0032H         SYMBOL        TI_CCXXX0_FREQEST
  N:0026H         SYMBOL        TI_CCXXX0_FSCAL0
  N:0025H         SYMBOL        TI_CCXXX0_FSCAL1
  N:0024H         SYMBOL        TI_CCXXX0_FSCAL2
  N:0023H         SYMBOL        TI_CCXXX0_FSCAL3
  N:000CH         SYMBOL        TI_CCXXX0_FSCTRL0
  N:000BH         SYMBOL        TI_CCXXX0_FSCTRL1
  N:0029H         SYMBOL        TI_CCXXX0_FSTEST
  N:0002H         SYMBOL        TI_CCXXX0_IOCFG0
  N:0001H         SYMBOL        TI_CCXXX0_IOCFG1
  N:0000H         SYMBOL        TI_CCXXX0_IOCFG2
  N:0033H         SYMBOL        TI_CCXXX0_LQI
  N:0035H         SYMBOL        TI_CCXXX0_MARCSTATE
  N:0018H         SYMBOL        TI_CCXXX0_MCSM0
  N:0017H         SYMBOL        TI_CCXXX0_MCSM1
  N:0016H         SYMBOL        TI_CCXXX0_MCSM2
  N:0014H         SYMBOL        TI_CCXXX0_MDMCFG0
  N:0013H         SYMBOL        TI_CCXXX0_MDMCFG1
  N:0012H         SYMBOL        TI_CCXXX0_MDMCFG2
  N:0011H         SYMBOL        TI_CCXXX0_MDMCFG3
  N:0010H         SYMBOL        TI_CCXXX0_MDMCFG4
  N:007FH         SYMBOL        TI_CCXXX0_NUM_RXBYTES
  N:0030H         SYMBOL        TI_CCXXX0_PARTNUM
  N:003EH         SYMBOL        TI_CCXXX0_PATABLE
  N:0008H         SYMBOL        TI_CCXXX0_PKTCTRL0
  N:0007H         SYMBOL        TI_CCXXX0_PKTCTRL1
  N:0006H         SYMBOL        TI_CCXXX0_PKTLEN
  N:0038H         SYMBOL        TI_CCXXX0_PKTSTATUS
  N:002AH         SYMBOL        TI_CCXXX0_PTEST
  N:0028H         SYMBOL        TI_CCXXX0_RCCTRL0
  N:0027H         SYMBOL        TI_CCXXX0_RCCTRL1
  N:0034H         SYMBOL        TI_CCXXX0_RSSI
  N:003BH         SYMBOL        TI_CCXXX0_RXBYTES
  N:003FH         SYMBOL        TI_CCXXX0_RXFIFO
  N:0037H         SYMBOL        TI_CCXXX0_SAFC
  N:0033H         SYMBOL        TI_CCXXX0_SCAL
  N:003AH         SYMBOL        TI_CCXXX0_SFRX
  N:003BH         SYMBOL        TI_CCXXX0_SFTX
  N:0036H         SYMBOL        TI_CCXXX0_SIDLE
  N:003DH         SYMBOL        TI_CCXXX0_SNOP
  N:0039H         SYMBOL        TI_CCXXX0_SPWD
  N:0030H         SYMBOL        TI_CCXXX0_SRES
  N:0034H         SYMBOL        TI_CCXXX0_SRX
  N:0035H         SYMBOL        TI_CCXXX0_STX
  N:0038H         SYMBOL        TI_CCXXX0_SWOR
BL51 BANKED LINKER/LOCATER V6.05                                                      09/23/2016  17:07:17  PAGE 188


  N:003CH         SYMBOL        TI_CCXXX0_SWORRST
  N:0032H         SYMBOL        TI_CCXXX0_SXOFF
  N:0005H         SYMBOL        TI_CCXXX0_SYNC0
  N:0004H         SYMBOL        TI_CCXXX0_SYNC1
  N:002EH         SYMBOL        TI_CCXXX0_TEST0
  N:002DH         SYMBOL        TI_CCXXX0_TEST1
  N:002CH         SYMBOL        TI_CCXXX0_TEST2
  N:003AH         SYMBOL        TI_CCXXX0_TXBYTES
  N:003FH         SYMBOL        TI_CCXXX0_TXFIFO
  N:0039H         SYMBOL        TI_CCXXX0_VCO_VC_DAC
  N:0031H         SYMBOL        TI_CCXXX0_VERSION
  N:0020H         SYMBOL        TI_CCXXX0_WORCTRL
  N:001FH         SYMBOL        TI_CCXXX0_WOREVT0
  N:001EH         SYMBOL        TI_CCXXX0_WOREVT1
  N:0037H         SYMBOL        TI_CCXXX0_WORTIME0
  N:0036H         SYMBOL        TI_CCXXX0_WORTIME1
  C:3F18H         SYMBOL        TX_CARRIER_EN_1
  N:008FH         SYMBOL        WAKE_CLKO
  C:3F76H         SYMBOL        WAKE_UP
  C:3FA2H         SYMBOL        WAKE_UP_1
  C:4390H         SYMBOL        WIRTE_REG7
  C:4323H         SYMBOL        WKOUP_SJ
  B:00B0H.2       SYMBOL        WKO_BK
  C:42AFH         SYMBOL        WKO_SJ_1
  C:42B2H         SYMBOL        WKO_SJ_2
  C:42DAH         SYMBOL        WKO_SJ_3
  C:42DDH         SYMBOL        WKO_SJ_4
  C:4305H         SYMBOL        WKO_SJ_5
  C:4308H         SYMBOL        WKO_SJ_6
  C:4172H         SYMBOL        _BK5822_RST
  C:413FH         SYMBOL        _BK_SPIRST
  C:4112H         SYMBOL        _DISABLE_WAKE_UP
  C:40E5H         SYMBOL        _ENABLE_WAKE_UP
  C:3FADH         SYMBOL        _ENTER_IDLE_MODE
  C:474FH         SYMBOL        _FUN_HDLC_SETRXTXRESET
  C:47A4H         SYMBOL        _FUN_HDLC_WAKEUPXIAODUI
  C:4562H         SYMBOL        _HDLC_RXSETMMICLEARRXER
  C:4585H         SYMBOL        _HDLC_RXSETMMIRECEVICEDATA
  C:45D9H         SYMBOL        _HDLC_RXSETMMIRXFIFO
  C:4531H         SYMBOL        _HDLC_RXSETMMIRXLOOP
  C:4533H         SYMBOL        _HDLC_RXSETMMIRXLOOP02
  C:4539H         SYMBOL        _HDLC_RXSETMMIRXLOOPMI02
  C:4545H         SYMBOL        _HDLC_RXSETMMIRXLOOPOVER02
  C:3AD7H         LINE#         53
  C:3AD9H         LINE#         54
  C:3ADCH         LINE#         56
  C:3ADFH         LINE#         57
  C:3AE1H         LINE#         58
  C:3AE3H         LINE#         59
  C:3AE5H         LINE#         60
  C:3AE7H         LINE#         61
  C:3AE9H         LINE#         62
  C:3AEBH         LINE#         63
  C:3AEDH         LINE#         64
  C:3AEFH         LINE#         65
  C:3AF1H         LINE#         66
  C:3AF3H         LINE#         67
BL51 BANKED LINKER/LOCATER V6.05                                                      09/23/2016  17:07:17  PAGE 189


  C:3AF5H         LINE#         68
  C:3AF7H         LINE#         69
  C:3AF9H         LINE#         70
  C:3AFBH         LINE#         71
  C:3AFDH         LINE#         72
  C:3AFFH         LINE#         73
  C:3B01H         LINE#         74
  C:3B03H         LINE#         75
  C:3B05H         LINE#         76
  C:3B07H         LINE#         77
  C:3B09H         LINE#         78
  C:3B0CH         LINE#         80
  C:3B0EH         LINE#         81
  C:3B11H         LINE#         83
  C:3B14H         LINE#         86
  C:3B16H         LINE#         87
  C:3B17H         LINE#         89
  C:3B1AH         LINE#         90
  C:3B1CH         LINE#         91
  C:3B1DH         LINE#         92
  C:3B1FH         LINE#         93
  C:3B21H         LINE#         94
  C:3B23H         LINE#         97
  C:3B25H         LINE#         98
  C:3B26H         LINE#         100
  C:3B27H         LINE#         103
  C:3B29H         LINE#         104
  C:3B2AH         LINE#         105
  C:3B2CH         LINE#         106
  C:3B2EH         LINE#         107
  C:3B30H         LINE#         110
  C:3B32H         LINE#         111
  C:3B33H         LINE#         113
  C:3B36H         LINE#         114
  C:3B38H         LINE#         116
  C:3B3AH         LINE#         117
  C:3B3DH         LINE#         119
  C:3B40H         LINE#         124
  C:3B43H         LINE#         126
  C:3B45H         LINE#         127
  C:3B47H         LINE#         128
  C:3B49H         LINE#         129
  C:3B4BH         LINE#         130
  C:3B4DH         LINE#         131
  C:3B4FH         LINE#         132
  C:3B51H         LINE#         134
  C:3B54H         LINE#         136
  C:3B56H         LINE#         137
  C:3B59H         LINE#         140
  C:3B5BH         LINE#         141
  C:3B5DH         LINE#         142
  C:3B5FH         LINE#         143
  C:3B61H         LINE#         144
  C:3B64H         LINE#         146
  C:3B66H         LINE#         148
  C:3B69H         LINE#         149
  C:3B6BH         LINE#         150
BL51 BANKED LINKER/LOCATER V6.05                                                      09/23/2016  17:07:17  PAGE 190


  C:3B6CH         LINE#         151
  C:3B6EH         LINE#         154
  C:3B70H         LINE#         155
  C:3B71H         LINE#         157
  C:3B73H         LINE#         158
  C:3B75H         LINE#         159
  C:3B77H         LINE#         160
  C:3B7AH         LINE#         162
  C:3B7BH         LINE#         166
  C:3B7DH         LINE#         169
  C:3B80H         LINE#         170
  C:3B83H         LINE#         171
  C:3B85H         LINE#         173
  C:3B86H         LINE#         176
  C:3B88H         LINE#         179
  C:3B89H         LINE#         180
  C:3B8AH         LINE#         181
  C:3B8BH         LINE#         182
  C:3B8CH         LINE#         183
  C:3B8EH         LINE#         185
  C:3B91H         LINE#         186
  C:3B93H         LINE#         189
  C:3B96H         LINE#         191
  C:3B98H         LINE#         194
  C:3B9BH         LINE#         197
  C:3B9DH         LINE#         200
  C:3B9EH         LINE#         201
  C:3B9FH         LINE#         202
  C:3BA0H         LINE#         203
  C:3BA1H         LINE#         204
  C:3BA3H         LINE#         206
  C:3BA6H         LINE#         207
  C:3BA8H         LINE#         209
  C:3BA9H         LINE#         210
  C:3BAAH         LINE#         211
  C:3BABH         LINE#         213
  C:3BACH         LINE#         214
  C:3BADH         LINE#         216
  C:3BAFH         LINE#         219
  C:3BB0H         LINE#         220
  C:3BB1H         LINE#         221
  C:3BB2H         LINE#         222
  C:3BB5H         LINE#         223
  C:3BB6H         LINE#         230
  C:3BB8H         LINE#         232
  C:3BBAH         LINE#         236
  C:3BBBH         LINE#         238
  C:3BBCH         LINE#         239
  C:3BBEH         LINE#         242
  C:3BBFH         LINE#         243
  C:3BC0H         LINE#         244
  C:3BC1H         LINE#         245
  C:3BC2H         LINE#         246
  C:3BC4H         LINE#         248
  C:3BC5H         LINE#         249
  C:3BC8H         LINE#         252
  C:3BCBH         LINE#         253
BL51 BANKED LINKER/LOCATER V6.05                                                      09/23/2016  17:07:17  PAGE 191


  C:3BCDH         LINE#         256
  C:3BCEH         LINE#         257
  C:3BCFH         LINE#         258
  C:3BD0H         LINE#         259
  C:3BD1H         LINE#         260
  C:3BD2H         LINE#         261
  C:3BD3H         LINE#         263
  C:3BD6H         LINE#         264
  C:3BD8H         LINE#         267
  C:3BDBH         LINE#         269
  C:3BDDH         LINE#         272
  C:3BDEH         LINE#         273
  C:3BDFH         LINE#         274
  C:3BE0H         LINE#         276
  C:3BE2H         LINE#         278
  C:3BE3H         LINE#         279
  C:3BE4H         LINE#         280
  C:3BE5H         LINE#         281
  C:3BE8H         LINE#         282
  C:3BEAH         LINE#         286
  C:3BEBH         LINE#         287
  C:3BECH         LINE#         288
  C:3BEDH         LINE#         289
  C:3BEEH         LINE#         290
  C:3BF0H         LINE#         291
  C:3BF2H         LINE#         292
  C:3BF5H         LINE#         293
  C:3BF7H         LINE#         296
  C:3BF8H         LINE#         297
  C:3BF9H         LINE#         298
  C:3BFAH         LINE#         299
  C:3BFBH         LINE#         300
  C:3BFCH         LINE#         301
  C:3BFDH         LINE#         302
  C:3BFEH         LINE#         303
  C:3BFFH         LINE#         304
  C:3C00H         LINE#         305
  C:3C01H         LINE#         306
  C:3C02H         LINE#         307
  C:3C04H         LINE#         309
  C:3C05H         LINE#         310
  C:3C06H         LINE#         311
  C:3C07H         LINE#         312
  C:3C08H         LINE#         313
  C:3C09H         LINE#         314
  C:3C0AH         LINE#         315
  C:3C0BH         LINE#         316
  C:3C0CH         LINE#         317
  C:3C0EH         LINE#         320
  C:3C0FH         LINE#         321
  C:3C10H         LINE#         322
  C:3C11H         LINE#         323
  C:3C12H         LINE#         325
  C:3C13H         LINE#         326
  C:3C14H         LINE#         327
  C:3C15H         LINE#         329
  C:3C16H         LINE#         330
BL51 BANKED LINKER/LOCATER V6.05                                                      09/23/2016  17:07:17  PAGE 192


  C:3C17H         LINE#         331
  C:3C18H         LINE#         332
  C:3C19H         LINE#         333
  C:3C1BH         LINE#         334
  C:3C1CH         LINE#         335
  C:3C1DH         LINE#         336
  C:3C1EH         LINE#         337
  C:3C20H         LINE#         339
  C:3C21H         LINE#         340
  C:3C22H         LINE#         341
  C:3C23H         LINE#         342
  C:3C26H         LINE#         343
  C:3C27H         LINE#         344
  C:3C28H         LINE#         345
  C:3C29H         LINE#         346
  C:3C2AH         LINE#         349
  C:3C2BH         LINE#         350
  C:3C2CH         LINE#         351
  C:3C2DH         LINE#         352
  C:3C2EH         LINE#         353
  C:3C2FH         LINE#         354
  C:3C30H         LINE#         356
  C:3C32H         LINE#         359
  C:3C33H         LINE#         360
  C:3C34H         LINE#         361
  C:3C35H         LINE#         362
  C:3C36H         LINE#         363
  C:3C38H         LINE#         365
  C:3C3BH         LINE#         366
  C:3C3DH         LINE#         368
  C:3C3EH         LINE#         369
  C:3C3FH         LINE#         370
  C:3C40H         LINE#         371
  C:3C41H         LINE#         372
  C:3C42H         LINE#         374
  C:3C44H         LINE#         377
  C:3C45H         LINE#         378
  C:3C46H         LINE#         379
  C:3C47H         LINE#         380
  C:3C48H         LINE#         381
  C:3C4AH         LINE#         383
  C:3C4BH         LINE#         390
  C:3C4CH         LINE#         391
  C:3C4DH         LINE#         392
  C:3C4EH         LINE#         393
  C:3C4FH         LINE#         394
  C:3C51H         LINE#         396
  C:3C54H         LINE#         398
  C:3C55H         LINE#         399
  C:3C56H         LINE#         400
  C:3C57H         LINE#         401
  C:3C58H         LINE#         402
  C:3C5AH         LINE#         404
  C:3C5DH         LINE#         406
  C:3C5FH         LINE#         408
  C:3C60H         LINE#         409
  C:3C61H         LINE#         410
BL51 BANKED LINKER/LOCATER V6.05                                                      09/23/2016  17:07:17  PAGE 193


  C:3C62H         LINE#         411
  C:3C63H         LINE#         412
  C:3C65H         LINE#         414
  C:3C68H         LINE#         415
  C:3C6AH         LINE#         417
  C:3C6DH         LINE#         419
  C:3C6FH         LINE#         422
  C:3C72H         LINE#         424
  C:3C73H         LINE#         425
  C:3C74H         LINE#         426
  C:3C75H         LINE#         427
  C:3C76H         LINE#         428
  C:3C78H         LINE#         430
  C:3C7BH         LINE#         432
  C:3C7CH         LINE#         433
  C:3C7DH         LINE#         434
  C:3C7EH         LINE#         435
  C:3C7FH         LINE#         436
  C:3C81H         LINE#         438
  C:3C82H         LINE#         454
  C:3C85H         LINE#         457
  C:3C87H         LINE#         458
  C:3C89H         LINE#         459
  C:3C8BH         LINE#         460
  C:3C8DH         LINE#         461
  C:3C90H         LINE#         463
  C:3C92H         LINE#         465
  C:3C95H         LINE#         466
  C:3C97H         LINE#         467
  C:3C98H         LINE#         468
  C:3C9AH         LINE#         470
  C:3C9DH         LINE#         471
  C:3C9FH         LINE#         472
  C:3CA0H         LINE#         474
  C:3CA2H         LINE#         475
  C:3CA4H         LINE#         476
  C:3CA6H         LINE#         477
  C:3CA9H         LINE#         480
  C:3CABH         LINE#         481
  C:3CADH         LINE#         482
  C:3CAFH         LINE#         483
  C:3CB1H         LINE#         484
  C:3CB4H         LINE#         486
  C:3CB6H         LINE#         488
  C:3CB9H         LINE#         489
  C:3CBBH         LINE#         490
  C:3CBCH         LINE#         491
  C:3CBEH         LINE#         495
  C:3CC0H         LINE#         496
  C:3CC1H         LINE#         498
  C:3CC3H         LINE#         499
  C:3CC5H         LINE#         500
  C:3CC7H         LINE#         501
  C:3CCAH         LINE#         507
  C:3CCCH         LINE#         508
  C:3CCEH         LINE#         509
  C:3CD0H         LINE#         511
BL51 BANKED LINKER/LOCATER V6.05                                                      09/23/2016  17:07:17  PAGE 194


  C:3CD3H         LINE#         512
  C:3CD5H         LINE#         513
  C:3CD7H         LINE#         514
  C:3CD9H         LINE#         516
  C:3CDCH         LINE#         525
  C:3CDEH         LINE#         526
  C:3CE0H         LINE#         527
  C:3CE2H         LINE#         528
  C:3CE4H         LINE#         529
  C:3CE7H         LINE#         531
  C:3CE9H         LINE#         533
  C:3CECH         LINE#         534
  C:3CEEH         LINE#         535
  C:3CEFH         LINE#         537
  C:3CF1H         LINE#         538
  C:3CF3H         LINE#         540
  C:3CF5H         LINE#         541
  C:3CF7H         LINE#         546
  C:3CF9H         LINE#         547
  C:3CFBH         LINE#         548
  C:3CFDH         LINE#         549
  C:3CFFH         LINE#         550
  C:3D02H         LINE#         552
  C:3D04H         LINE#         554
  C:3D07H         LINE#         555
  C:3D09H         LINE#         556
  C:3D0AH         LINE#         557
  C:3D0CH         LINE#         560
  C:3D0EH         LINE#         561
  C:3D0FH         LINE#         563
  C:3D11H         LINE#         564
  C:3D13H         LINE#         565
  C:3D15H         LINE#         566
  C:3D18H         LINE#         568
  C:3D1AH         LINE#         582
  C:3D1CH         LINE#         583
  C:3D1EH         LINE#         584
  C:3D20H         LINE#         585
  C:3D22H         LINE#         586
  C:3D25H         LINE#         588
  C:3D27H         LINE#         590
  C:3D2AH         LINE#         591
  C:3D2CH         LINE#         592
  C:3D2DH         LINE#         593
  C:3D2FH         LINE#         596
  C:3D31H         LINE#         597
  C:3D32H         LINE#         599
  C:3D34H         LINE#         600
  C:3D36H         LINE#         601
  C:3D38H         LINE#         602
  C:3D3BH         LINE#         605
  C:3D3DH         LINE#         606
  C:3D3FH         LINE#         607
  C:3D41H         LINE#         608
  C:3D43H         LINE#         609
  C:3D46H         LINE#         610
  C:3D48H         LINE#         613
BL51 BANKED LINKER/LOCATER V6.05                                                      09/23/2016  17:07:17  PAGE 195


  C:3D4AH         LINE#         614
  C:3D4BH         LINE#         617
  C:3D4DH         LINE#         619
  C:3D4FH         LINE#         620
  C:3D51H         LINE#         621
  C:3D53H         LINE#         622
  C:3D55H         LINE#         623
  C:3D58H         LINE#         624
  C:3D5AH         LINE#         627
  C:3D5CH         LINE#         628
  C:3D5DH         LINE#         629
  C:3D5FH         LINE#         632
  C:3D61H         LINE#         633
  C:3D62H         LINE#         634
  C:3D64H         LINE#         635
  C:3D66H         LINE#         636
  C:3D68H         LINE#         637
  C:3D6BH         LINE#         638
  C:3D6EH         LINE#         640
  C:3D6FH         LINE#         641
  C:3D70H         LINE#         642
  C:3D72H         LINE#         643
  C:3D75H         LINE#         644
  C:3D77H         LINE#         645
  C:3D7AH         LINE#         647
  C:3D7CH         LINE#         648
  C:3D7DH         LINE#         650
  C:3D7FH         LINE#         651
  C:3D81H         LINE#         654
  C:3D83H         LINE#         655
  C:3D85H         LINE#         658
  C:3D87H         LINE#         659
  C:3D88H         LINE#         660
  C:3D89H         LINE#         667
  C:3D8BH         LINE#         668
  C:3D8DH         LINE#         669
  C:3D8FH         LINE#         670
  C:3D92H         LINE#         671
  C:3D94H         LINE#         673
  C:3D96H         LINE#         674
  C:3D98H         LINE#         675
  C:3D9AH         LINE#         676
  C:3D9CH         LINE#         677
  C:3D9FH         LINE#         678
  C:3DA1H         LINE#         681
  C:3DA3H         LINE#         682
  C:3DA4H         LINE#         683
  C:3DA6H         LINE#         686
  C:3DA8H         LINE#         687
  C:3DA9H         LINE#         688
  C:3DABH         LINE#         689
  C:3DADH         LINE#         690
  C:3DAFH         LINE#         691
  C:3DB2H         LINE#         692
  C:3DB4H         LINE#         693
  C:3DB5H         LINE#         694
  C:3DB7H         LINE#         696
BL51 BANKED LINKER/LOCATER V6.05                                                      09/23/2016  17:07:17  PAGE 196


  C:3DB8H         LINE#         714
  C:3DBAH         LINE#         715
  C:3DBCH         LINE#         716
  C:3DBFH         LINE#         717
  C:3DC2H         LINE#         718
  C:3DC3H         LINE#         725
  C:3DC5H         LINE#         726
  C:3DC7H         LINE#         727
  C:3DC9H         LINE#         729
  C:3DCAH         LINE#         730
  C:3DCCH         LINE#         731
  C:3DCEH         LINE#         732
  C:3DD0H         LINE#         733
  C:3DD2H         LINE#         735
  C:3DD4H         LINE#         736
  C:3DD6H         LINE#         737
  C:3DD7H         LINE#         738
  C:3DD9H         LINE#         740
  C:3DDAH         LINE#         743
  C:3DDCH         LINE#         744
  C:3DDEH         LINE#         745
  C:3DE0H         LINE#         746
  C:3DE1H         LINE#         748
  C:3DE3H         LINE#         749
  C:3DE5H         LINE#         750
  C:3DE7H         LINE#         751
  C:3DE8H         LINE#         753
  C:3DEAH         LINE#         754
  C:3DECH         LINE#         755
  C:3DEEH         LINE#         756
  C:3DEFH         LINE#         758
  C:3DF1H         LINE#         759
  C:3DF3H         LINE#         760
  C:3DF5H         LINE#         761
  C:3DF6H         LINE#         763
  C:3DF8H         LINE#         764
  C:3DFAH         LINE#         765
  C:3DFCH         LINE#         766
  C:3DFDH         LINE#         768
  C:3DFFH         LINE#         769
  C:3E01H         LINE#         770
  C:3E03H         LINE#         771
  C:3E04H         LINE#         773
  C:3E06H         LINE#         774
  C:3E08H         LINE#         775
  C:3E0AH         LINE#         776
  C:3E0BH         LINE#         778
  C:3E0DH         LINE#         779
  C:3E0FH         LINE#         780
  C:3E11H         LINE#         781
  C:3E12H         LINE#         783
  C:3E13H         LINE#         792
  C:3E15H         LINE#         793
  C:3E17H         LINE#         794
  C:3E19H         LINE#         796
  C:3E1AH         LINE#         797
  C:3E1DH         LINE#         799
BL51 BANKED LINKER/LOCATER V6.05                                                      09/23/2016  17:07:17  PAGE 197


  C:3E1EH         LINE#         800
  C:3E1FH         LINE#         802
  C:3E21H         LINE#         803
  C:3E24H         LINE#         804
  C:3E27H         LINE#         806
  C:3E28H         LINE#         807
  C:3E2AH         LINE#         810
  C:3E2CH         LINE#         811
  C:3E2EH         LINE#         812
  C:3E31H         LINE#         813
  C:3E33H         LINE#         814
  C:3E34H         LINE#         815
  C:3E36H         LINE#         816
  C:3E38H         LINE#         819
  C:3E39H         LINE#         820
  C:3E3BH         LINE#         821
  C:3E3DH         LINE#         822
  C:3E3FH         LINE#         823
  C:3E41H         LINE#         825
  C:3E42H         LINE#         831
  C:3E43H         LINE#         832
  C:3E45H         LINE#         833
  C:3E47H         LINE#         834
  C:3E49H         LINE#         836
  C:3E4AH         LINE#         837
  C:3E4CH         LINE#         838
  C:3E4EH         LINE#         839
  C:3E50H         LINE#         841
  C:3E51H         LINE#         842
  C:3E53H         LINE#         843
  C:3E55H         LINE#         844
  C:3E57H         LINE#         846
  C:3E58H         LINE#         847
  C:3E5AH         LINE#         848
  C:3E5CH         LINE#         849
  C:3E5EH         LINE#         851
  C:3E5FH         LINE#         852
  C:3E61H         LINE#         853
  C:3E63H         LINE#         854
  C:3E65H         LINE#         856
  C:3E66H         LINE#         857
  C:3E68H         LINE#         858
  C:3E6AH         LINE#         859
  C:3E6CH         LINE#         861
  C:3E6DH         LINE#         862
  C:3E6FH         LINE#         863
  C:3E71H         LINE#         864
  C:3E73H         LINE#         867
  C:3E74H         LINE#         868
  C:3E76H         LINE#         869
  C:3E78H         LINE#         870
  C:3E7AH         LINE#         872
  C:3E7CH         LINE#         873
  C:3E7DH         LINE#         882
  C:3E7FH         LINE#         884
  C:3E81H         LINE#         885
  C:3E83H         LINE#         887
BL51 BANKED LINKER/LOCATER V6.05                                                      09/23/2016  17:07:17  PAGE 198


  C:3E84H         LINE#         888
  C:3E86H         LINE#         889
  C:3E89H         LINE#         891
  C:3E8AH         LINE#         892
  C:3E8BH         LINE#         893
  C:3E8CH         LINE#         897
  C:3E8EH         LINE#         898
  C:3E90H         LINE#         899
  C:3E93H         LINE#         900
  C:3E95H         LINE#         901
  C:3E96H         LINE#         902
  C:3E98H         LINE#         903
  C:3E9AH         LINE#         905
  C:3E9DH         LINE#         906
  C:3E9EH         LINE#         907
  C:3EA0H         LINE#         909
  C:3EA2H         LINE#         910
  C:3EA4H         LINE#         912
  C:3EA6H         LINE#         914
  C:3EA7H         LINE#         922
  C:3EA9H         LINE#         924
  C:3EABH         LINE#         925
  C:3EADH         LINE#         927
  C:3EAFH         LINE#         928
  C:3EB1H         LINE#         929
  C:3EB4H         LINE#         931
  C:3EB7H         LINE#         933
  C:3EB8H         LINE#         934
  C:3EBAH         LINE#         936
  C:3EBCH         LINE#         937
  C:3EBDH         LINE#         938
  C:3EBFH         LINE#         939
  C:3EC1H         LINE#         942
  C:3EC3H         LINE#         943
  C:3EC4H         LINE#         944
  C:3EC6H         LINE#         947
  C:3EC9H         LINE#         949
  C:3ECBH         LINE#         950
  C:3ECCH         LINE#         951
  C:3ECFH         LINE#         953
  C:3ED1H         LINE#         954
  C:3ED2H         LINE#         955
  C:3ED5H         LINE#         957
  C:3ED7H         LINE#         958
  C:3ED8H         LINE#         959
  C:3EDBH         LINE#         961
  C:3EDDH         LINE#         962
  C:3EDFH         LINE#         964
  C:3EE1H         LINE#         966
  C:3EE2H         LINE#         974
  C:3EE4H         LINE#         976
  C:3EE6H         LINE#         977
  C:3EE8H         LINE#         979
  C:3EEAH         LINE#         980
  C:3EECH         LINE#         981
  C:3EEFH         LINE#         983
  C:3EF2H         LINE#         984
BL51 BANKED LINKER/LOCATER V6.05                                                      09/23/2016  17:07:17  PAGE 199


  C:3EF3H         LINE#         985
  C:3EF5H         LINE#         987
  C:3EF7H         LINE#         988
  C:3EF8H         LINE#         989
  C:3EFBH         LINE#         991
  C:3EFDH         LINE#         992
  C:3EFEH         LINE#         993
  C:3F01H         LINE#         995
  C:3F03H         LINE#         996
  C:3F04H         LINE#         997
  C:3F07H         LINE#         999
  C:3F09H         LINE#         1000
  C:3F0AH         LINE#         1001
  C:3F0CH         LINE#         1002
  C:3F0EH         LINE#         1003
  C:3F11H         LINE#         1005
  C:3F13H         LINE#         1006
  C:3F15H         LINE#         1008
  C:3F17H         LINE#         1009
  C:3F18H         LINE#         1012
  C:3F1AH         LINE#         1013
  C:3F1BH         LINE#         1014
  C:3F1EH         LINE#         1016
  C:3F20H         LINE#         1017
  C:3F21H         LINE#         1018
  C:3F24H         LINE#         1020
  C:3F26H         LINE#         1021
  C:3F27H         LINE#         1022
  C:3F2AH         LINE#         1024
  C:3F2CH         LINE#         1025
  C:3F2DH         LINE#         1026
  C:3F2FH         LINE#         1027
  C:3F31H         LINE#         1028
  C:3F34H         LINE#         1030
  C:3F36H         LINE#         1031
  C:3F38H         LINE#         1033
  C:3F3AH         LINE#         1034
  C:3F3BH         LINE#         1042
  C:3F3DH         LINE#         1044
  C:3F3FH         LINE#         1045
  C:3F41H         LINE#         1047
  C:3F43H         LINE#         1048
  C:3F45H         LINE#         1049
  C:3F48H         LINE#         1051
  C:3F4BH         LINE#         1052
  C:3F4CH         LINE#         1053
  C:3F4EH         LINE#         1055
  C:3F50H         LINE#         1056
  C:3F51H         LINE#         1057
  C:3F53H         LINE#         1058
  C:3F55H         LINE#         1061
  C:3F57H         LINE#         1062
  C:3F58H         LINE#         1063
  C:3F5AH         LINE#         1066
  C:3F5DH         LINE#         1068
  C:3F5FH         LINE#         1069
  C:3F60H         LINE#         1070
BL51 BANKED LINKER/LOCATER V6.05                                                      09/23/2016  17:07:17  PAGE 200


  C:3F63H         LINE#         1072
  C:3F65H         LINE#         1073
  C:3F66H         LINE#         1074
  C:3F69H         LINE#         1076
  C:3F6BH         LINE#         1077
  C:3F6CH         LINE#         1078
  C:3F6FH         LINE#         1080
  C:3F71H         LINE#         1081
  C:3F73H         LINE#         1083
  C:3F75H         LINE#         1085
  C:3F76H         LINE#         1093
  C:3F78H         LINE#         1095
  C:3F7AH         LINE#         1096
  C:3F7CH         LINE#         1097
  C:3F7FH         LINE#         1099
  C:3F82H         LINE#         1101
  C:3F84H         LINE#         1102
  C:3F85H         LINE#         1103
  C:3F88H         LINE#         1105
  C:3F8AH         LINE#         1106
  C:3F8BH         LINE#         1107
  C:3F8EH         LINE#         1109
  C:3F90H         LINE#         1110
  C:3F91H         LINE#         1111
  C:3F94H         LINE#         1113
  C:3F95H         LINE#         1114
  C:3F97H         LINE#         1116
  C:3F99H         LINE#         1117
  C:3F9AH         LINE#         1118
  C:3F9CH         LINE#         1119
  C:3F9FH         LINE#         1121
  C:3FA1H         LINE#         1123
  C:3FA2H         LINE#         1127
  C:3FA4H         LINE#         1128
  C:3FA5H         LINE#         1129
  C:3FA7H         LINE#         1130
  C:3FAAH         LINE#         1132
  C:3FACH         LINE#         1134
  C:3FADH         LINE#         1141
  C:3FAFH         LINE#         1142
  C:3FB2H         LINE#         1144
  C:3FB4H         LINE#         1145
  C:3FB6H         LINE#         1146
  C:3FB8H         LINE#         1147
  C:3FBAH         LINE#         1149
  C:3FBCH         LINE#         1150
  C:3FBFH         LINE#         1152
  C:3FC1H         LINE#         1153
  C:3FC3H         LINE#         1154
  C:3FC5H         LINE#         1155
  C:3FC7H         LINE#         1157
  C:3FC9H         LINE#         1158
  C:3FCCH         LINE#         1160
  C:3FCDH         LINE#         1166
  C:3FCFH         LINE#         1167
  C:3FD2H         LINE#         1169
  C:3FD4H         LINE#         1170
BL51 BANKED LINKER/LOCATER V6.05                                                      09/23/2016  17:07:17  PAGE 201


  C:3FD7H         LINE#         1174
  C:3FDAH         LINE#         1175
  C:3FDCH         LINE#         1176
  C:3FDFH         LINE#         1180
  C:3FE1H         LINE#         1181
  C:3FE3H         LINE#         1182
  C:3FE5H         LINE#         1183
  C:3FE7H         LINE#         1184
  C:3FEAH         LINE#         1187
  C:3FECH         LINE#         1188
  C:3FEFH         LINE#         1189
  C:3FF1H         LINE#         1190
  C:3FF2H         LINE#         1191
  C:3FF4H         LINE#         1192
  C:3FF6H         LINE#         1193
  C:3FF9H         LINE#         1194
  C:3FFBH         LINE#         1195
  C:3FFCH         LINE#         1207
  C:3FFEH         LINE#         1208
  C:4000H         LINE#         1209
  C:4002H         LINE#         1210
  C:4005H         LINE#         1214
  C:4008H         LINE#         1215
  C:400AH         LINE#         1216
  C:400DH         LINE#         1217
  C:4010H         LINE#         1218
  C:4012H         LINE#         1219
  C:4015H         LINE#         1222
  C:4017H         LINE#         1223
  C:401AH         LINE#         1228
  C:401CH         LINE#         1229
  C:401EH         LINE#         1230
  C:4020H         LINE#         1231
  C:4022H         LINE#         1232
  C:4025H         LINE#         1234
  C:4027H         LINE#         1236
  C:402AH         LINE#         1237
  C:402CH         LINE#         1238
  C:402DH         LINE#         1239
  C:402FH         LINE#         1241
  C:4032H         LINE#         1242
  C:4034H         LINE#         1243
  C:4035H         LINE#         1246
  C:4037H         LINE#         1247
  C:403AH         LINE#         1248
  C:403CH         LINE#         1249
  C:403DH         LINE#         1250
  C:403FH         LINE#         1251
  C:4042H         LINE#         1252
  C:4044H         LINE#         1253
  C:4045H         LINE#         1255
  C:4047H         LINE#         1256
  C:4049H         LINE#         1257
  C:404BH         LINE#         1258
  C:404EH         LINE#         1261
  C:4050H         LINE#         1262
  C:4052H         LINE#         1263
BL51 BANKED LINKER/LOCATER V6.05                                                      09/23/2016  17:07:17  PAGE 202


  C:4054H         LINE#         1264
  C:4056H         LINE#         1265
  C:4059H         LINE#         1267
  C:405BH         LINE#         1269
  C:405EH         LINE#         1270
  C:4060H         LINE#         1271
  C:4061H         LINE#         1272
  C:4063H         LINE#         1274
  C:4066H         LINE#         1275
  C:4068H         LINE#         1276
  C:4069H         LINE#         1277
  C:406BH         LINE#         1278
  C:406DH         LINE#         1279
  C:406FH         LINE#         1280
  C:4072H         LINE#         1283
  C:4074H         LINE#         1285
  C:4077H         LINE#         1286
  C:4079H         LINE#         1287
  C:407AH         LINE#         1288
  C:407CH         LINE#         1290
  C:407FH         LINE#         1291
  C:4081H         LINE#         1292
  C:4082H         LINE#         1293
  C:4084H         LINE#         1294
  C:4086H         LINE#         1295
  C:4088H         LINE#         1296
  C:408BH         LINE#         1303
  C:408DH         LINE#         1304
  C:408FH         LINE#         1305
  C:4091H         LINE#         1306
  C:4093H         LINE#         1307
  C:4096H         LINE#         1309
  C:4098H         LINE#         1310
  C:409BH         LINE#         1311
  C:409DH         LINE#         1312
  C:409EH         LINE#         1313
  C:40A0H         LINE#         1314
  C:40A3H         LINE#         1315
  C:40A5H         LINE#         1316
  C:40A6H         LINE#         1318
  C:40A8H         LINE#         1319
  C:40AAH         LINE#         1320
  C:40ACH         LINE#         1321
  C:40AFH         LINE#         1323
  C:40B1H         LINE#         1334
  C:40B2H         LINE#         1340
  C:40B4H         LINE#         1341
  C:40B7H         LINE#         1343
  C:40B9H         LINE#         1344
  C:40BBH         LINE#         1345
  C:40BDH         LINE#         1346
  C:40BFH         LINE#         1348
  C:40C1H         LINE#         1349
  C:40C4H         LINE#         1351
  C:40C6H         LINE#         1352
  C:40C8H         LINE#         1353
  C:40CAH         LINE#         1354
BL51 BANKED LINKER/LOCATER V6.05                                                      09/23/2016  17:07:17  PAGE 203


  C:40CCH         LINE#         1356
  C:40CEH         LINE#         1357
  C:40D1H         LINE#         1359
  C:40D2H         LINE#         1364
  C:40D4H         LINE#         1365
  C:40D7H         LINE#         1367
  C:40D9H         LINE#         1368
  C:40DBH         LINE#         1369
  C:40DDH         LINE#         1370
  C:40DFH         LINE#         1372
  C:40E1H         LINE#         1373
  C:40E4H         LINE#         1374
  C:40E5H         LINE#         1379
  C:40E7H         LINE#         1380
  C:40EAH         LINE#         1382
  C:40ECH         LINE#         1383
  C:40EEH         LINE#         1384
  C:40F0H         LINE#         1385
  C:40F2H         LINE#         1387
  C:40F4H         LINE#         1388
  C:40F7H         LINE#         1390
  C:40F9H         LINE#         1391
  C:40FBH         LINE#         1392
  C:40FDH         LINE#         1393
  C:40FFH         LINE#         1395
  C:4101H         LINE#         1396
  C:4104H         LINE#         1398
  C:4106H         LINE#         1399
  C:4108H         LINE#         1400
  C:410AH         LINE#         1401
  C:410CH         LINE#         1403
  C:410EH         LINE#         1404
  C:4111H         LINE#         1405
  C:4112H         LINE#         1410
  C:4114H         LINE#         1411
  C:4117H         LINE#         1413
  C:4119H         LINE#         1414
  C:411BH         LINE#         1415
  C:411DH         LINE#         1416
  C:411FH         LINE#         1418
  C:4121H         LINE#         1419
  C:4124H         LINE#         1421
  C:4126H         LINE#         1422
  C:4128H         LINE#         1423
  C:412AH         LINE#         1424
  C:412CH         LINE#         1426
  C:412EH         LINE#         1427
  C:4131H         LINE#         1429
  C:4133H         LINE#         1430
  C:4135H         LINE#         1431
  C:4137H         LINE#         1432
  C:4139H         LINE#         1434
  C:413BH         LINE#         1435
  C:413EH         LINE#         1436
  C:413FH         LINE#         1528
  C:4141H         LINE#         1530
  C:4143H         LINE#         1531
BL51 BANKED LINKER/LOCATER V6.05                                                      09/23/2016  17:07:17  PAGE 204


  C:4145H         LINE#         1532
  C:4148H         LINE#         1534
  C:414BH         LINE#         1535
  C:414CH         LINE#         1536
  C:414EH         LINE#         1538
  C:4150H         LINE#         1539
  C:4151H         LINE#         1540
  C:4153H         LINE#         1541
  C:4155H         LINE#         1544
  C:4157H         LINE#         1545
  C:4158H         LINE#         1546
  C:415AH         LINE#         1548
  C:415DH         LINE#         1550
  C:415FH         LINE#         1551
  C:4160H         LINE#         1552
  C:4163H         LINE#         1554
  C:4165H         LINE#         1555
  C:4166H         LINE#         1556
  C:4169H         LINE#         1558
  C:416BH         LINE#         1559
  C:416CH         LINE#         1560
  C:416FH         LINE#         1562
  C:4171H         LINE#         1564
  C:4172H         LINE#         1568
  C:4174H         LINE#         1569
  C:4177H         LINE#         1573
  C:4179H         LINE#         1574
  C:417CH         LINE#         1576
  C:417EH         LINE#         1577
  C:4181H         LINE#         1579
  C:4182H         LINE#         1585
  C:4184H         LINE#         1587
  C:4186H         LINE#         1589
  C:4188H         LINE#         1590
  C:418AH         LINE#         1591
  C:418CH         LINE#         1595
  C:418DH         LINE#         1600
  C:418FH         LINE#         1601
  C:4191H         LINE#         1602
  C:4193H         LINE#         1603
  C:4195H         LINE#         1604
  C:4197H         LINE#         1605
  C:419AH         LINE#         1607
  C:419CH         LINE#         1608
  C:419EH         LINE#         1609
  C:41A0H         LINE#         1612
  C:41A2H         LINE#         1613
  C:41A4H         LINE#         1614
  C:41A6H         LINE#         1615
  C:41A8H         LINE#         1617
  C:41AAH         LINE#         1618
  C:41ABH         LINE#         1619
  C:41ADH         LINE#         1620
  C:41B0H         LINE#         1622
  C:41B2H         LINE#         1623
  C:41B3H         LINE#         1624
  C:41B4H         LINE#         1625
BL51 BANKED LINKER/LOCATER V6.05                                                      09/23/2016  17:07:17  PAGE 205


  C:41B7H         LINE#         1627
  C:41B9H         LINE#         1628
  C:41BAH         LINE#         1629
  C:41BBH         LINE#         1630
  C:41BEH         LINE#         1632
  C:41C0H         LINE#         1633
  C:41C1H         LINE#         1634
  C:41C2H         LINE#         1635
  C:41C5H         LINE#         1637
  C:41C7H         LINE#         1638
  C:41C8H         LINE#         1639
  C:41C9H         LINE#         1640
  C:41CCH         LINE#         1642
  C:41CEH         LINE#         1643
  C:41D0H         LINE#         1645
  C:41D2H         LINE#         1647
  C:41D4H         LINE#         1648
  C:41D5H         LINE#         1649
  C:41D6H         LINE#         1650
  C:41D7H         LINE#         1651
  C:41D9H         LINE#         1654
  C:41DBH         LINE#         1655
  C:41DDH         LINE#         1656
  C:41DFH         LINE#         1658
  C:41E1H         LINE#         1659
  C:41E3H         LINE#         1660
  C:41E5H         LINE#         1661
  C:41E7H         LINE#         1662
  C:41E9H         LINE#         1663
  C:41EBH         LINE#         1664
  C:41EDH         LINE#         1666
  C:41EEH         LINE#         1667
  C:41F0H         LINE#         1668
  C:41F3H         LINE#         1670
  C:41F5H         LINE#         1671
  C:41F6H         LINE#         1672
  C:41F7H         LINE#         1673
  C:41FAH         LINE#         1675
  C:41FCH         LINE#         1676
  C:41FDH         LINE#         1677
  C:41FEH         LINE#         1678
  C:4201H         LINE#         1680
  C:4203H         LINE#         1681
  C:4204H         LINE#         1682
  C:4205H         LINE#         1683
  C:4208H         LINE#         1685
  C:420AH         LINE#         1686
  C:420BH         LINE#         1687
  C:420CH         LINE#         1688
  C:420FH         LINE#         1690
  C:4211H         LINE#         1691
  C:4213H         LINE#         1693
  C:4215H         LINE#         1695
  C:4217H         LINE#         1696
  C:4218H         LINE#         1697
  C:4219H         LINE#         1698
  C:421AH         LINE#         1699
BL51 BANKED LINKER/LOCATER V6.05                                                      09/23/2016  17:07:17  PAGE 206


  C:421CH         LINE#         1701
  C:421EH         LINE#         1702
  C:4220H         LINE#         1703
  C:4222H         LINE#         1704
  C:4224H         LINE#         1706
  C:4226H         LINE#         1708
  C:4228H         LINE#         1709
  C:422AH         LINE#         1711
  C:422DH         LINE#         1713
  C:422FH         LINE#         1714
  C:4231H         LINE#         1715
  C:4234H         LINE#         1717
  C:4236H         LINE#         1718
  C:4238H         LINE#         1720
  C:4239H         LINE#         1721
  C:423AH         LINE#         1722
  C:423DH         LINE#         1723
  C:423EH         LINE#         1724
  C:4240H         LINE#         1726
  C:4242H         LINE#         1727
  C:4244H         LINE#         1729
  C:4246H         LINE#         1731
  C:4248H         LINE#         1732
  C:424AH         LINE#         1733
  C:424CH         LINE#         1734
  C:424EH         LINE#         1736
  C:4250H         LINE#         1737
  C:4252H         LINE#         1738
  C:4254H         LINE#         1739
  C:4257H         LINE#         1741
  C:4259H         LINE#         1742
  C:425BH         LINE#         1743
  C:425EH         LINE#         1745
  C:4260H         LINE#         1746
  C:4262H         LINE#         1748
  C:4263H         LINE#         1749
  C:4264H         LINE#         1750
  C:4267H         LINE#         1751
  C:4268H         LINE#         1752
  C:426AH         LINE#         1754
  C:426CH         LINE#         1755
  C:426EH         LINE#         1756
  C:4270H         LINE#         1760
  C:4272H         LINE#         1761
  C:4275H         LINE#         1763
  C:4278H         LINE#         1765
  C:427AH         LINE#         1766
  C:427DH         LINE#         1770
  C:4280H         LINE#         1771
  C:4282H         LINE#         1772
  C:4284H         LINE#         1773
  C:4285H         LINE#         1774
  C:4286H         LINE#         1776
  C:4287H         LINE#         1777
  C:4289H         LINE#         1778
  C:428AH         LINE#         1779
  C:428BH         LINE#         1781
BL51 BANKED LINKER/LOCATER V6.05                                                      09/23/2016  17:07:17  PAGE 207


  C:428CH         LINE#         1782
  C:428EH         LINE#         1783
  C:428FH         LINE#         1784
  C:4290H         LINE#         1786
  C:4291H         LINE#         1787
  C:4293H         LINE#         1788
  C:4294H         LINE#         1789
  C:4295H         LINE#         1791
  C:4297H         LINE#         1792
  C:4299H         LINE#         1793
  C:429BH         LINE#         1794
  C:429DH         LINE#         1795
  C:42A0H         LINE#         1797
  C:42A2H         LINE#         1798
  C:42A3H         LINE#         1799
  C:42A6H         LINE#         1800
  C:42A8H         LINE#         1802
  C:42AAH         LINE#         1803
  C:42ABH         LINE#         1804
  C:42ADH         LINE#         1805
  C:42AFH         LINE#         1808
  C:42B1H         LINE#         1809
  C:42B2H         LINE#         1811
  C:42B4H         LINE#         1812
  C:42B5H         LINE#         1813
  C:42B8H         LINE#         1814
  C:42BBH         LINE#         1815
  C:42BDH         LINE#         1816
  C:42C0H         LINE#         1818
  C:42C2H         LINE#         1819
  C:42C4H         LINE#         1820
  C:42C6H         LINE#         1821
  C:42C8H         LINE#         1822
  C:42CBH         LINE#         1823
  C:42CDH         LINE#         1824
  C:42CEH         LINE#         1825
  C:42D1H         LINE#         1826
  C:42D3H         LINE#         1827
  C:42D5H         LINE#         1828
  C:42D6H         LINE#         1829
  C:42D8H         LINE#         1830
  C:42DAH         LINE#         1832
  C:42DCH         LINE#         1833
  C:42DDH         LINE#         1835
  C:42DFH         LINE#         1836
  C:42E0H         LINE#         1837
  C:42E3H         LINE#         1838
  C:42E6H         LINE#         1839
  C:42E8H         LINE#         1840
  C:42EBH         LINE#         1842
  C:42EDH         LINE#         1843
  C:42EFH         LINE#         1844
  C:42F1H         LINE#         1845
  C:42F3H         LINE#         1846
  C:42F6H         LINE#         1847
  C:42F8H         LINE#         1848
  C:42F9H         LINE#         1849
BL51 BANKED LINKER/LOCATER V6.05                                                      09/23/2016  17:07:17  PAGE 208


  C:42FCH         LINE#         1850
  C:42FEH         LINE#         1851
  C:4300H         LINE#         1852
  C:4301H         LINE#         1853
  C:4303H         LINE#         1854
  C:4305H         LINE#         1856
  C:4307H         LINE#         1857
  C:4308H         LINE#         1859
  C:4309H         LINE#         1860
  C:430CH         LINE#         1861
  C:430FH         LINE#         1862
  C:4311H         LINE#         1863
  C:4314H         LINE#         1865
  C:4316H         LINE#         1866
  C:4318H         LINE#         1867
  C:431AH         LINE#         1868
  C:431CH         LINE#         1869
  C:431FH         LINE#         1870
  C:4321H         LINE#         1871
  C:4322H         LINE#         1873
  C:4323H         LINE#         1878
  C:4325H         LINE#         1879
  C:4327H         LINE#         1880
  C:4329H         LINE#         1881
  C:432BH         LINE#         1883
  C:432EH         LINE#         1885
  C:4330H         LINE#         1887
  C:4332H         LINE#         1888
  C:4334H         LINE#         1890
  C:4336H         LINE#         1891
  C:4338H         LINE#         1892
  C:433BH         LINE#         1895
  C:433DH         LINE#         1896
  C:433EH         LINE#         1897
  C:4341H         LINE#         1899
  C:4343H         LINE#         1900
  C:4344H         LINE#         1901
  C:4347H         LINE#         1903
  C:4349H         LINE#         1904
  C:434AH         LINE#         1905
  C:434DH         LINE#         1907
  C:434FH         LINE#         1908
  C:4350H         LINE#         1909
  C:4352H         LINE#         1910
  C:4355H         LINE#         1912
  C:4357H         LINE#         1913
  C:4359H         LINE#         1915
  C:435BH         LINE#         1917
  C:435DH         LINE#         1918
  C:4360H         LINE#         1920
  C:4362H         LINE#         1921
  C:4364H         LINE#         1922
  C:4366H         LINE#         1923
  C:4368H         LINE#         1925
  C:436AH         LINE#         1926
  C:436CH         LINE#         1927
  C:436FH         LINE#         1930
BL51 BANKED LINKER/LOCATER V6.05                                                      09/23/2016  17:07:17  PAGE 209


  C:4371H         LINE#         1931
  C:4372H         LINE#         1932
  C:4375H         LINE#         1934
  C:4377H         LINE#         1935
  C:4378H         LINE#         1936
  C:437BH         LINE#         1938
  C:437DH         LINE#         1939
  C:437EH         LINE#         1940
  C:4381H         LINE#         1942
  C:4383H         LINE#         1943
  C:4384H         LINE#         1944
  C:4386H         LINE#         1945
  C:4389H         LINE#         1947
  C:438BH         LINE#         1948
  C:438DH         LINE#         1950
  C:438FH         LINE#         1951
  C:4390H         LINE#         1954
  C:4392H         LINE#         1955
  C:4394H         LINE#         1956
  C:4397H         LINE#         1958
  C:4399H         LINE#         1959
  C:439AH         LINE#         1960
  C:439DH         LINE#         1962
  C:439EH         LINE#         1963
  C:439FH         LINE#         1964
  C:43A2H         LINE#         1966
  C:43A3H         LINE#         1967
  C:43A4H         LINE#         1968
  C:43A7H         LINE#         1970
  C:43A8H         LINE#         1971
  C:43A9H         LINE#         1972
  C:43ACH         LINE#         1974
  C:43AEH         LINE#         1976
  C:43AFH         LINE#         1978
  C:43B1H         LINE#         1979
  C:43B3H         LINE#         1980
  C:43B5H         LINE#         1981
  C:43B7H         LINE#         1983
  C:43BAH         LINE#         1985
  C:43BCH         LINE#         1986
  C:43BEH         LINE#         1987
  C:43C1H         LINE#         1989
  C:43C3H         LINE#         1990
  C:43C4H         LINE#         1991
  C:43C7H         LINE#         1993
  C:43C9H         LINE#         1994
  C:43CAH         LINE#         1995
  C:43CDH         LINE#         1997
  C:43CFH         LINE#         1998
  C:43D0H         LINE#         1999
  C:43D3H         LINE#         2001
  C:43D5H         LINE#         2002
  C:43D6H         LINE#         2003
  C:43D8H         LINE#         2004
  C:43DBH         LINE#         2006
  C:43DDH         LINE#         2007
  C:43DFH         LINE#         2009
BL51 BANKED LINKER/LOCATER V6.05                                                      09/23/2016  17:07:17  PAGE 210


  C:43E1H         LINE#         2011
  C:43E3H         LINE#         2012
  C:43E6H         LINE#         2014
  C:43E8H         LINE#         2015
  C:43EAH         LINE#         2016
  C:43ECH         LINE#         2017
  C:43EEH         LINE#         2019
  C:43F0H         LINE#         2020
  C:43F2H         LINE#         2021
  C:43F5H         LINE#         2023
  C:43F7H         LINE#         2024
  C:43F8H         LINE#         2025
  C:43FBH         LINE#         2027
  C:43FDH         LINE#         2028
  C:43FEH         LINE#         2029
  C:4401H         LINE#         2031
  C:4403H         LINE#         2032
  C:4404H         LINE#         2033
  C:4407H         LINE#         2035
  C:4409H         LINE#         2036
  C:440AH         LINE#         2037
  C:440CH         LINE#         2038
  C:440FH         LINE#         2040
  C:4411H         LINE#         2041
  C:4413H         LINE#         2043
  C:4415H         LINE#         2045
  C:4417H         LINE#         2046
  C:441AH         LINE#         2048
  C:441BH         LINE#         2052
  C:441EH         LINE#         2056
  C:4421H         LINE#         2059
  C:4422H         LINE#         2066
  C:4425H         LINE#         2067
  C:4427H         LINE#         2068
  C:4429H         LINE#         2069
  C:442AH         LINE#         2071
  C:442CH         LINE#         2072
  C:442EH         LINE#         2074
  C:4431H         LINE#         2075
  C:4433H         LINE#         2076
  C:4434H         LINE#         2077
  C:4436H         LINE#         2078
  C:4438H         LINE#         2081
  C:4439H         LINE#         2082
  C:443BH         LINE#         2083
  C:443CH         LINE#         2085
  C:443EH         LINE#         2086
  C:4440H         LINE#         2087
  C:4443H         LINE#         2088
  C:4445H         LINE#         2089
  C:4446H         LINE#         2090
  C:4448H         LINE#         2091
  C:444AH         LINE#         2093
  C:444BH         LINE#         2094
  C:444DH         LINE#         2095
  C:444EH         LINE#         2097
  C:4450H         LINE#         2098
BL51 BANKED LINKER/LOCATER V6.05                                                      09/23/2016  17:07:17  PAGE 211


  C:4452H         LINE#         2099
  C:4455H         LINE#         2100
  C:4457H         LINE#         2101
  C:4458H         LINE#         2102
  C:445AH         LINE#         2103
  C:445CH         LINE#         2104
  C:445DH         LINE#         2105
  C:445FH         LINE#         2106
  C:4460H         LINE#         2108
  C:4462H         LINE#         2109
  C:4464H         LINE#         2110
  C:4467H         LINE#         2111
  C:4469H         LINE#         2112
  C:446AH         LINE#         2113
  C:446CH         LINE#         2114
  C:446EH         LINE#         2115
  C:4470H         LINE#         2117
  C:4472H         LINE#         2118
  C:4474H         LINE#         2120
  C:4476H         LINE#         2121
  C:4478H         LINE#         2122
  C:447BH         LINE#         2124
  C:447DH         LINE#         2126
  C:4480H         LINE#         2127
  C:4482H         LINE#         2128
  C:4483H         LINE#         2129
  C:4485H         LINE#         2130
  C:4488H         LINE#         2132
  C:448AH         LINE#         2135
  C:448CH         LINE#         2136
  C:448DH         LINE#         2137
  C:4490H         LINE#         2139
  C:4492H         LINE#         2142
  C:4494H         LINE#         2143
  C:4495H         LINE#         2144
  C:4498H         LINE#         2146
  C:449AH         LINE#         2149
  C:449CH         LINE#         2150
  C:449DH         LINE#         2151
  C:44A0H         LINE#         2153
  C:44A2H         LINE#         2154
  C:44A4H         LINE#         2155
  C:44A6H         LINE#         2157
  C:44A8H         LINE#         2158
  C:44AAH         LINE#         2159
  C:44ACH         LINE#         2160
  C:44AEH         LINE#         2162
  C:44B0H         LINE#         2164
  C:44B2H         LINE#         2165
  C:44B4H         LINE#         2167
  C:44B6H         LINE#         2168
  C:44B8H         LINE#         2169
  C:44BBH         LINE#         2171
  C:44BDH         LINE#         2174
  C:44BFH         LINE#         2175
  C:44C0H         LINE#         2176
  C:44C2H         LINE#         2177
BL51 BANKED LINKER/LOCATER V6.05                                                      09/23/2016  17:07:17  PAGE 212


  C:44C5H         LINE#         2179
  C:44C7H         LINE#         2182
  C:44C9H         LINE#         2183
  C:44CAH         LINE#         2184
  C:44CDH         LINE#         2186
  C:44CFH         LINE#         2189
  C:44D1H         LINE#         2190
  C:44D2H         LINE#         2191
  C:44D5H         LINE#         2193
  C:44D7H         LINE#         2196
  C:44D9H         LINE#         2197
  C:44DAH         LINE#         2198
  C:44DDH         LINE#         2200
  C:44DFH         LINE#         2201
  C:44E1H         LINE#         2202
  C:44E3H         LINE#         2204
  C:44E5H         LINE#         2205
  C:44E7H         LINE#         2206
  C:44E9H         LINE#         2207
  C:44EBH         LINE#         2209
  C:44ECH         LINE#         2215
  C:44EFH         LINE#         2217
  C:44F1H         LINE#         2218
  C:44F3H         LINE#         2219
  C:44F5H         LINE#         2220
  C:44F7H         LINE#         2221
  C:44FAH         LINE#         2223
  C:44FCH         LINE#         2225
  C:44FFH         LINE#         2226
  C:4501H         LINE#         2227
  C:4502H         LINE#         2228
  C:4504H         LINE#         2231
  C:4506H         LINE#         2232
  C:4507H         LINE#         2234
  C:4509H         LINE#         2235
  C:450BH         LINE#         2236
  C:450DH         LINE#         2237
  C:4510H         LINE#         2240
  C:4512H         LINE#         2241
  C:4514H         LINE#         2242
  C:4516H         LINE#         2243
  C:4518H         LINE#         2244
  C:451BH         LINE#         2246
  C:451DH         LINE#         2248
  C:4520H         LINE#         2249
  C:4522H         LINE#         2250
  C:4523H         LINE#         2251
  C:4525H         LINE#         2254
  C:4527H         LINE#         2255
  C:4528H         LINE#         2257
  C:452AH         LINE#         2258
  C:452CH         LINE#         2259
  C:452EH         LINE#         2260
  C:4531H         LINE#         2263
  C:4533H         LINE#         2268
  C:4535H         LINE#         2269
  C:4537H         LINE#         2270
BL51 BANKED LINKER/LOCATER V6.05                                                      09/23/2016  17:07:17  PAGE 213


  C:4539H         LINE#         2272
  C:453CH         LINE#         2273
  C:453EH         LINE#         2274
  C:4540H         LINE#         2275
  C:4542H         LINE#         2276
  C:4545H         LINE#         2280
  C:4547H         LINE#         2284
  C:4549H         LINE#         2285
  C:454BH         LINE#         2286
  C:454DH         LINE#         2287
  C:454FH         LINE#         2288
  C:4552H         LINE#         2290
  C:4554H         LINE#         2292
  C:4557H         LINE#         2293
  C:4559H         LINE#         2294
  C:455AH         LINE#         2297
  C:455CH         LINE#         2298
  C:455EH         LINE#         2301
  C:4560H         LINE#         2302
  C:4562H         LINE#         2310
  C:4564H         LINE#         2311
  C:4566H         LINE#         2312
  C:4568H         LINE#         2313
  C:456AH         LINE#         2314
  C:456DH         LINE#         2316
  C:456FH         LINE#         2318
  C:4572H         LINE#         2319
  C:4574H         LINE#         2320
  C:4575H         LINE#         2321
  C:4577H         LINE#         2324
  C:4579H         LINE#         2325
  C:457AH         LINE#         2327
  C:457CH         LINE#         2328
  C:457EH         LINE#         2329
  C:4580H         LINE#         2330
  C:4583H         LINE#         2331
  C:4585H         LINE#         2345
  C:4587H         LINE#         2346
  C:4589H         LINE#         2347
  C:458BH         LINE#         2348
  C:458DH         LINE#         2349
  C:4590H         LINE#         2351
  C:4592H         LINE#         2353
  C:4595H         LINE#         2354
  C:4597H         LINE#         2355
  C:4598H         LINE#         2356
  C:459AH         LINE#         2359
  C:459CH         LINE#         2360
  C:459DH         LINE#         2362
  C:459FH         LINE#         2363
  C:45A1H         LINE#         2364
  C:45A3H         LINE#         2365
  C:45A6H         LINE#         2368
  C:45A8H         LINE#         2369
  C:45AAH         LINE#         2370
  C:45ACH         LINE#         2371
  C:45AEH         LINE#         2372
BL51 BANKED LINKER/LOCATER V6.05                                                      09/23/2016  17:07:17  PAGE 214


  C:45B1H         LINE#         2373
  C:45B3H         LINE#         2376
  C:45B5H         LINE#         2377
  C:45B6H         LINE#         2379
  C:45B8H         LINE#         2381
  C:45BAH         LINE#         2382
  C:45BCH         LINE#         2383
  C:45BEH         LINE#         2384
  C:45C0H         LINE#         2385
  C:45C3H         LINE#         2387
  C:45C5H         LINE#         2390
  C:45C7H         LINE#         2391
  C:45C8H         LINE#         2392
  C:45CAH         LINE#         2395
  C:45CCH         LINE#         2396
  C:45CDH         LINE#         2398
  C:45CFH         LINE#         2399
  C:45D1H         LINE#         2400
  C:45D3H         LINE#         2401
  C:45D6H         LINE#         2403
  C:45D9H         LINE#         2406
  C:45DAH         LINE#         2407
  C:45DBH         LINE#         2408
  C:45DDH         LINE#         2410
  C:45E0H         LINE#         2411
  C:45E2H         LINE#         2412
  C:45E5H         LINE#         2414
  C:45E7H         LINE#         2415
  C:45E8H         LINE#         2417
  C:45EAH         LINE#         2418
  C:45ECH         LINE#         2420
  C:45EFH         LINE#         2421
  C:45F1H         LINE#         2422
  C:45F2H         LINE#         2423
  C:45F3H         LINE#         2425
  C:45F5H         LINE#         2426
  C:45F7H         LINE#         2427
  C:45F9H         LINE#         2431
  C:45FCH         LINE#         2432
  C:45FEH         LINE#         2434
  C:4600H         LINE#         2435
  C:4601H         LINE#         2436
  C:4603H         LINE#         2438
  C:4604H         LINE#         2480
  C:4607H         LINE#         2482
  C:4609H         LINE#         2483
  C:460BH         LINE#         2484
  C:460DH         LINE#         2486
  C:460FH         LINE#         2487
  C:4611H         LINE#         2488
  C:4614H         LINE#         2490
  C:4616H         LINE#         2491
  C:4619H         LINE#         2493
  C:461BH         LINE#         2494
  C:461EH         LINE#         2496
  C:4620H         LINE#         2497
  C:4623H         LINE#         2499
BL51 BANKED LINKER/LOCATER V6.05                                                      09/23/2016  17:07:17  PAGE 215


  C:4625H         LINE#         2500
  C:4628H         LINE#         2502
  C:462AH         LINE#         2503
  C:462CH         LINE#         2504
  C:462EH         LINE#         2506
  C:4630H         LINE#         2507
  C:4632H         LINE#         2508
  C:4634H         LINE#         2509
  C:4636H         LINE#         2511
  C:4637H         LINE#         2514
  C:4639H         LINE#         2515
  C:463BH         LINE#         2516
  C:463DH         LINE#         2518
  C:463FH         LINE#         2519
  C:4641H         LINE#         2520
  C:4644H         LINE#         2522
  C:4646H         LINE#         2523
  C:4649H         LINE#         2525
  C:464BH         LINE#         2526
  C:464EH         LINE#         2528
  C:4650H         LINE#         2529
  C:4653H         LINE#         2531
  C:4655H         LINE#         2532
  C:4658H         LINE#         2534
  C:465AH         LINE#         2535
  C:465CH         LINE#         2536
  C:465EH         LINE#         2537
  C:4660H         LINE#         2538
  C:4662H         LINE#         2539
  C:4664H         LINE#         2540
  C:4666H         LINE#         2542
  C:4667H         LINE#         2548
  C:466AH         LINE#         2549
  C:466CH         LINE#         2550
  C:466FH         LINE#         2552
  C:4670H         LINE#         2622
  C:4672H         LINE#         2623
  C:4674H         LINE#         2624
  C:4676H         LINE#         2625
  C:4678H         LINE#         2626
  C:467BH         LINE#         2628
  C:467DH         LINE#         2630
  C:4680H         LINE#         2631
  C:4682H         LINE#         2632
  C:4683H         LINE#         2633
  C:4685H         LINE#         2634
  C:4686H         LINE#         2642
  C:4689H         LINE#         2643
  C:468BH         LINE#         2645
  C:468DH         LINE#         2647
  C:468EH         LINE#         2648
  C:4690H         LINE#         2649
  C:4691H         LINE#         2650
  C:4693H         LINE#         2651
  C:4695H         LINE#         2652
  C:4697H         LINE#         2653
  C:469AH         LINE#         2655
BL51 BANKED LINKER/LOCATER V6.05                                                      09/23/2016  17:07:17  PAGE 216


  C:469CH         LINE#         2656
  C:469EH         LINE#         2657
  C:46A1H         LINE#         2659
  C:46A3H         LINE#         2660
  C:46A5H         LINE#         2661
  C:46A7H         LINE#         2664
  C:46A9H         LINE#         2665
  C:46ABH         LINE#         2666
  C:46AEH         LINE#         2667
  C:46B0H         LINE#         2668
  C:46B1H         LINE#         2669
  C:46B3H         LINE#         2672
  C:46B5H         LINE#         2673
  C:46B6H         LINE#         2674
  C:46B8H         LINE#         2675
  C:46BAH         LINE#         2676
  C:46BCH         LINE#         2677
  C:46BEH         LINE#         2678
  C:46C0H         LINE#         2679
  C:46C3H         LINE#         2681
  C:46C4H         LINE#         2682
  C:46C5H         LINE#         2683
  C:46C7H         LINE#         2685
  C:46C8H         LINE#         2686
  C:46CAH         LINE#         2687
  C:46CCH         LINE#         2688
  C:46CEH         LINE#         2689
  C:46D0H         LINE#         2690
  C:46D2H         LINE#         2692
  C:46D3H         LINE#         2693
  C:46D5H         LINE#         2694
  C:46D7H         LINE#         2695
  C:46D9H         LINE#         2696
  C:46DBH         LINE#         2697
  C:46DDH         LINE#         2698
  C:46DFH         LINE#         2700
  C:46E1H         LINE#         2701
  C:46E3H         LINE#         2702
  C:46E5H         LINE#         2703
  C:46E7H         LINE#         2704
  C:46EAH         LINE#         2706
  C:46EDH         LINE#         2707
  C:46EFH         LINE#         2708
  C:46F1H         LINE#         2709
  C:46F4H         LINE#         2711
  C:46F6H         LINE#         2712
  C:46F8H         LINE#         2713
  C:46FAH         LINE#         2716
  C:46FDH         LINE#         2717
  C:46FFH         LINE#         2718
  C:4700H         LINE#         2719
  C:4702H         LINE#         2721
  C:4705H         LINE#         2722
  C:4707H         LINE#         2723
  C:4708H         LINE#         2724
  C:470AH         LINE#         2725
  C:470CH         LINE#         2726
BL51 BANKED LINKER/LOCATER V6.05                                                      09/23/2016  17:07:17  PAGE 217


  C:470EH         LINE#         2727
  C:4710H         LINE#         2729
  C:4711H         LINE#         2730
  C:4712H         LINE#         2731
  C:4714H         LINE#         2733
  C:4716H         LINE#         2734
  C:4718H         LINE#         2735
  C:471AH         LINE#         2736
  C:471CH         LINE#         2737
  C:471FH         LINE#         2739
  C:4722H         LINE#         2740
  C:4724H         LINE#         2741
  C:4726H         LINE#         2742
  C:4729H         LINE#         2744
  C:472BH         LINE#         2745
  C:472DH         LINE#         2746
  C:472FH         LINE#         2749
  C:4732H         LINE#         2750
  C:4734H         LINE#         2751
  C:4735H         LINE#         2752
  C:4737H         LINE#         2754
  C:473AH         LINE#         2755
  C:473CH         LINE#         2756
  C:473DH         LINE#         2757
  C:473FH         LINE#         2758
  C:4741H         LINE#         2759
  C:4743H         LINE#         2760
  C:4745H         LINE#         2762
  C:4746H         LINE#         2763
  C:4747H         LINE#         2764
  C:4749H         LINE#         2766
  C:474BH         LINE#         2767
  C:474CH         LINE#         2769
  C:474EH         LINE#         2770
  C:474FH         LINE#         2775
  C:4751H         LINE#         2777
  C:4753H         LINE#         2778
  C:4755H         LINE#         2780
  C:4757H         LINE#         2781
  C:4759H         LINE#         2782
  C:475CH         LINE#         2784
  C:475FH         LINE#         2785
  C:4760H         LINE#         2786
  C:4762H         LINE#         2788
  C:4764H         LINE#         2789
  C:4765H         LINE#         2790
  C:4767H         LINE#         2791
  C:476AH         LINE#         2793
  C:476CH         LINE#         2794
  C:476DH         LINE#         2795
  C:4770H         LINE#         2797
  C:4772H         LINE#         2798
  C:4773H         LINE#         2799
  C:4776H         LINE#         2801
  C:4778H         LINE#         2802
  C:4779H         LINE#         2803
  C:477CH         LINE#         2805
BL51 BANKED LINKER/LOCATER V6.05                                                      09/23/2016  17:07:17  PAGE 218


  C:477EH         LINE#         2806
  C:4780H         LINE#         2808
  C:4782H         LINE#         2809
  C:4783H         LINE#         2812
  C:4785H         LINE#         2813
  C:4786H         LINE#         2814
  C:4788H         LINE#         2815
  C:478BH         LINE#         2817
  C:478DH         LINE#         2818
  C:478EH         LINE#         2819
  C:4791H         LINE#         2821
  C:4793H         LINE#         2822
  C:4794H         LINE#         2823
  C:4797H         LINE#         2825
  C:4799H         LINE#         2826
  C:479AH         LINE#         2827
  C:479DH         LINE#         2829
  C:479FH         LINE#         2830
  C:47A1H         LINE#         2832
  C:47A3H         LINE#         2834
  C:47A4H         LINE#         2843
  C:47A6H         LINE#         2844
  C:47A8H         LINE#         2845
  C:47AAH         LINE#         2846
  C:47ACH         LINE#         2847
  C:47AFH         LINE#         2850
  C:47B1H         LINE#         2851
  C:47B4H         LINE#         2852
  C:47B6H         LINE#         2853
  C:47B7H         LINE#         2854
  C:47B9H         LINE#         2855
  C:47BCH         LINE#         2856
  C:47BEH         LINE#         2857
  C:47BFH         LINE#         2858
  C:47C1H         LINE#         2859
  C:47C3H         LINE#         2860
  C:47C5H         LINE#         2861
  C:47C8H         LINE#         2863
  -------         ENDMOD        HDLC

  -------         MODULE        LIB
  C:5846H         SEGMENT       ?PR?LIB?MATER
  C:5C75H         PUBLIC        _DELAY
  C:58C2H         PUBLIC        _FUN_LIB_1MSDELAYC
  C:5C56H         PUBLIC        _FUN_LIB_BEEP
  C:5C8BH         PUBLIC        _FUN_LIB_COMPARETIME
  C:5BBDH         PUBLIC        _FUN_LIB_DATATOXDATA
  C:58CDH         PUBLIC        _FUN_LIB_DELAY
  C:5959H         PUBLIC        _FUN_LIB_DELAY10
  C:591AH         PUBLIC        _FUN_LIB_DELAY107
  C:5919H         PUBLIC        _FUN_LIB_DELAY108
  C:5918H         PUBLIC        _FUN_LIB_DELAY109
  C:5958H         PUBLIC        _FUN_LIB_DELAY11
  C:5917H         PUBLIC        _FUN_LIB_DELAY110
  C:5916H         PUBLIC        _FUN_LIB_DELAY111
  C:5915H         PUBLIC        _FUN_LIB_DELAY112
  C:5914H         PUBLIC        _FUN_LIB_DELAY113
BL51 BANKED LINKER/LOCATER V6.05                                                      09/23/2016  17:07:17  PAGE 219


  C:5913H         PUBLIC        _FUN_LIB_DELAY114
  C:5912H         PUBLIC        _FUN_LIB_DELAY115
  C:5911H         PUBLIC        _FUN_LIB_DELAY116
  C:5910H         PUBLIC        _FUN_LIB_DELAY117
  C:590FH         PUBLIC        _FUN_LIB_DELAY118
  C:590EH         PUBLIC        _FUN_LIB_DELAY119
  C:5957H         PUBLIC        _FUN_LIB_DELAY12
  C:590DH         PUBLIC        _FUN_LIB_DELAY120
  C:590CH         PUBLIC        _FUN_LIB_DELAY121
  C:590BH         PUBLIC        _FUN_LIB_DELAY122
  C:590AH         PUBLIC        _FUN_LIB_DELAY123
  C:5909H         PUBLIC        _FUN_LIB_DELAY124
  C:5908H         PUBLIC        _FUN_LIB_DELAY125
  C:5907H         PUBLIC        _FUN_LIB_DELAY126
  C:5906H         PUBLIC        _FUN_LIB_DELAY127
  C:5956H         PUBLIC        _FUN_LIB_DELAY13
  C:5955H         PUBLIC        _FUN_LIB_DELAY14
  C:5954H         PUBLIC        _FUN_LIB_DELAY15
  C:5953H         PUBLIC        _FUN_LIB_DELAY16
  C:5952H         PUBLIC        _FUN_LIB_DELAY17
  C:5951H         PUBLIC        _FUN_LIB_DELAY18
  C:5950H         PUBLIC        _FUN_LIB_DELAY19
  C:5901H         PUBLIC        _FUN_LIB_DELAY190
  C:58FAH         PUBLIC        _FUN_LIB_DELAY199
  C:594FH         PUBLIC        _FUN_LIB_DELAY20
  C:594EH         PUBLIC        _FUN_LIB_DELAY21
  C:594DH         PUBLIC        _FUN_LIB_DELAY22
  C:594CH         PUBLIC        _FUN_LIB_DELAY23
  C:594BH         PUBLIC        _FUN_LIB_DELAY24
  C:594AH         PUBLIC        _FUN_LIB_DELAY25
  C:58F1H         PUBLIC        _FUN_LIB_DELAY2550
  C:5949H         PUBLIC        _FUN_LIB_DELAY26
  C:5948H         PUBLIC        _FUN_LIB_DELAY27
  C:5947H         PUBLIC        _FUN_LIB_DELAY28
  C:5946H         PUBLIC        _FUN_LIB_DELAY29
  C:5945H         PUBLIC        _FUN_LIB_DELAY30
  C:5944H         PUBLIC        _FUN_LIB_DELAY31
  C:5943H         PUBLIC        _FUN_LIB_DELAY32
  C:5942H         PUBLIC        _FUN_LIB_DELAY33
  C:5941H         PUBLIC        _FUN_LIB_DELAY34
  C:5940H         PUBLIC        _FUN_LIB_DELAY35
  C:593FH         PUBLIC        _FUN_LIB_DELAY36
  C:593EH         PUBLIC        _FUN_LIB_DELAY37
  C:593DH         PUBLIC        _FUN_LIB_DELAY38
  C:593CH         PUBLIC        _FUN_LIB_DELAY39
  C:593BH         PUBLIC        _FUN_LIB_DELAY40
  C:593AH         PUBLIC        _FUN_LIB_DELAY41
  C:5939H         PUBLIC        _FUN_LIB_DELAY42
  C:5938H         PUBLIC        _FUN_LIB_DELAY43
  C:5937H         PUBLIC        _FUN_LIB_DELAY44
  C:5936H         PUBLIC        _FUN_LIB_DELAY45
  C:5935H         PUBLIC        _FUN_LIB_DELAY46
  C:5934H         PUBLIC        _FUN_LIB_DELAY47
  C:5933H         PUBLIC        _FUN_LIB_DELAY48
  C:5932H         PUBLIC        _FUN_LIB_DELAY49
  C:5931H         PUBLIC        _FUN_LIB_DELAY50
  C:5930H         PUBLIC        _FUN_LIB_DELAY51
BL51 BANKED LINKER/LOCATER V6.05                                                      09/23/2016  17:07:17  PAGE 220


  C:592FH         PUBLIC        _FUN_LIB_DELAY52
  C:592EH         PUBLIC        _FUN_LIB_DELAY53
  C:592DH         PUBLIC        _FUN_LIB_DELAY54
  C:592CH         PUBLIC        _FUN_LIB_DELAY55
  C:592BH         PUBLIC        _FUN_LIB_DELAY56
  C:592AH         PUBLIC        _FUN_LIB_DELAY57
  C:5929H         PUBLIC        _FUN_LIB_DELAY58
  C:5928H         PUBLIC        _FUN_LIB_DELAY59
  C:5927H         PUBLIC        _FUN_LIB_DELAY60
  C:5926H         PUBLIC        _FUN_LIB_DELAY61
  C:5925H         PUBLIC        _FUN_LIB_DELAY62
  C:5924H         PUBLIC        _FUN_LIB_DELAY63
  C:5923H         PUBLIC        _FUN_LIB_DELAY64
  C:5922H         PUBLIC        _FUN_LIB_DELAY65
  C:5921H         PUBLIC        _FUN_LIB_DELAY66
  C:58EAH         PUBLIC        _FUN_LIB_DELAYSIMPLAY
  C:5DEAH         PUBLIC        _FUN_LIB_ESAMERR
  C:5C01H         PUBLIC        _FUN_LIB_FLASHTODATA
  C:5C13H         PUBLIC        _FUN_LIB_FLASHTODATAEX
  C:5C20H         PUBLIC        _FUN_LIB_FLASHTOXDATA
  C:5C3FH         PUBLIC        _FUN_LIB_FLASHTOXDATALEN
  C:5D6FH         PUBLIC        _FUN_LIB_GETBCC
  C:58EEH         PUBLIC        _FUN_LIB_LCD
  C:5D86H         PUBLIC        _FUN_LIB_POWERADD
  C:5850H         PUBLIC        _FUN_LIB_RAND
  C:5849H         PUBLIC        _FUN_LIB_RANDDELAY
  C:5BD2H         PUBLIC        _FUN_LIB_XDATATODATA
  C:5BE7H         PUBLIC        _FUN_LIB_XDATATOXDATA
  C:595AH         PUBLIC        _GETNEWCRC
  C:5980H         PUBLIC        _GETNEWCRC_XR
  D:00E0H         SYMBOL        ACC
  D:00F0H         SYMBOL        B
  N:009CH         SYMBOL        BRT
  B:0020H.0       SYMBOL        BUSY
  N:00FAH         SYMBOL        CCAP0H
  N:00EAH         SYMBOL        CCAP0L
  N:00FBH         SYMBOL        CCAP1H
  N:00EBH         SYMBOL        CCAP1L
  N:00FCH         SYMBOL        CCAP2H
  N:00ECH         SYMBOL        CCAP2L
  N:00FDH         SYMBOL        CCAP3H
  N:00EDH         SYMBOL        CCAP3L
  N:00FEH         SYMBOL        CCAP4H
  N:00EEH         SYMBOL        CCAP4L
  N:00FFH         SYMBOL        CCAP5H
  N:00EFH         SYMBOL        CCAP5L
  N:00DAH         SYMBOL        CCAPM0
  N:00DBH         SYMBOL        CCAPM1
  N:00DCH         SYMBOL        CCAPM2
  N:00DDH         SYMBOL        CCAPM3
  N:00DEH         SYMBOL        CCAPM4
  N:00DFH         SYMBOL        CCAPM5
  B:00D8H.0       SYMBOL        CCF0
  B:00D8H.1       SYMBOL        CCF1
  B:00D8H.2       SYMBOL        CCF2
  B:00D8H.3       SYMBOL        CCF3
  B:00D8H.4       SYMBOL        CCF4
BL51 BANKED LINKER/LOCATER V6.05                                                      09/23/2016  17:07:17  PAGE 221


  B:00D8H.5       SYMBOL        CCF5
  N:00D8H         SYMBOL        CCON
  B:00D8H.7       SYMBOL        CF
  N:00F9H         SYMBOL        CH
  N:00E9H         SYMBOL        CL
  N:00D9H         SYMBOL        CMOD
  N:0002H         SYMBOL        CONST_ACTIONTYPE_GETRAND
  N:0000H         SYMBOL        CONST_ACTIONTYPE_GETSECURE
  N:0004H         SYMBOL        CONST_ACTIONTYPE_SETMMI
  N:0001H         SYMBOL        CONST_ACTIONTYPE_SETSECURE
  N:0003H         SYMBOL        CONST_ACTIONTYPE_TRANSFERCHANNEL
  N:0003H         SYMBOL        CONST_ACT_H
  N:0001H         SYMBOL        CONST_ACT_H_H
  N:0000H         SYMBOL        CONST_ACT_H_L
  N:0001H         SYMBOL        CONST_ACT_L
  N:0006H         SYMBOL        CONST_ACT_L_H
  N:000AH         SYMBOL        CONST_ACT_L_L
  N:0002H         SYMBOL        CONST_ACT_M
  N:0000H         SYMBOL        CONST_ACT_M_H
  N:0006H         SYMBOL        CONST_ACT_M_L
  N:0002H         SYMBOL        CONST_ACT_V
  N:0002H         SYMBOL        CONST_BAUD_115200
  N:0003H         SYMBOL        CONST_BAUD_115200PC
  N:0004H         SYMBOL        CONST_BAUD_230000
  N:0001H         SYMBOL        CONST_BAUD_38400
  N:0005H         SYMBOL        CONST_BAUD_38400PC
  N:0000H         SYMBOL        CONST_BAUD_9600
  N:0006H         SYMBOL        CONST_BAUD_9600PC
  N:000CH         SYMBOL        CONST_BAUD_BITFULL12
  N:000EH         SYMBOL        CONST_BAUD_BITFULL20
  N:0010H         SYMBOL        CONST_BAUD_BITFULL28
  N:000BH         SYMBOL        CONST_BAUD_BITFULL8
  N:000CH         SYMBOL        CONST_BAUD_BITHALF12
  N:00B3H         SYMBOL        CONST_BAUD_CURRENTBITFULL
  N:0058H         SYMBOL        CONST_BAUD_CURRENTBITHALF
  N:001DH         SYMBOL        CONST_BAUD_FULL115200
  N:000FH         SYMBOL        CONST_BAUD_FULL230000
  N:005DH         SYMBOL        CONST_BAUD_FULL38400
  N:00B3H         SYMBOL        CONST_BAUD_FULL9600
  N:000DH         SYMBOL        CONST_BAUD_HALF115200
  N:0008H         SYMBOL        CONST_BAUD_HALF230000
  N:002DH         SYMBOL        CONST_BAUD_HALF38400
  N:0058H         SYMBOL        CONST_BAUD_HALF9600
  N:00F8H         SYMBOL        CONST_BAUD_HAND115200
  N:00F3H         SYMBOL        CONST_BAUD_HAND115200PC
  N:00FCH         SYMBOL        CONST_BAUD_HAND230000
  N:00E9H         SYMBOL        CONST_BAUD_HAND38400
  N:00D8H         SYMBOL        CONST_BAUD_HAND38400PC
  N:00A3H         SYMBOL        CONST_BAUD_HAND9600
  N:0060H         SYMBOL        CONST_BAUD_HAND9600PC
  N:00FFH         SYMBOL        CONST_BLACK_H
  N:00FFH         SYMBOL        CONST_BLACK_L
  N:0014H         SYMBOL        CONST_BLUETOOTH_WORKTIME
  N:0020H         SYMBOL        CONST_BSTLIMIT
  N:0064H         SYMBOL        CONST_BSTLIMIT02
  N:0016H         SYMBOL        CONST_CARD_CONSUME
  N:0017H         SYMBOL        CONST_CARD_PASS
BL51 BANKED LINKER/LOCATER V6.05                                                      09/23/2016  17:07:17  PAGE 222


  N:0000H         SYMBOL        CONST_CELLFILE_H
  N:0009H         SYMBOL        CONST_CELLFILE_L
  N:0001H         SYMBOL        CONST_DPH_NORMAL
  N:0001H         SYMBOL        CONST_DPH_ONE
  N:0003H         SYMBOL        CONST_DPH_SERX
  N:0000H         SYMBOL        CONST_DPH_SETX
  N:0003H         SYMBOL        CONST_DPH_THREE
  N:0002H         SYMBOL        CONST_DPH_TWO
  N:0000H         SYMBOL        CONST_DPH_ZERO
  N:0007H         SYMBOL        CONST_DSRC_ACTION
  N:0009H         SYMBOL        CONST_DSRC_ACTIONTYPE
  N:0001H         SYMBOL        CONST_DSRC_CHANNELIDICC
  N:0002H         SYMBOL        CONST_DSRC_CHANNELIDSAM
  N:000AH         SYMBOL        CONST_DSRC_CONTAIN
  N:0008H         SYMBOL        CONST_DSRC_DID
  N:0000H         SYMBOL        CONST_DSRC_FILDIDAPPKEY
  N:0002H         SYMBOL        CONST_DSRC_FILDIDCONSUME
  N:0003H         SYMBOL        CONST_DSRC_FILDIDHOLD
  N:0001H         SYMBOL        CONST_DSRC_FILDIDVEHICLE
  N:000BH         SYMBOL        CONST_DSRC_FILL
  N:0006H         SYMBOL        CONST_DSRC_HEAD
  N:0005H         SYMBOL        CONST_DSRC_LLCCTRL
  N:0004H         SYMBOL        CONST_DSRC_MACCTRL
  N:0003H         SYMBOL        CONST_ETC_INPUT
  N:0002H         SYMBOL        CONST_FALSH_PREFLAG02H
  N:00F4H         SYMBOL        CONST_FALSH_PREFLAG02L
  N:0002H         SYMBOL        CONST_FALSH_PREFLAG03H
  N:00F5H         SYMBOL        CONST_FALSH_PREFLAG03L
  N:0002H         SYMBOL        CONST_FALSH_PREFLAG04H
  N:00F6H         SYMBOL        CONST_FALSH_PREFLAG04L
  N:0002H         SYMBOL        CONST_FALSH_PREFLAGH
  N:00F3H         SYMBOL        CONST_FALSH_PREFLAGL
  N:0001H         SYMBOL        CONST_FALSH_PREFLAGLEN
  N:0004H         SYMBOL        CONST_FLASHADD_BEACONIDUNIXTIMEH
  N:0000H         SYMBOL        CONST_FLASHADD_BEACONIDUNIXTIMEL
  N:0002H         SYMBOL        CONST_FLASH_0002H
  N:0058H         SYMBOL        CONST_FLASH_0002L
  N:0004H         SYMBOL        CONST_FLASH_0002LEN
  N:0002H         SYMBOL        CONST_FLASH_0012H
  N:005CH         SYMBOL        CONST_FLASH_0012L
  N:0028H         SYMBOL        CONST_FLASH_0012LEN
  N:0002H         SYMBOL        CONST_FLASH_0015H
  N:0084H         SYMBOL        CONST_FLASH_0015L
  N:0032H         SYMBOL        CONST_FLASH_0015LEN
  N:002BH         SYMBOL        CONST_FLASH_0015LENOLD
  N:002BH         SYMBOL        CONST_FLASH_0019GBLEN
  N:0002H         SYMBOL        CONST_FLASH_0019H
  N:00B6H         SYMBOL        CONST_FLASH_0019L
  N:003CH         SYMBOL        CONST_FLASH_0019LEN
  N:003FH         SYMBOL        CONST_FLASH_0019NEWGDLEN
  N:0004H         SYMBOL        CONST_FLASH_BEACONIDUNIXTIMEH
  N:0000H         SYMBOL        CONST_FLASH_BEACONIDUNIXTIMEL
  N:0008H         SYMBOL        CONST_FLASH_BEACONIDUNIXTIMELEN
  N:0002H         SYMBOL        CONST_FLASH_BLOCK01
  N:0001H         SYMBOL        CONST_FLASH_CARDTYPELEN
  N:00F3H         SYMBOL        CONST_FLASH_FILELEN
  N:0002H         SYMBOL        CONST_FLASH_LASTCARDH
BL51 BANKED LINKER/LOCATER V6.05                                                      09/23/2016  17:07:17  PAGE 223


  N:00F2H         SYMBOL        CONST_FLASH_LASTCARDL
  N:0002H         SYMBOL        CONST_FLASH_STARTHIGH
  N:0000H         SYMBOL        CONST_FLASH_STARTLOW
  N:0002H         SYMBOL        CONST_FLASH_SYSINFOH
  N:0000H         SYMBOL        CONST_FLASH_SYSINFOL
  N:0058H         SYMBOL        CONST_FLASH_SYSINFOLEN
  N:0002H         SYMBOL        CONST_GDO2_MCSM2
  N:0046H         SYMBOL        CONST_GDO2_VALUE
  N:00F0H         SYMBOL        CONST_GSM_MAXNUM
  N:0008H         SYMBOL        CONST_GSM_NUM
  N:0014H         SYMBOL        CONST_GSM_PJNUM
  N:0015H         SYMBOL        CONST_HANDSECOND
  N:0002H         SYMBOL        CONST_LHX_FLAG
  N:0005H         SYMBOL        CONST_MAX_RXNUM
  N:0008H         SYMBOL        CONST_MCU_WKCTH
  N:00FFH         SYMBOL        CONST_MCU_WKCTL
  N:0002H         SYMBOL        CONST_MF_DECREMENT
  N:0003H         SYMBOL        CONST_MF_INCREMENT
  N:00C0H         SYMBOL        CONST_MF_RC500DECREMENT
  N:00C1H         SYMBOL        CONST_MF_RC500INCREMENT
  N:0000H         SYMBOL        CONST_MF_READ
  N:0004H         SYMBOL        CONST_MF_RESTOR
  N:0001H         SYMBOL        CONST_MF_WRITE
  N:0001H         SYMBOL        CONST_MTC_INPUT
  N:0018H         SYMBOL        CONST_PPS_115200
  N:0096H         SYMBOL        CONST_PPS_230000
  N:0013H         SYMBOL        CONST_PPS_38400
  N:0010H         SYMBOL        CONST_PPS_9600
  N:0001H         SYMBOL        CONST_PRO_4SPEED
  N:00FAH         SYMBOL        CONST_PRO_OVERTIME2S
  N:0090H         SYMBOL        CONST_RTCOVERFLOW
  N:00FFH         SYMBOL        CONST_RTC_OFF
  N:0055H         SYMBOL        CONST_RTC_ON
  N:000AH         SYMBOL        CONST_SE_CHANNEL
  N:0000H         SYMBOL        CONST_SE_RXBUF
  N:0000H         SYMBOL        CONST_SE_TXBUF
  N:0000H         SYMBOL        CONST_SOF
  N:0014H         SYMBOL        CONST_SOFTBYTESP
  N:0010H         SYMBOL        CONST_SOFTFIRSTSCANTIME
  N:00FFH         SYMBOL        CONST_SOFTFIRSTSCANTIMEXX
  N:0070H         SYMBOL        CONST_SOFTSECOND
  N:000CH         SYMBOL        CONST_SSRC_FID
  N:0007H         SYMBOL        CONST_STATE_5823INIER
  N:0008H         SYMBOL        CONST_STATE_5823SLEEPER
  N:0003H         SYMBOL        CONST_STATE_ACCEPTOVER
  N:0004H         SYMBOL        CONST_STATE_ACCEPTOVERLEN
  N:0006H         SYMBOL        CONST_STATE_ACTCARDINVALID
  N:0004H         SYMBOL        CONST_STATE_ACTIVEFAIL
  N:0006H         SYMBOL        CONST_STATE_AUTHER
  N:001DH         SYMBOL        CONST_STATE_BASE01ANTICOLL
  N:0015H         SYMBOL        CONST_STATE_BASE01CONTACT
  N:0014H         SYMBOL        CONST_STATE_BASE01ESAMDF01
  N:001FH         SYMBOL        CONST_STATE_BASE01RATS
  N:001CH         SYMBOL        CONST_STATE_BASE01RE
  N:001EH         SYMBOL        CONST_STATE_BASE01SEL
  N:0019H         SYMBOL        CONST_STATE_BASE02ANTICOLL
  N:0016H         SYMBOL        CONST_STATE_BASE02CONTACT
BL51 BANKED LINKER/LOCATER V6.05                                                      09/23/2016  17:07:17  PAGE 224


  N:001BH         SYMBOL        CONST_STATE_BASE02RATS
  N:0018H         SYMBOL        CONST_STATE_BASE02RE
  N:001AH         SYMBOL        CONST_STATE_BASE02SEL
  N:000BH         SYMBOL        CONST_STATE_BASEESAMDF01
  N:0013H         SYMBOL        CONST_STATE_BASEN01INIT
  N:000AH         SYMBOL        CONST_STATE_BASENINIT
  N:000DH         SYMBOL        CONST_STATE_CARDPREDEAL0002
  N:000EH         SYMBOL        CONST_STATE_CARDPREDEAL0012
  N:000FH         SYMBOL        CONST_STATE_CARDPREDEAL0015
  N:0010H         SYMBOL        CONST_STATE_CARDPREDEAL0019
  N:000CH         SYMBOL        CONST_STATE_CARDPREDEAL1001
  N:0011H         SYMBOL        CONST_STATE_CARDPREDEAL3F00
  N:0012H         SYMBOL        CONST_STATE_CARDPREDEAL81
  N:0023H         SYMBOL        CONST_STATE_ESAMER
  N:0021H         SYMBOL        CONST_STATE_EXMEMORYER
  N:0022H         SYMBOL        CONST_STATE_EXMEMORYER02
  N:00FFH         SYMBOL        CONST_STATE_FALSE
  N:0009H         SYMBOL        CONST_STATE_GETSECURESELFILEER
  N:0005H         SYMBOL        CONST_STATE_ILLEGALACTCARD
  N:0002H         SYMBOL        CONST_STATE_ILLEGALINPUTCARD
  N:0003H         SYMBOL        CONST_STATE_INPUTCARDINVALID
  N:0001H         SYMBOL        CONST_STATE_INPUTFAIL
  N:0020H         SYMBOL        CONST_STATE_MEMORYER
  N:0005H         SYMBOL        CONST_STATE_RSTCPUER
  N:0001H         SYMBOL        CONST_STATE_SERIALACCPET
  N:0002H         SYMBOL        CONST_STATE_SERIALOVERTIME
  N:0017H         SYMBOL        CONST_STATE_TEST
  N:0000H         SYMBOL        CONST_STATE_TRUE
  N:0055H         SYMBOL        CONST_SYS_55
  N:00AAH         SYMBOL        CONST_SYS_AA
  N:0004H         SYMBOL        CONST_SYS_OBUIDLEN
  N:000AH         SYMBOL        CONST_SYS_POWERONTIMER
  N:0088H         SYMBOL        CONST_SYS_PREFLAG
  N:0064H         SYMBOL        CONST_SYS_RTCOVERTIME
  N:00FFH         SYMBOL        CONST_SYS_TRADECONFINE
  N:0001H         SYMBOL        CONST_TIMEER02
  N:00FEH         SYMBOL        CONST_TIMEER03
  N:0001H         SYMBOL        CONST_TIMEER04
  N:00FFH         SYMBOL        CONST_VSTLIMIT
  N:0000H         SYMBOL        CONST_WHITE_H
  N:0031H         SYMBOL        CONST_WHITE_L
  N:0000H         SYMBOL        CONST_WORKSTAION_0
  N:0001H         SYMBOL        CONST_WORKSTAION_1
  N:0002H         SYMBOL        CONST_WORKSTAION_2
  N:0003H         SYMBOL        CONST_WORKSTAION_3
  N:0000H         SYMBOL        CONST_XDATA_TXBUF02
  N:0080H         SYMBOL        CONST_XDATA_TXBUF02LEN
  B:00D8H.6       SYMBOL        CR
  C:59BDH         SYMBOL        CRCTB
  D:0083H         SYMBOL        DPH
  D:0082H         SYMBOL        DPL
  B:00A8H.6       SYMBOL        EPCAI
  B:00A8H.6       SYMBOL        EPCA_LVD
  D:00A8H         SYMBOL        IE
  N:00AFH         SYMBOL        IE2
  N:00B7H         SYMBOL        IPH
  N:00C7H         SYMBOL        ISP_CONTR
BL51 BANKED LINKER/LOCATER V6.05                                                      09/23/2016  17:07:17  PAGE 225


  N:0000H         SYMBOL        LIB
  C:5893H         SYMBOL        LIB_1MSDELAY_1
  C:589AH         SYMBOL        LIB_1MSDELAY_3
  C:58A1H         SYMBOL        LIB_1MSDELAY_6
  C:58A8H         SYMBOL        LIB_1MSDELAY_7
  C:58C2H         SYMBOL        LIB_1MSDELAY_LOOP
  C:58C4H         SYMBOL        LIB_1MSDELAY_LOOP1
  C:58C6H         SYMBOL        LIB_1MSDELAY_LOOP2
  C:58CCH         SYMBOL        LIB_1MSDELAY_OVER
  C:58BEH         SYMBOL        LIB_1MSDELAY_SOVER
  C:5D56H         SYMBOL        LIB_COMPARETIME02_LOOP
  C:5CD4H         SYMBOL        LIB_COMPARETIME_LOOP
  C:5D12H         SYMBOL        LIB_COMPARETIME_OVER
  C:5CEFH         SYMBOL        LIB_COMPARETIME_SECDIF
  C:5D13H         SYMBOL        LIB_COMPARETIME_TOW
  C:5BC6H         SYMBOL        LIB_DATATOXDATA_LOOP
  C:58D1H         SYMBOL        LIB_DELAY_LOOP
  C:58D5H         SYMBOL        LIB_DELAY_LOOP1
  C:5E10H         SYMBOL        LIB_ESAMERR_OVER
  C:5C18H         SYMBOL        LIB_FLASHTODATAEX_LOOP
  C:5C0BH         SYMBOL        LIB_FLASHTODATA_LOOP
  C:5C41H         SYMBOL        LIB_FLASHTOXDATALEN_LOOP
  C:5C2AH         SYMBOL        LIB_FLASHTOXDATA_LOOP
  C:5D74H         SYMBOL        LIB_GETBCC_LOOP
  C:5D77H         SYMBOL        LIB_GETBCC_MOV
  C:5D7AH         SYMBOL        LIB_GETBCC_MOVX
  C:5D80H         SYMBOL        LIB_GETBCC_SETOVER
  C:5DE9H         SYMBOL        LIB_POWERADD_OVER
  C:5850H         SYMBOL        LIB_RAND_CK
  C:5850H         SYMBOL        LIB_RAND_CK1
  C:5857H         SYMBOL        LIB_RAND_CK2
  C:5BDBH         SYMBOL        LIB_XDATATODATA_LOOP
  C:5BF0H         SYMBOL        LIB_XDATATOXDATA_LOOP
  D:0080H         SYMBOL        P0
  D:0090H         SYMBOL        P1
  D:00A0H         SYMBOL        P2
  D:00B0H         SYMBOL        P3
  N:00C0H         SYMBOL        P4
  N:00F2H         SYMBOL        PCA_PWM0
  N:00F3H         SYMBOL        PCA_PWM1
  N:00F4H         SYMBOL        PCA_PWM2
  N:00F5H         SYMBOL        PCA_PWM3
  N:00F6H         SYMBOL        PCA_PWM4
  N:00F7H         SYMBOL        PCA_PWM5
  B:0080H.4       SYMBOL        PIN_522_MISO
  B:0080H.5       SYMBOL        PIN_522_MOSI
  B:00C0H.6       SYMBOL        PIN_522_RST
  B:0080H.7       SYMBOL        PIN_522_SCLK
  B:0080H.6       SYMBOL        PIN_522_SS
  B:0090H.0       SYMBOL        PIN_5823BK_CS
  B:0090H.2       SYMBOL        PIN_5823BK_IRQ
  B:0080H.0       SYMBOL        PIN_5823BK_MISO
  B:0080H.1       SYMBOL        PIN_5823BK_MOSI
  B:00C0H.2       SYMBOL        PIN_5823BK_SCLK
  B:0080H.3       SYMBOL        PIN_BELL_01
  B:0080H.2       SYMBOL        PIN_BELL_02
  B:0090H.1       SYMBOL        PIN_BK_CE
BL51 BANKED LINKER/LOCATER V6.05                                                      09/23/2016  17:07:17  PAGE 226


  B:00B0H.3       SYMBOL        PIN_CARD_EXIST
  B:0090H.6       SYMBOL        PIN_CC1101_GDO2
  B:00B0H.7       SYMBOL        PIN_CC1101_MISO
  B:00A0H.3       SYMBOL        PIN_CC1101_MOSI
  B:00A0H.2       SYMBOL        PIN_CC1101_SCLK
  B:00B0H.6       SYMBOL        PIN_CC1101_SS
  B:00A0H.5       SYMBOL        PIN_ESAM_RST
  B:00A0H.6       SYMBOL        PIN_ESAM_RX
  B:00A0H.6       SYMBOL        PIN_ESAM_TX
  B:00C0H.5       SYMBOL        PIN_GRE
  B:0090H.4       SYMBOL        PIN_LCD_CS
  B:0090H.7       SYMBOL        PIN_LCD_DC
  B:0090H.5       SYMBOL        PIN_LCD_RST
  B:00B0H.4       SYMBOL        PIN_LCD_SCL
  B:00C0H.3       SYMBOL        PIN_LCD_SDA
  B:00A0H.7       SYMBOL        PIN_PWRDWN
  B:0090H.3       SYMBOL        PIN_PWRDWN_LCD
  B:00A0H.4       SYMBOL        PIN_PWR_GSM
  B:00A0H.1       SYMBOL        PIN_PWR_LOWIO
  B:00C0H.1       SYMBOL        PIN_RED
  B:00B0H.0       SYMBOL        PIN_SOFTSERIALRX
  B:00B0H.1       SYMBOL        PIN_SOFTSERIALTXH
  B:00B0H.5       SYMBOL        PIN_UNFIX
  B:00A0H.0       SYMBOL        PIN_WAVE_CHANNEL1
  N:00C0H         SYMBOL        READ_BURST
  N:00A2H         SYMBOL        REG_51_AUXR1
  N:008EH         SYMBOL        REG_5412AD_AUXR
  N:0094H         SYMBOL        REG_5412AD_P0M0
  N:0093H         SYMBOL        REG_5412AD_P0M1
  N:0092H         SYMBOL        REG_5412AD_P1M0
  N:0091H         SYMBOL        REG_5412AD_P1M1
  N:0096H         SYMBOL        REG_5412AD_P2M0
  N:0095H         SYMBOL        REG_5412AD_P2M1
  N:00B2H         SYMBOL        REG_5412AD_P3M0
  N:00B1H         SYMBOL        REG_5412AD_P3M1
  N:00B4H         SYMBOL        REG_5412AD_P4M0
  N:00B3H         SYMBOL        REG_5412AD_P4M1
  N:00BBH         SYMBOL        REG_5412AD_P4SW
  N:0085H         SYMBOL        REG_5412AD_SPCTL
  N:0086H         SYMBOL        REG_5412AD_SPDAT
  N:0084H         SYMBOL        REG_5412AD_SPSTAT
  N:00ABH         SYMBOL        REG_MCU_WKCTH
  N:00AAH         SYMBOL        REG_MCU_WKCTL
  N:000DH         SYMBOL        REG_RC522_BITFRAMINGREG
  N:000EH         SYMBOL        REG_RC522_COLLREG
  N:0002H         SYMBOL        REG_RC522_COMIENREG
  N:0004H         SYMBOL        REG_RC522_COMIRQREG
  N:0001H         SYMBOL        REG_RC522_COMMANDREG
  N:000CH         SYMBOL        REG_RC522_CONTROLREG
  N:0021H         SYMBOL        REG_RC522_CRCRESULTREGH
  N:0022H         SYMBOL        REG_RC522_CRCRESULTREGL
  N:0028H         SYMBOL        REG_RC522_CWGSPREG
  N:0019H         SYMBOL        REG_RC522_DEMODREG
  N:0003H         SYMBOL        REG_RC522_DIVIENREG
  N:0005H         SYMBOL        REG_RC522_DIVIRQREG
  N:0006H         SYMBOL        REG_RC522_ERRORREG
  N:0009H         SYMBOL        REG_RC522_FIFODATAREG
BL51 BANKED LINKER/LOCATER V6.05                                                      09/23/2016  17:07:17  PAGE 227


  N:000AH         SYMBOL        REG_RC522_FIFOLEVELREG
  N:0027H         SYMBOL        REG_RC522_GSNREG
  N:001CH         SYMBOL        REG_RC522_MIFAREREG
  N:0011H         SYMBOL        REG_RC522_MODEREG
  N:0029H         SYMBOL        REG_RC522_MODGSPREG
  N:0024H         SYMBOL        REG_RC522_MODWIDTHREG
  N:0000H         SYMBOL        REG_RC522_RC522PAGE
  N:0026H         SYMBOL        REG_RC522_RFCFGREG
  N:000FH         SYMBOL        REG_RC522_RFU
  N:0013H         SYMBOL        REG_RC522_RXMODEREG
  N:0017H         SYMBOL        REG_RC522_RXSELREG
  N:0018H         SYMBOL        REG_RC522_RXTHRESHOLDREG
  N:001FH         SYMBOL        REG_RC522_SERIALSPEEDREG
  N:0007H         SYMBOL        REG_RC522_STATUS1REG
  N:0008H         SYMBOL        REG_RC522_STATUS2REG
  N:002EH         SYMBOL        REG_RC522_TCOUNTERVALUEREGH
  N:002FH         SYMBOL        REG_RC522_TCOUNTERVALUEREGL
  N:002AH         SYMBOL        REG_RC522_TMODEREG
  N:002BH         SYMBOL        REG_RC522_TPRESCALERREG
  N:002CH         SYMBOL        REG_RC522_TRELOADREGH
  N:002DH         SYMBOL        REG_RC522_TRELOADREGL
  N:0015H         SYMBOL        REG_RC522_TXAUTOREG
  N:0014H         SYMBOL        REG_RC522_TXCONTROLREG
  N:0012H         SYMBOL        REG_RC522_TXMODEREG
  N:0016H         SYMBOL        REG_RC522_TXSELREG
  N:000BH         SYMBOL        REG_RC522_WATERLEVELREG
  N:009CH         SYMBOL        REG_SYS_BRT
  N:008FH         SYMBOL        REG_WAKECLK0
  B:00D8H.4       SYMBOL        REG_WAKECLK_04
  B:00D8H.5       SYMBOL        REG_WAKECLK_05
  N:00C1H         SYMBOL        REG_WDT_CONTR
  N:00EAH         SYMBOL        RELOAD2_CONTR
  N:009BH         SYMBOL        S2BUF
  N:009AH         SYMBOL        S2CON
  N:0009H         SYMBOL        TI_CCXXX0_ADDR
  N:001DH         SYMBOL        TI_CCXXX0_AGCCTRL0
  N:001CH         SYMBOL        TI_CCXXX0_AGCCTRL1
  N:001BH         SYMBOL        TI_CCXXX0_AGCCTRL2
  N:002BH         SYMBOL        TI_CCXXX0_AGCTEST
  N:001AH         SYMBOL        TI_CCXXX0_BSCFG
  N:000AH         SYMBOL        TI_CCXXX0_CHANNR
  N:0015H         SYMBOL        TI_CCXXX0_DEVIATN
  N:0003H         SYMBOL        TI_CCXXX0_FIFOTHR
  N:0019H         SYMBOL        TI_CCXXX0_FOCCFG
  N:0022H         SYMBOL        TI_CCXXX0_FREND0
  N:0021H         SYMBOL        TI_CCXXX0_FREND1
  N:000FH         SYMBOL        TI_CCXXX0_FREQ0
  N:000EH         SYMBOL        TI_CCXXX0_FREQ1
  N:000DH         SYMBOL        TI_CCXXX0_FREQ2
  N:0032H         SYMBOL        TI_CCXXX0_FREQEST
  N:0026H         SYMBOL        TI_CCXXX0_FSCAL0
  N:0025H         SYMBOL        TI_CCXXX0_FSCAL1
  N:0024H         SYMBOL        TI_CCXXX0_FSCAL2
  N:0023H         SYMBOL        TI_CCXXX0_FSCAL3
  N:000CH         SYMBOL        TI_CCXXX0_FSCTRL0
  N:000BH         SYMBOL        TI_CCXXX0_FSCTRL1
  N:0029H         SYMBOL        TI_CCXXX0_FSTEST
BL51 BANKED LINKER/LOCATER V6.05                                                      09/23/2016  17:07:17  PAGE 228


  N:0002H         SYMBOL        TI_CCXXX0_IOCFG0
  N:0001H         SYMBOL        TI_CCXXX0_IOCFG1
  N:0000H         SYMBOL        TI_CCXXX0_IOCFG2
  N:0033H         SYMBOL        TI_CCXXX0_LQI
  N:0035H         SYMBOL        TI_CCXXX0_MARCSTATE
  N:0018H         SYMBOL        TI_CCXXX0_MCSM0
  N:0017H         SYMBOL        TI_CCXXX0_MCSM1
  N:0016H         SYMBOL        TI_CCXXX0_MCSM2
  N:0014H         SYMBOL        TI_CCXXX0_MDMCFG0
  N:0013H         SYMBOL        TI_CCXXX0_MDMCFG1
  N:0012H         SYMBOL        TI_CCXXX0_MDMCFG2
  N:0011H         SYMBOL        TI_CCXXX0_MDMCFG3
  N:0010H         SYMBOL        TI_CCXXX0_MDMCFG4
  N:007FH         SYMBOL        TI_CCXXX0_NUM_RXBYTES
  N:0030H         SYMBOL        TI_CCXXX0_PARTNUM
  N:003EH         SYMBOL        TI_CCXXX0_PATABLE
  N:0008H         SYMBOL        TI_CCXXX0_PKTCTRL0
  N:0007H         SYMBOL        TI_CCXXX0_PKTCTRL1
  N:0006H         SYMBOL        TI_CCXXX0_PKTLEN
  N:0038H         SYMBOL        TI_CCXXX0_PKTSTATUS
  N:002AH         SYMBOL        TI_CCXXX0_PTEST
  N:0028H         SYMBOL        TI_CCXXX0_RCCTRL0
  N:0027H         SYMBOL        TI_CCXXX0_RCCTRL1
  N:0034H         SYMBOL        TI_CCXXX0_RSSI
  N:003BH         SYMBOL        TI_CCXXX0_RXBYTES
  N:003FH         SYMBOL        TI_CCXXX0_RXFIFO
  N:0037H         SYMBOL        TI_CCXXX0_SAFC
  N:0033H         SYMBOL        TI_CCXXX0_SCAL
  N:003AH         SYMBOL        TI_CCXXX0_SFRX
  N:003BH         SYMBOL        TI_CCXXX0_SFTX
  N:0036H         SYMBOL        TI_CCXXX0_SIDLE
  N:003DH         SYMBOL        TI_CCXXX0_SNOP
  N:0039H         SYMBOL        TI_CCXXX0_SPWD
  N:0030H         SYMBOL        TI_CCXXX0_SRES
  N:0034H         SYMBOL        TI_CCXXX0_SRX
  N:0035H         SYMBOL        TI_CCXXX0_STX
  N:0038H         SYMBOL        TI_CCXXX0_SWOR
  N:003CH         SYMBOL        TI_CCXXX0_SWORRST
  N:0032H         SYMBOL        TI_CCXXX0_SXOFF
  N:0005H         SYMBOL        TI_CCXXX0_SYNC0
  N:0004H         SYMBOL        TI_CCXXX0_SYNC1
  N:002EH         SYMBOL        TI_CCXXX0_TEST0
  N:002DH         SYMBOL        TI_CCXXX0_TEST1
  N:002CH         SYMBOL        TI_CCXXX0_TEST2
  N:003AH         SYMBOL        TI_CCXXX0_TXBYTES
  N:003FH         SYMBOL        TI_CCXXX0_TXFIFO
  N:0039H         SYMBOL        TI_CCXXX0_VCO_VC_DAC
  N:0031H         SYMBOL        TI_CCXXX0_VERSION
  N:0020H         SYMBOL        TI_CCXXX0_WORCTRL
  N:001FH         SYMBOL        TI_CCXXX0_WOREVT0
  N:001EH         SYMBOL        TI_CCXXX0_WOREVT1
  N:0037H         SYMBOL        TI_CCXXX0_WORTIME0
  N:0036H         SYMBOL        TI_CCXXX0_WORTIME1
  N:008FH         SYMBOL        WAKE_CLKO
  B:00B0H.2       SYMBOL        WKO_BK
  C:5C7CH         SYMBOL        _DELAY1
  C:5C7EH         SYMBOL        _DELAY2
BL51 BANKED LINKER/LOCATER V6.05                                                      09/23/2016  17:07:17  PAGE 229


  C:5C7AH         SYMBOL        _DELAY3
  C:5893H         SYMBOL        _FUN_LIB_1MSDELAY
  C:5846H         SYMBOL        _FUN_LIB_MASTER
  C:5962H         SYMBOL        _GETNEWCRCBYTE
  C:596DH         SYMBOL        _GETNEWCRCBYTE1
  C:5988H         SYMBOL        _GETNEWCRCBYTE_XR
  C:59A0H         SYMBOL        _GETNEWCRCBYTE_XR1
  C:5C5AH         SYMBOL        _ONBP1
  C:5C5CH         SYMBOL        _ONBP2
  C:5846H         LINE#         69
  C:5848H         LINE#         70
  C:5849H         LINE#         81
  C:584CH         LINE#         82
  C:584FH         LINE#         84
  C:5850H         LINE#         101
  C:5852H         LINE#         103
  C:5855H         LINE#         104
  C:5857H         LINE#         106
  C:5858H         LINE#         107
  C:585AH         LINE#         108
  C:585CH         LINE#         109
  C:585EH         LINE#         111
  C:5861H         LINE#         112
  C:5862H         LINE#         114
  C:5863H         LINE#         115
  C:5865H         LINE#         118
  C:5868H         LINE#         119
  C:5869H         LINE#         120
  C:586BH         LINE#         122
  C:586EH         LINE#         123
  C:5871H         LINE#         124
  C:5873H         LINE#         125
  C:5875H         LINE#         127
  C:5877H         LINE#         128
  C:5878H         LINE#         129
  C:587AH         LINE#         131
  C:587CH         LINE#         133
  C:587FH         LINE#         134
  C:5881H         LINE#         135
  C:5882H         LINE#         136
  C:5883H         LINE#         138
  C:5884H         LINE#         140
  C:5885H         LINE#         141
  C:5887H         LINE#         148
  C:5889H         LINE#         149
  C:588BH         LINE#         150
  C:588CH         LINE#         152
  C:588FH         LINE#         153
  C:5890H         LINE#         154
  C:5892H         LINE#         156
  C:5893H         LINE#         171
  C:5896H         LINE#         172
  C:5898H         LINE#         173
  C:589AH         LINE#         176
  C:589DH         LINE#         177
  C:589FH         LINE#         178
  C:58A1H         LINE#         180
BL51 BANKED LINKER/LOCATER V6.05                                                      09/23/2016  17:07:17  PAGE 230


  C:58A4H         LINE#         181
  C:58A6H         LINE#         182
  C:58A8H         LINE#         187
  C:58ABH         LINE#         188
  C:58ACH         LINE#         189
  C:58AEH         LINE#         190
  C:58B0H         LINE#         192
  C:58B2H         LINE#         194
  C:58B5H         LINE#         195
  C:58B7H         LINE#         196
  C:58B8H         LINE#         197
  C:58BAH         LINE#         198
  C:58BCH         LINE#         200
  C:58BEH         LINE#         206
  C:58BFH         LINE#         207
  C:58C0H         LINE#         211
  C:58C2H         LINE#         217
  C:58C4H         LINE#         219
  C:58C6H         LINE#         221
  C:58C8H         LINE#         222
  C:58CAH         LINE#         223
  C:58CCH         LINE#         227
  C:58CDH         LINE#         234
  C:58CFH         LINE#         235
  C:58D1H         LINE#         237
  C:58D3H         LINE#         238
  C:58D5H         LINE#         241
  C:58D6H         LINE#         242
  C:58D7H         LINE#         243
  C:58D8H         LINE#         244
  C:58D9H         LINE#         245
  C:58DAH         LINE#         247
  C:58DBH         LINE#         248
  C:58DCH         LINE#         249
  C:58DDH         LINE#         250
  C:58DEH         LINE#         251
  C:58DFH         LINE#         252
  C:58E1H         LINE#         253
  C:58E3H         LINE#         254
  C:58E5H         LINE#         256
  C:58E7H         LINE#         257
  C:58E9H         LINE#         259
  C:58EAH         LINE#         266
  C:58EBH         LINE#         267
  C:58EDH         LINE#         268
  C:58EEH         LINE#         271
  C:58F0H         LINE#         272
  C:58F1H         LINE#         278
  C:58F3H         LINE#         279
  C:58F5H         LINE#         280
  C:58F7H         LINE#         281
  C:58F9H         LINE#         282
  C:58FAH         LINE#         284
  C:58FBH         LINE#         285
  C:58FCH         LINE#         286
  C:58FDH         LINE#         287
  C:58FFH         LINE#         288
BL51 BANKED LINKER/LOCATER V6.05                                                      09/23/2016  17:07:17  PAGE 231


  C:5901H         LINE#         290
  C:5902H         LINE#         291
  C:5904H         LINE#         292
  C:5906H         LINE#         294
  C:5907H         LINE#         296
  C:5908H         LINE#         298
  C:5909H         LINE#         300
  C:590AH         LINE#         302
  C:590BH         LINE#         304
  C:590CH         LINE#         306
  C:590DH         LINE#         308
  C:590EH         LINE#         310
  C:590FH         LINE#         312
  C:5910H         LINE#         314
  C:5911H         LINE#         316
  C:5912H         LINE#         318
  C:5913H         LINE#         320
  C:5914H         LINE#         322
  C:5915H         LINE#         324
  C:5916H         LINE#         326
  C:5917H         LINE#         328
  C:5918H         LINE#         330
  C:5919H         LINE#         332
  C:591AH         LINE#         334
  C:591BH         LINE#         335
  C:591CH         LINE#         336
  C:591DH         LINE#         337
  C:591FH         LINE#         338
  C:5921H         LINE#         340
  C:5922H         LINE#         342
  C:5923H         LINE#         344
  C:5924H         LINE#         346
  C:5925H         LINE#         348
  C:5926H         LINE#         350
  C:5927H         LINE#         352
  C:5928H         LINE#         354
  C:5929H         LINE#         356
  C:592AH         LINE#         358
  C:592BH         LINE#         360
  C:592CH         LINE#         362
  C:592DH         LINE#         364
  C:592EH         LINE#         366
  C:592FH         LINE#         368
  C:5930H         LINE#         370
  C:5931H         LINE#         372
  C:5932H         LINE#         374
  C:5933H         LINE#         376
  C:5934H         LINE#         378
  C:5935H         LINE#         380
  C:5936H         LINE#         382
  C:5937H         LINE#         384
  C:5938H         LINE#         386
  C:5939H         LINE#         388
  C:593AH         LINE#         390
  C:593BH         LINE#         392
  C:593CH         LINE#         394
  C:593DH         LINE#         396
BL51 BANKED LINKER/LOCATER V6.05                                                      09/23/2016  17:07:17  PAGE 232


  C:593EH         LINE#         398
  C:593FH         LINE#         400
  C:5940H         LINE#         402
  C:5941H         LINE#         404
  C:5942H         LINE#         406
  C:5943H         LINE#         408
  C:5944H         LINE#         410
  C:5945H         LINE#         412
  C:5946H         LINE#         414
  C:5947H         LINE#         416
  C:5948H         LINE#         418
  C:5949H         LINE#         420
  C:594AH         LINE#         422
  C:594BH         LINE#         424
  C:594CH         LINE#         426
  C:594DH         LINE#         428
  C:594EH         LINE#         430
  C:594FH         LINE#         432
  C:5950H         LINE#         434
  C:5951H         LINE#         436
  C:5952H         LINE#         438
  C:5953H         LINE#         440
  C:5954H         LINE#         442
  C:5955H         LINE#         444
  C:5956H         LINE#         446
  C:5957H         LINE#         448
  C:5958H         LINE#         450
  C:5959H         LINE#         452
  C:595AH         LINE#         468
  C:595BH         LINE#         469
  C:595CH         LINE#         470
  C:595DH         LINE#         471
  C:595EH         LINE#         472
  C:5960H         LINE#         473
  C:5962H         LINE#         477
  C:5965H         LINE#         478
  C:5966H         LINE#         479
  C:5967H         LINE#         480
  C:5968H         LINE#         481
  C:5969H         LINE#         482
  C:596BH         LINE#         483
  C:596DH         LINE#         485
  C:596EH         LINE#         486
  C:596FH         LINE#         487
  C:5970H         LINE#         488
  C:5971H         LINE#         489
  C:5972H         LINE#         490
  C:5973H         LINE#         491
  C:5974H         LINE#         492
  C:5975H         LINE#         493
  C:5976H         LINE#         494
  C:5978H         LINE#         495
  C:5979H         LINE#         496
  C:597AH         LINE#         497
  C:597BH         LINE#         498
  C:597CH         LINE#         499
  C:597DH         LINE#         500
BL51 BANKED LINKER/LOCATER V6.05                                                      09/23/2016  17:07:17  PAGE 233


  C:597EH         LINE#         501
  C:597FH         LINE#         502
  C:5980H         LINE#         505
  C:5981H         LINE#         506
  C:5982H         LINE#         507
  C:5983H         LINE#         508
  C:5984H         LINE#         509
  C:5986H         LINE#         510
  C:5988H         LINE#         514
  C:598BH         LINE#         520
  C:598DH         LINE#         521
  C:598FH         LINE#         522
  C:5992H         LINE#         523
  C:5994H         LINE#         524
  C:5995H         LINE#         525
  C:5997H         LINE#         526
  C:5999H         LINE#         527
  C:599AH         LINE#         529
  C:599BH         LINE#         530
  C:599CH         LINE#         531
  C:599EH         LINE#         532
  C:59A0H         LINE#         534
  C:59A1H         LINE#         535
  C:59A2H         LINE#         536
  C:59A3H         LINE#         537
  C:59A4H         LINE#         538
  C:59A5H         LINE#         539
  C:59A6H         LINE#         540
  C:59A7H         LINE#         541
  C:59A8H         LINE#         542
  C:59A9H         LINE#         543
  C:59ABH         LINE#         544
  C:59ACH         LINE#         545
  C:59ADH         LINE#         547
  C:59B0H         LINE#         548
  C:59B2H         LINE#         549
  C:59B3H         LINE#         550
  C:59B4H         LINE#         551
  C:59B5H         LINE#         552
  C:59B6H         LINE#         554
  C:59B9H         LINE#         555
  C:59BBH         LINE#         556
  C:59BCH         LINE#         557
  C:5BBDH         LINE#         603
  C:5BC0H         LINE#         604
  C:5BC3H         LINE#         605
  C:5BC6H         LINE#         607
  C:5BC7H         LINE#         609
  C:5BCAH         LINE#         610
  C:5BCCH         LINE#         611
  C:5BCDH         LINE#         612
  C:5BCEH         LINE#         613
  C:5BCFH         LINE#         614
  C:5BD1H         LINE#         615
  C:5BD2H         LINE#         632
  C:5BD5H         LINE#         633
  C:5BD8H         LINE#         634
BL51 BANKED LINKER/LOCATER V6.05                                                      09/23/2016  17:07:17  PAGE 234


  C:5BDBH         LINE#         637
  C:5BDEH         LINE#         638
  C:5BE0H         LINE#         639
  C:5BE1H         LINE#         640
  C:5BE2H         LINE#         641
  C:5BE3H         LINE#         642
  C:5BE4H         LINE#         643
  C:5BE6H         LINE#         644
  C:5BE7H         LINE#         653
  C:5BEAH         LINE#         654
  C:5BEDH         LINE#         655
  C:5BF0H         LINE#         658
  C:5BF3H         LINE#         659
  C:5BF5H         LINE#         660
  C:5BF6H         LINE#         662
  C:5BF9H         LINE#         663
  C:5BFBH         LINE#         664
  C:5BFCH         LINE#         665
  C:5BFDH         LINE#         666
  C:5BFEH         LINE#         667
  C:5C00H         LINE#         668
  C:5C01H         LINE#         682
  C:5C04H         LINE#         683
  C:5C06H         LINE#         684
  C:5C07H         LINE#         685
  C:5C08H         LINE#         686
  C:5C09H         LINE#         688
  C:5C0BH         LINE#         690
  C:5C0CH         LINE#         691
  C:5C0DH         LINE#         692
  C:5C0EH         LINE#         693
  C:5C0FH         LINE#         694
  C:5C10H         LINE#         695
  C:5C12H         LINE#         697
  C:5C13H         LINE#         712
  C:5C16H         LINE#         720
  C:5C18H         LINE#         722
  C:5C19H         LINE#         723
  C:5C1AH         LINE#         724
  C:5C1BH         LINE#         725
  C:5C1CH         LINE#         726
  C:5C1DH         LINE#         728
  C:5C1FH         LINE#         730
  C:5C20H         LINE#         744
  C:5C23H         LINE#         745
  C:5C25H         LINE#         746
  C:5C26H         LINE#         747
  C:5C27H         LINE#         748
  C:5C28H         LINE#         750
  C:5C2AH         LINE#         752
  C:5C2BH         LINE#         753
  C:5C2CH         LINE#         755
  C:5C2EH         LINE#         756
  C:5C30H         LINE#         757
  C:5C33H         LINE#         758
  C:5C35H         LINE#         759
  C:5C36H         LINE#         760
BL51 BANKED LINKER/LOCATER V6.05                                                      09/23/2016  17:07:17  PAGE 235


  C:5C38H         LINE#         761
  C:5C3AH         LINE#         763
  C:5C3BH         LINE#         764
  C:5C3CH         LINE#         765
  C:5C3EH         LINE#         767
  C:5C3FH         LINE#         780
  C:5C41H         LINE#         782
  C:5C42H         LINE#         783
  C:5C43H         LINE#         785
  C:5C45H         LINE#         786
  C:5C47H         LINE#         787
  C:5C4AH         LINE#         788
  C:5C4CH         LINE#         789
  C:5C4DH         LINE#         790
  C:5C4FH         LINE#         791
  C:5C51H         LINE#         793
  C:5C52H         LINE#         794
  C:5C53H         LINE#         795
  C:5C55H         LINE#         797
  C:5C56H         LINE#         805
  C:5C58H         LINE#         806
  C:5C5AH         LINE#         809
  C:5C5CH         LINE#         812
  C:5C5EH         LINE#         813
  C:5C60H         LINE#         814
  C:5C62H         LINE#         815
  C:5C64H         LINE#         816
  C:5C66H         LINE#         817
  C:5C68H         LINE#         818
  C:5C6AH         LINE#         820
  C:5C6CH         LINE#         821
  C:5C6EH         LINE#         823
  C:5C70H         LINE#         824
  C:5C72H         LINE#         825
  C:5C74H         LINE#         827
  C:5C75H         LINE#         833
  C:5C77H         LINE#         834
  C:5C78H         LINE#         835
  C:5C7AH         LINE#         837
  C:5C7CH         LINE#         839
  C:5C7EH         LINE#         841
  C:5C80H         LINE#         842
  C:5C83H         LINE#         843
  C:5C85H         LINE#         845
  C:5C87H         LINE#         846
  C:5C88H         LINE#         847
  C:5C8AH         LINE#         848
  C:5C8BH         LINE#         861
  C:5C8EH         LINE#         862
  C:5C90H         LINE#         866
  C:5C93H         LINE#         867
  C:5C95H         LINE#         868
  C:5C96H         LINE#         870
  C:5C99H         LINE#         871
  C:5C9BH         LINE#         872
  C:5C9CH         LINE#         874
  C:5C9DH         LINE#         875
BL51 BANKED LINKER/LOCATER V6.05                                                      09/23/2016  17:07:17  PAGE 236


  C:5C9EH         LINE#         877
  C:5CA1H         LINE#         878
  C:5CA3H         LINE#         879
  C:5CA4H         LINE#         881
  C:5CA7H         LINE#         882
  C:5CA9H         LINE#         883
  C:5CAAH         LINE#         885
  C:5CABH         LINE#         886
  C:5CACH         LINE#         888
  C:5CAFH         LINE#         889
  C:5CB1H         LINE#         890
  C:5CB2H         LINE#         892
  C:5CB5H         LINE#         893
  C:5CB7H         LINE#         894
  C:5CB8H         LINE#         896
  C:5CB9H         LINE#         897
  C:5CBAH         LINE#         899
  C:5CBDH         LINE#         900
  C:5CBFH         LINE#         901
  C:5CC0H         LINE#         903
  C:5CC3H         LINE#         904
  C:5CC5H         LINE#         905
  C:5CC6H         LINE#         911
  C:5CC7H         LINE#         912
  C:5CC8H         LINE#         913
  C:5CC9H         LINE#         915
  C:5CCCH         LINE#         916
  C:5CCFH         LINE#         918
  C:5CD1H         LINE#         919
  C:5CD2H         LINE#         920
  C:5CD4H         LINE#         929
  C:5CD7H         LINE#         930
  C:5CD9H         LINE#         931
  C:5CDAH         LINE#         932
  C:5CDCH         LINE#         933
  C:5CDDH         LINE#         934
  C:5CDFH         LINE#         939
  C:5CE2H         LINE#         940
  C:5CE4H         LINE#         941
  C:5CE5H         LINE#         942
  C:5CE6H         LINE#         943
  C:5CE7H         LINE#         944
  C:5CE9H         LINE#         945
  C:5CEBH         LINE#         949
  C:5CEDH         LINE#         953
  C:5CEFH         LINE#         957
  C:5CF0H         LINE#         960
  C:5CF3H         LINE#         961
  C:5CF5H         LINE#         962
  C:5CF6H         LINE#         963
  C:5CF7H         LINE#         965
  C:5CF8H         LINE#         967
  C:5CFBH         LINE#         968
  C:5CFDH         LINE#         969
  C:5CFEH         LINE#         970
  C:5D00H         LINE#         972
  C:5D01H         LINE#         974
BL51 BANKED LINKER/LOCATER V6.05                                                      09/23/2016  17:07:17  PAGE 237


  C:5D04H         LINE#         975
  C:5D06H         LINE#         976
  C:5D07H         LINE#         977
  C:5D09H         LINE#         979
  C:5D0AH         LINE#         981
  C:5D0DH         LINE#         982
  C:5D0FH         LINE#         983
  C:5D10H         LINE#         984
  C:5D12H         LINE#         988
  C:5D13H         LINE#         1055
  C:5D16H         LINE#         1056
  C:5D18H         LINE#         1060
  C:5D1BH         LINE#         1061
  C:5D1DH         LINE#         1062
  C:5D1EH         LINE#         1064
  C:5D21H         LINE#         1065
  C:5D23H         LINE#         1066
  C:5D24H         LINE#         1068
  C:5D25H         LINE#         1069
  C:5D26H         LINE#         1071
  C:5D29H         LINE#         1072
  C:5D2BH         LINE#         1073
  C:5D2CH         LINE#         1075
  C:5D2FH         LINE#         1076
  C:5D31H         LINE#         1077
  C:5D32H         LINE#         1079
  C:5D33H         LINE#         1080
  C:5D34H         LINE#         1082
  C:5D37H         LINE#         1083
  C:5D39H         LINE#         1084
  C:5D3AH         LINE#         1086
  C:5D3DH         LINE#         1087
  C:5D3FH         LINE#         1088
  C:5D40H         LINE#         1090
  C:5D41H         LINE#         1091
  C:5D42H         LINE#         1093
  C:5D45H         LINE#         1094
  C:5D47H         LINE#         1095
  C:5D48H         LINE#         1097
  C:5D4BH         LINE#         1098
  C:5D4DH         LINE#         1099
  C:5D4EH         LINE#         1112
  C:5D51H         LINE#         1115
  C:5D53H         LINE#         1116
  C:5D54H         LINE#         1117
  C:5D56H         LINE#         1128
  C:5D57H         LINE#         1129
  C:5D59H         LINE#         1131
  C:5D5CH         LINE#         1132
  C:5D5EH         LINE#         1133
  C:5D5FH         LINE#         1134
  C:5D61H         LINE#         1140
  C:5D64H         LINE#         1141
  C:5D66H         LINE#         1142
  C:5D67H         LINE#         1143
  C:5D68H         LINE#         1144
  C:5D69H         LINE#         1145
BL51 BANKED LINKER/LOCATER V6.05                                                      09/23/2016  17:07:17  PAGE 238


  C:5D6BH         LINE#         1146
  C:5D6DH         LINE#         1148
  C:5D6FH         LINE#         1178
  C:5D72H         LINE#         1179
  C:5D74H         LINE#         1182
  C:5D77H         LINE#         1184
  C:5D78H         LINE#         1185
  C:5D7AH         LINE#         1188
  C:5D7DH         LINE#         1189
  C:5D7FH         LINE#         1190
  C:5D80H         LINE#         1193
  C:5D81H         LINE#         1194
  C:5D82H         LINE#         1196
  C:5D83H         LINE#         1198
  C:5D85H         LINE#         1200
  C:5D86H         LINE#         1233
  C:5D89H         LINE#         1235
  C:5D8AH         LINE#         1238
  C:5D8BH         LINE#         1239
  C:5D8CH         LINE#         1242
  C:5D8FH         LINE#         1243
  C:5D91H         LINE#         1244
  C:5D92H         LINE#         1245
  C:5D94H         LINE#         1246
  C:5D96H         LINE#         1247
  C:5D98H         LINE#         1249
  C:5D9BH         LINE#         1250
  C:5D9DH         LINE#         1251
  C:5D9EH         LINE#         1253
  C:5D9FH         LINE#         1256
  C:5DA2H         LINE#         1257
  C:5DA4H         LINE#         1258
  C:5DA5H         LINE#         1259
  C:5DA7H         LINE#         1260
  C:5DA9H         LINE#         1261
  C:5DABH         LINE#         1263
  C:5DAEH         LINE#         1264
  C:5DB0H         LINE#         1265
  C:5DB1H         LINE#         1268
  C:5DB2H         LINE#         1269
  C:5DB3H         LINE#         1271
  C:5DB6H         LINE#         1272
  C:5DB8H         LINE#         1273
  C:5DB9H         LINE#         1274
  C:5DBCH         LINE#         1275
  C:5DBEH         LINE#         1277
  C:5DBFH         LINE#         1279
  C:5DC2H         LINE#         1280
  C:5DC4H         LINE#         1281
  C:5DC5H         LINE#         1282
  C:5DC8H         LINE#         1283
  C:5DCAH         LINE#         1285
  C:5DCCH         LINE#         1288
  C:5DCDH         LINE#         1290
  C:5DD0H         LINE#         1291
  C:5DD2H         LINE#         1292
  C:5DD3H         LINE#         1293
BL51 BANKED LINKER/LOCATER V6.05                                                      09/23/2016  17:07:17  PAGE 239


  C:5DD4H         LINE#         1295
  C:5DD7H         LINE#         1296
  C:5DD9H         LINE#         1297
  C:5DDAH         LINE#         1300
  C:5DDBH         LINE#         1301
  C:5DDCH         LINE#         1303
  C:5DDFH         LINE#         1304
  C:5DE1H         LINE#         1305
  C:5DE2H         LINE#         1306
  C:5DE3H         LINE#         1308
  C:5DE6H         LINE#         1309
  C:5DE8H         LINE#         1310
  C:5DE9H         LINE#         1314
  C:5DEAH         LINE#         1317
  C:5DECH         LINE#         1318
  C:5DEFH         LINE#         1319
  C:5DF1H         LINE#         1320
  C:5DF4H         LINE#         1321
  C:5DF6H         LINE#         1322
  C:5DF9H         LINE#         1323
  C:5DFBH         LINE#         1324
  C:5DFEH         LINE#         1325
  C:5E00H         LINE#         1326
  C:5E03H         LINE#         1327
  C:5E05H         LINE#         1328
  C:5E08H         LINE#         1330
  C:5E0AH         LINE#         1331
  C:5E0DH         LINE#         1332
  C:5E10H         LINE#         1335
  C:5E12H         LINE#         1337
  -------         ENDMOD        LIB

  -------         MODULE        MFCARD
  C:7934H         SEGMENT       ?PR?MFCARD?MATER
  C:793DH         PUBLIC        _FUN_MF_CHANNEL
  C:7934H         PUBLIC        _FUN_MF_RC500AUTH
  C:793AH         PUBLIC        _FUN_MF_RC500DECREMENT
  C:7938H         PUBLIC        _FUN_MF_RC500READ
  C:793CH         PUBLIC        _FUN_MF_RC500RESTORE
  C:793BH         PUBLIC        _FUN_MF_RC500TRANSFER
  C:7939H         PUBLIC        _FUN_MF_RC500WRITE
  N:009CH         SYMBOL        BRT
  B:0020H.0       SYMBOL        BUSY
  N:00FAH         SYMBOL        CCAP0H
  N:00EAH         SYMBOL        CCAP0L
  N:00FBH         SYMBOL        CCAP1H
  N:00EBH         SYMBOL        CCAP1L
  N:00FCH         SYMBOL        CCAP2H
  N:00ECH         SYMBOL        CCAP2L
  N:00FDH         SYMBOL        CCAP3H
  N:00EDH         SYMBOL        CCAP3L
  N:00FEH         SYMBOL        CCAP4H
  N:00EEH         SYMBOL        CCAP4L
  N:00FFH         SYMBOL        CCAP5H
  N:00EFH         SYMBOL        CCAP5L
  N:00DAH         SYMBOL        CCAPM0
  N:00DBH         SYMBOL        CCAPM1
BL51 BANKED LINKER/LOCATER V6.05                                                      09/23/2016  17:07:17  PAGE 240


  N:00DCH         SYMBOL        CCAPM2
  N:00DDH         SYMBOL        CCAPM3
  N:00DEH         SYMBOL        CCAPM4
  N:00DFH         SYMBOL        CCAPM5
  B:00D8H.0       SYMBOL        CCF0
  B:00D8H.1       SYMBOL        CCF1
  B:00D8H.2       SYMBOL        CCF2
  B:00D8H.3       SYMBOL        CCF3
  B:00D8H.4       SYMBOL        CCF4
  B:00D8H.5       SYMBOL        CCF5
  N:00D8H         SYMBOL        CCON
  B:00D8H.7       SYMBOL        CF
  N:00F9H         SYMBOL        CH
  N:00E9H         SYMBOL        CL
  N:00D9H         SYMBOL        CMOD
  N:0002H         SYMBOL        CONST_ACTIONTYPE_GETRAND
  N:0000H         SYMBOL        CONST_ACTIONTYPE_GETSECURE
  N:0004H         SYMBOL        CONST_ACTIONTYPE_SETMMI
  N:0001H         SYMBOL        CONST_ACTIONTYPE_SETSECURE
  N:0003H         SYMBOL        CONST_ACTIONTYPE_TRANSFERCHANNEL
  N:0003H         SYMBOL        CONST_ACT_H
  N:0001H         SYMBOL        CONST_ACT_H_H
  N:0000H         SYMBOL        CONST_ACT_H_L
  N:0001H         SYMBOL        CONST_ACT_L
  N:0006H         SYMBOL        CONST_ACT_L_H
  N:000AH         SYMBOL        CONST_ACT_L_L
  N:0002H         SYMBOL        CONST_ACT_M
  N:0000H         SYMBOL        CONST_ACT_M_H
  N:0006H         SYMBOL        CONST_ACT_M_L
  N:0002H         SYMBOL        CONST_ACT_V
  N:0002H         SYMBOL        CONST_BAUD_115200
  N:0003H         SYMBOL        CONST_BAUD_115200PC
  N:0004H         SYMBOL        CONST_BAUD_230000
  N:0001H         SYMBOL        CONST_BAUD_38400
  N:0005H         SYMBOL        CONST_BAUD_38400PC
  N:0000H         SYMBOL        CONST_BAUD_9600
  N:0006H         SYMBOL        CONST_BAUD_9600PC
  N:000CH         SYMBOL        CONST_BAUD_BITFULL12
  N:000EH         SYMBOL        CONST_BAUD_BITFULL20
  N:0010H         SYMBOL        CONST_BAUD_BITFULL28
  N:000BH         SYMBOL        CONST_BAUD_BITFULL8
  N:000CH         SYMBOL        CONST_BAUD_BITHALF12
  N:00B3H         SYMBOL        CONST_BAUD_CURRENTBITFULL
  N:0058H         SYMBOL        CONST_BAUD_CURRENTBITHALF
  N:001DH         SYMBOL        CONST_BAUD_FULL115200
  N:000FH         SYMBOL        CONST_BAUD_FULL230000
  N:005DH         SYMBOL        CONST_BAUD_FULL38400
  N:00B3H         SYMBOL        CONST_BAUD_FULL9600
  N:000DH         SYMBOL        CONST_BAUD_HALF115200
  N:0008H         SYMBOL        CONST_BAUD_HALF230000
  N:002DH         SYMBOL        CONST_BAUD_HALF38400
  N:0058H         SYMBOL        CONST_BAUD_HALF9600
  N:00F8H         SYMBOL        CONST_BAUD_HAND115200
  N:00F3H         SYMBOL        CONST_BAUD_HAND115200PC
  N:00FCH         SYMBOL        CONST_BAUD_HAND230000
  N:00E9H         SYMBOL        CONST_BAUD_HAND38400
  N:00D8H         SYMBOL        CONST_BAUD_HAND38400PC
BL51 BANKED LINKER/LOCATER V6.05                                                      09/23/2016  17:07:17  PAGE 241


  N:00A3H         SYMBOL        CONST_BAUD_HAND9600
  N:0060H         SYMBOL        CONST_BAUD_HAND9600PC
  N:00FFH         SYMBOL        CONST_BLACK_H
  N:00FFH         SYMBOL        CONST_BLACK_L
  N:0014H         SYMBOL        CONST_BLUETOOTH_WORKTIME
  N:0020H         SYMBOL        CONST_BSTLIMIT
  N:0064H         SYMBOL        CONST_BSTLIMIT02
  N:0016H         SYMBOL        CONST_CARD_CONSUME
  N:0017H         SYMBOL        CONST_CARD_PASS
  N:0000H         SYMBOL        CONST_CELLFILE_H
  N:0009H         SYMBOL        CONST_CELLFILE_L
  N:0001H         SYMBOL        CONST_DPH_NORMAL
  N:0001H         SYMBOL        CONST_DPH_ONE
  N:0003H         SYMBOL        CONST_DPH_SERX
  N:0000H         SYMBOL        CONST_DPH_SETX
  N:0003H         SYMBOL        CONST_DPH_THREE
  N:0002H         SYMBOL        CONST_DPH_TWO
  N:0000H         SYMBOL        CONST_DPH_ZERO
  N:0007H         SYMBOL        CONST_DSRC_ACTION
  N:0009H         SYMBOL        CONST_DSRC_ACTIONTYPE
  N:0001H         SYMBOL        CONST_DSRC_CHANNELIDICC
  N:0002H         SYMBOL        CONST_DSRC_CHANNELIDSAM
  N:000AH         SYMBOL        CONST_DSRC_CONTAIN
  N:0008H         SYMBOL        CONST_DSRC_DID
  N:0000H         SYMBOL        CONST_DSRC_FILDIDAPPKEY
  N:0002H         SYMBOL        CONST_DSRC_FILDIDCONSUME
  N:0003H         SYMBOL        CONST_DSRC_FILDIDHOLD
  N:0001H         SYMBOL        CONST_DSRC_FILDIDVEHICLE
  N:000BH         SYMBOL        CONST_DSRC_FILL
  N:0006H         SYMBOL        CONST_DSRC_HEAD
  N:0005H         SYMBOL        CONST_DSRC_LLCCTRL
  N:0004H         SYMBOL        CONST_DSRC_MACCTRL
  N:0003H         SYMBOL        CONST_ETC_INPUT
  N:0002H         SYMBOL        CONST_FALSH_PREFLAG02H
  N:00F4H         SYMBOL        CONST_FALSH_PREFLAG02L
  N:0002H         SYMBOL        CONST_FALSH_PREFLAG03H
  N:00F5H         SYMBOL        CONST_FALSH_PREFLAG03L
  N:0002H         SYMBOL        CONST_FALSH_PREFLAG04H
  N:00F6H         SYMBOL        CONST_FALSH_PREFLAG04L
  N:0002H         SYMBOL        CONST_FALSH_PREFLAGH
  N:00F3H         SYMBOL        CONST_FALSH_PREFLAGL
  N:0001H         SYMBOL        CONST_FALSH_PREFLAGLEN
  N:0004H         SYMBOL        CONST_FLASHADD_BEACONIDUNIXTIMEH
  N:0000H         SYMBOL        CONST_FLASHADD_BEACONIDUNIXTIMEL
  N:0002H         SYMBOL        CONST_FLASH_0002H
  N:0058H         SYMBOL        CONST_FLASH_0002L
  N:0004H         SYMBOL        CONST_FLASH_0002LEN
  N:0002H         SYMBOL        CONST_FLASH_0012H
  N:005CH         SYMBOL        CONST_FLASH_0012L
  N:0028H         SYMBOL        CONST_FLASH_0012LEN
  N:0002H         SYMBOL        CONST_FLASH_0015H
  N:0084H         SYMBOL        CONST_FLASH_0015L
  N:0032H         SYMBOL        CONST_FLASH_0015LEN
  N:002BH         SYMBOL        CONST_FLASH_0015LENOLD
  N:002BH         SYMBOL        CONST_FLASH_0019GBLEN
  N:0002H         SYMBOL        CONST_FLASH_0019H
  N:00B6H         SYMBOL        CONST_FLASH_0019L
BL51 BANKED LINKER/LOCATER V6.05                                                      09/23/2016  17:07:17  PAGE 242


  N:003CH         SYMBOL        CONST_FLASH_0019LEN
  N:003FH         SYMBOL        CONST_FLASH_0019NEWGDLEN
  N:0004H         SYMBOL        CONST_FLASH_BEACONIDUNIXTIMEH
  N:0000H         SYMBOL        CONST_FLASH_BEACONIDUNIXTIMEL
  N:0008H         SYMBOL        CONST_FLASH_BEACONIDUNIXTIMELEN
  N:0002H         SYMBOL        CONST_FLASH_BLOCK01
  N:0001H         SYMBOL        CONST_FLASH_CARDTYPELEN
  N:00F3H         SYMBOL        CONST_FLASH_FILELEN
  N:0002H         SYMBOL        CONST_FLASH_LASTCARDH
  N:00F2H         SYMBOL        CONST_FLASH_LASTCARDL
  N:0002H         SYMBOL        CONST_FLASH_STARTHIGH
  N:0000H         SYMBOL        CONST_FLASH_STARTLOW
  N:0002H         SYMBOL        CONST_FLASH_SYSINFOH
  N:0000H         SYMBOL        CONST_FLASH_SYSINFOL
  N:0058H         SYMBOL        CONST_FLASH_SYSINFOLEN
  N:0002H         SYMBOL        CONST_GDO2_MCSM2
  N:0046H         SYMBOL        CONST_GDO2_VALUE
  N:00F0H         SYMBOL        CONST_GSM_MAXNUM
  N:0008H         SYMBOL        CONST_GSM_NUM
  N:0014H         SYMBOL        CONST_GSM_PJNUM
  N:0015H         SYMBOL        CONST_HANDSECOND
  N:0002H         SYMBOL        CONST_LHX_FLAG
  N:0005H         SYMBOL        CONST_MAX_RXNUM
  N:0008H         SYMBOL        CONST_MCU_WKCTH
  N:00FFH         SYMBOL        CONST_MCU_WKCTL
  N:0002H         SYMBOL        CONST_MF_DECREMENT
  N:0003H         SYMBOL        CONST_MF_INCREMENT
  N:00C0H         SYMBOL        CONST_MF_RC500DECREMENT
  N:00C1H         SYMBOL        CONST_MF_RC500INCREMENT
  N:0000H         SYMBOL        CONST_MF_READ
  N:0004H         SYMBOL        CONST_MF_RESTOR
  N:0001H         SYMBOL        CONST_MF_WRITE
  N:0001H         SYMBOL        CONST_MTC_INPUT
  N:0018H         SYMBOL        CONST_PPS_115200
  N:0096H         SYMBOL        CONST_PPS_230000
  N:0013H         SYMBOL        CONST_PPS_38400
  N:0010H         SYMBOL        CONST_PPS_9600
  N:0001H         SYMBOL        CONST_PRO_4SPEED
  N:00FAH         SYMBOL        CONST_PRO_OVERTIME2S
  N:0090H         SYMBOL        CONST_RTCOVERFLOW
  N:00FFH         SYMBOL        CONST_RTC_OFF
  N:0055H         SYMBOL        CONST_RTC_ON
  N:000AH         SYMBOL        CONST_SE_CHANNEL
  N:0000H         SYMBOL        CONST_SE_RXBUF
  N:0000H         SYMBOL        CONST_SE_TXBUF
  N:0000H         SYMBOL        CONST_SOF
  N:0014H         SYMBOL        CONST_SOFTBYTESP
  N:0010H         SYMBOL        CONST_SOFTFIRSTSCANTIME
  N:00FFH         SYMBOL        CONST_SOFTFIRSTSCANTIMEXX
  N:0070H         SYMBOL        CONST_SOFTSECOND
  N:000CH         SYMBOL        CONST_SSRC_FID
  N:0007H         SYMBOL        CONST_STATE_5823INIER
  N:0008H         SYMBOL        CONST_STATE_5823SLEEPER
  N:0003H         SYMBOL        CONST_STATE_ACCEPTOVER
  N:0004H         SYMBOL        CONST_STATE_ACCEPTOVERLEN
  N:0006H         SYMBOL        CONST_STATE_ACTCARDINVALID
  N:0004H         SYMBOL        CONST_STATE_ACTIVEFAIL
BL51 BANKED LINKER/LOCATER V6.05                                                      09/23/2016  17:07:17  PAGE 243


  N:0006H         SYMBOL        CONST_STATE_AUTHER
  N:001DH         SYMBOL        CONST_STATE_BASE01ANTICOLL
  N:0015H         SYMBOL        CONST_STATE_BASE01CONTACT
  N:0014H         SYMBOL        CONST_STATE_BASE01ESAMDF01
  N:001FH         SYMBOL        CONST_STATE_BASE01RATS
  N:001CH         SYMBOL        CONST_STATE_BASE01RE
  N:001EH         SYMBOL        CONST_STATE_BASE01SEL
  N:0019H         SYMBOL        CONST_STATE_BASE02ANTICOLL
  N:0016H         SYMBOL        CONST_STATE_BASE02CONTACT
  N:001BH         SYMBOL        CONST_STATE_BASE02RATS
  N:0018H         SYMBOL        CONST_STATE_BASE02RE
  N:001AH         SYMBOL        CONST_STATE_BASE02SEL
  N:000BH         SYMBOL        CONST_STATE_BASEESAMDF01
  N:0013H         SYMBOL        CONST_STATE_BASEN01INIT
  N:000AH         SYMBOL        CONST_STATE_BASENINIT
  N:000DH         SYMBOL        CONST_STATE_CARDPREDEAL0002
  N:000EH         SYMBOL        CONST_STATE_CARDPREDEAL0012
  N:000FH         SYMBOL        CONST_STATE_CARDPREDEAL0015
  N:0010H         SYMBOL        CONST_STATE_CARDPREDEAL0019
  N:000CH         SYMBOL        CONST_STATE_CARDPREDEAL1001
  N:0011H         SYMBOL        CONST_STATE_CARDPREDEAL3F00
  N:0012H         SYMBOL        CONST_STATE_CARDPREDEAL81
  N:0023H         SYMBOL        CONST_STATE_ESAMER
  N:0021H         SYMBOL        CONST_STATE_EXMEMORYER
  N:0022H         SYMBOL        CONST_STATE_EXMEMORYER02
  N:00FFH         SYMBOL        CONST_STATE_FALSE
  N:0009H         SYMBOL        CONST_STATE_GETSECURESELFILEER
  N:0005H         SYMBOL        CONST_STATE_ILLEGALACTCARD
  N:0002H         SYMBOL        CONST_STATE_ILLEGALINPUTCARD
  N:0003H         SYMBOL        CONST_STATE_INPUTCARDINVALID
  N:0001H         SYMBOL        CONST_STATE_INPUTFAIL
  N:0020H         SYMBOL        CONST_STATE_MEMORYER
  N:0005H         SYMBOL        CONST_STATE_RSTCPUER
  N:0001H         SYMBOL        CONST_STATE_SERIALACCPET
  N:0002H         SYMBOL        CONST_STATE_SERIALOVERTIME
  N:0017H         SYMBOL        CONST_STATE_TEST
  N:0000H         SYMBOL        CONST_STATE_TRUE
  N:0055H         SYMBOL        CONST_SYS_55
  N:00AAH         SYMBOL        CONST_SYS_AA
  N:0004H         SYMBOL        CONST_SYS_OBUIDLEN
  N:000AH         SYMBOL        CONST_SYS_POWERONTIMER
  N:0088H         SYMBOL        CONST_SYS_PREFLAG
  N:0064H         SYMBOL        CONST_SYS_RTCOVERTIME
  N:00FFH         SYMBOL        CONST_SYS_TRADECONFINE
  N:0001H         SYMBOL        CONST_TIMEER02
  N:00FEH         SYMBOL        CONST_TIMEER03
  N:0001H         SYMBOL        CONST_TIMEER04
  N:00FFH         SYMBOL        CONST_VSTLIMIT
  N:0000H         SYMBOL        CONST_WHITE_H
  N:0031H         SYMBOL        CONST_WHITE_L
  N:0000H         SYMBOL        CONST_WORKSTAION_0
  N:0001H         SYMBOL        CONST_WORKSTAION_1
  N:0002H         SYMBOL        CONST_WORKSTAION_2
  N:0003H         SYMBOL        CONST_WORKSTAION_3
  N:0000H         SYMBOL        CONST_XDATA_TXBUF02
  N:0080H         SYMBOL        CONST_XDATA_TXBUF02LEN
  B:00D8H.6       SYMBOL        CR
BL51 BANKED LINKER/LOCATER V6.05                                                      09/23/2016  17:07:17  PAGE 244


  D:0083H         SYMBOL        DPH
  D:0082H         SYMBOL        DPL
  B:00A8H.6       SYMBOL        EPCAI
  B:00A8H.6       SYMBOL        EPCA_LVD
  D:00A8H         SYMBOL        IE
  N:00AFH         SYMBOL        IE2
  N:00B7H         SYMBOL        IPH
  N:00C7H         SYMBOL        ISP_CONTR
  N:0000H         SYMBOL        MFCARD
  C:795CH         SYMBOL        MF_CHANNEL_AUTHERR
  C:795CH         SYMBOL        MF_CHANNEL_AUTHOK
  C:795CH         SYMBOL        MF_CHANNEL_DECREMENT
  C:795CH         SYMBOL        MF_CHANNEL_DECREMENTERR
  C:795CH         SYMBOL        MF_CHANNEL_DECREMENTOK
  C:795CH         SYMBOL        MF_CHANNEL_DECREMENTOVER
  C:795CH         SYMBOL        MF_CHANNEL_DECREMENTVERIFYEND
  C:795CH         SYMBOL        MF_CHANNEL_INCREMENT
  C:795CH         SYMBOL        MF_CHANNEL_INCREMENTERR
  C:795CH         SYMBOL        MF_CHANNEL_INCREMENTOK
  C:795CH         SYMBOL        MF_CHANNEL_INCREMENTOVER
  C:795CH         SYMBOL        MF_CHANNEL_NEEDAUTH01
  C:795CH         SYMBOL        MF_CHANNEL_NEEDAUTH02
  C:795CH         SYMBOL        MF_CHANNEL_NEEDAUTH03
  C:795CH         SYMBOL        MF_CHANNEL_NEEDAUTH04
  C:795CH         SYMBOL        MF_CHANNEL_OTHER
  C:795CH         SYMBOL        MF_CHANNEL_OTHEROVER
  C:795CH         SYMBOL        MF_CHANNEL_OVER
  C:795CH         SYMBOL        MF_CHANNEL_READ
  C:795CH         SYMBOL        MF_CHANNEL_READERR
  C:795CH         SYMBOL        MF_CHANNEL_READOK
  C:795CH         SYMBOL        MF_CHANNEL_READOVER
  C:795CH         SYMBOL        MF_CHANNEL_RESTORE
  C:795CH         SYMBOL        MF_CHANNEL_RESTOREERR
  C:795CH         SYMBOL        MF_CHANNEL_RESTOREOK
  C:795CH         SYMBOL        MF_CHANNEL_RESTOREOVER
  C:795CH         SYMBOL        MF_CHANNEL_WRITE
  C:795CH         SYMBOL        MF_CHANNEL_WRITEERR
  C:795CH         SYMBOL        MF_CHANNEL_WRITEOK
  C:795CH         SYMBOL        MF_CHANNEL_WRITEOVER
  D:0080H         SYMBOL        P0
  D:0090H         SYMBOL        P1
  D:00A0H         SYMBOL        P2
  D:00B0H         SYMBOL        P3
  N:00C0H         SYMBOL        P4
  N:00F2H         SYMBOL        PCA_PWM0
  N:00F3H         SYMBOL        PCA_PWM1
  N:00F4H         SYMBOL        PCA_PWM2
  N:00F5H         SYMBOL        PCA_PWM3
  N:00F6H         SYMBOL        PCA_PWM4
  N:00F7H         SYMBOL        PCA_PWM5
  B:0080H.4       SYMBOL        PIN_522_MISO
  B:0080H.5       SYMBOL        PIN_522_MOSI
  B:00C0H.6       SYMBOL        PIN_522_RST
  B:0080H.7       SYMBOL        PIN_522_SCLK
  B:0080H.6       SYMBOL        PIN_522_SS
  B:0090H.0       SYMBOL        PIN_5823BK_CS
  B:0090H.2       SYMBOL        PIN_5823BK_IRQ
BL51 BANKED LINKER/LOCATER V6.05                                                      09/23/2016  17:07:17  PAGE 245


  B:0080H.0       SYMBOL        PIN_5823BK_MISO
  B:0080H.1       SYMBOL        PIN_5823BK_MOSI
  B:00C0H.2       SYMBOL        PIN_5823BK_SCLK
  B:0080H.3       SYMBOL        PIN_BELL_01
  B:0080H.2       SYMBOL        PIN_BELL_02
  B:0090H.1       SYMBOL        PIN_BK_CE
  B:00B0H.3       SYMBOL        PIN_CARD_EXIST
  B:0090H.6       SYMBOL        PIN_CC1101_GDO2
  B:00B0H.7       SYMBOL        PIN_CC1101_MISO
  B:00A0H.3       SYMBOL        PIN_CC1101_MOSI
  B:00A0H.2       SYMBOL        PIN_CC1101_SCLK
  B:00B0H.6       SYMBOL        PIN_CC1101_SS
  B:00A0H.5       SYMBOL        PIN_ESAM_RST
  B:00A0H.6       SYMBOL        PIN_ESAM_RX
  B:00A0H.6       SYMBOL        PIN_ESAM_TX
  B:00C0H.5       SYMBOL        PIN_GRE
  B:0090H.4       SYMBOL        PIN_LCD_CS
  B:0090H.7       SYMBOL        PIN_LCD_DC
  B:0090H.5       SYMBOL        PIN_LCD_RST
  B:00B0H.4       SYMBOL        PIN_LCD_SCL
  B:00C0H.3       SYMBOL        PIN_LCD_SDA
  B:00A0H.7       SYMBOL        PIN_PWRDWN
  B:0090H.3       SYMBOL        PIN_PWRDWN_LCD
  B:00A0H.4       SYMBOL        PIN_PWR_GSM
  B:00A0H.1       SYMBOL        PIN_PWR_LOWIO
  B:00C0H.1       SYMBOL        PIN_RED
  B:00B0H.0       SYMBOL        PIN_SOFTSERIALRX
  B:00B0H.1       SYMBOL        PIN_SOFTSERIALTXH
  B:00B0H.5       SYMBOL        PIN_UNFIX
  B:00A0H.0       SYMBOL        PIN_WAVE_CHANNEL1
  N:00C0H         SYMBOL        READ_BURST
  N:00A2H         SYMBOL        REG_51_AUXR1
  N:008EH         SYMBOL        REG_5412AD_AUXR
  N:0094H         SYMBOL        REG_5412AD_P0M0
  N:0093H         SYMBOL        REG_5412AD_P0M1
  N:0092H         SYMBOL        REG_5412AD_P1M0
  N:0091H         SYMBOL        REG_5412AD_P1M1
  N:0096H         SYMBOL        REG_5412AD_P2M0
  N:0095H         SYMBOL        REG_5412AD_P2M1
  N:00B2H         SYMBOL        REG_5412AD_P3M0
  N:00B1H         SYMBOL        REG_5412AD_P3M1
  N:00B4H         SYMBOL        REG_5412AD_P4M0
  N:00B3H         SYMBOL        REG_5412AD_P4M1
  N:00BBH         SYMBOL        REG_5412AD_P4SW
  N:0085H         SYMBOL        REG_5412AD_SPCTL
  N:0086H         SYMBOL        REG_5412AD_SPDAT
  N:0084H         SYMBOL        REG_5412AD_SPSTAT
  N:00ABH         SYMBOL        REG_MCU_WKCTH
  N:00AAH         SYMBOL        REG_MCU_WKCTL
  N:000DH         SYMBOL        REG_RC522_BITFRAMINGREG
  N:000EH         SYMBOL        REG_RC522_COLLREG
  N:0002H         SYMBOL        REG_RC522_COMIENREG
  N:0004H         SYMBOL        REG_RC522_COMIRQREG
  N:0001H         SYMBOL        REG_RC522_COMMANDREG
  N:000CH         SYMBOL        REG_RC522_CONTROLREG
  N:0021H         SYMBOL        REG_RC522_CRCRESULTREGH
  N:0022H         SYMBOL        REG_RC522_CRCRESULTREGL
BL51 BANKED LINKER/LOCATER V6.05                                                      09/23/2016  17:07:17  PAGE 246


  N:0028H         SYMBOL        REG_RC522_CWGSPREG
  N:0019H         SYMBOL        REG_RC522_DEMODREG
  N:0003H         SYMBOL        REG_RC522_DIVIENREG
  N:0005H         SYMBOL        REG_RC522_DIVIRQREG
  N:0006H         SYMBOL        REG_RC522_ERRORREG
  N:0009H         SYMBOL        REG_RC522_FIFODATAREG
  N:000AH         SYMBOL        REG_RC522_FIFOLEVELREG
  N:0027H         SYMBOL        REG_RC522_GSNREG
  N:001CH         SYMBOL        REG_RC522_MIFAREREG
  N:0011H         SYMBOL        REG_RC522_MODEREG
  N:0029H         SYMBOL        REG_RC522_MODGSPREG
  N:0024H         SYMBOL        REG_RC522_MODWIDTHREG
  N:0000H         SYMBOL        REG_RC522_RC522PAGE
  N:0026H         SYMBOL        REG_RC522_RFCFGREG
  N:000FH         SYMBOL        REG_RC522_RFU
  N:0013H         SYMBOL        REG_RC522_RXMODEREG
  N:0017H         SYMBOL        REG_RC522_RXSELREG
  N:0018H         SYMBOL        REG_RC522_RXTHRESHOLDREG
  N:001FH         SYMBOL        REG_RC522_SERIALSPEEDREG
  N:0007H         SYMBOL        REG_RC522_STATUS1REG
  N:0008H         SYMBOL        REG_RC522_STATUS2REG
  N:002EH         SYMBOL        REG_RC522_TCOUNTERVALUEREGH
  N:002FH         SYMBOL        REG_RC522_TCOUNTERVALUEREGL
  N:002AH         SYMBOL        REG_RC522_TMODEREG
  N:002BH         SYMBOL        REG_RC522_TPRESCALERREG
  N:002CH         SYMBOL        REG_RC522_TRELOADREGH
  N:002DH         SYMBOL        REG_RC522_TRELOADREGL
  N:0015H         SYMBOL        REG_RC522_TXAUTOREG
  N:0014H         SYMBOL        REG_RC522_TXCONTROLREG
  N:0012H         SYMBOL        REG_RC522_TXMODEREG
  N:0016H         SYMBOL        REG_RC522_TXSELREG
  N:000BH         SYMBOL        REG_RC522_WATERLEVELREG
  N:009CH         SYMBOL        REG_SYS_BRT
  N:008FH         SYMBOL        REG_WAKECLK0
  B:00D8H.4       SYMBOL        REG_WAKECLK_04
  B:00D8H.5       SYMBOL        REG_WAKECLK_05
  N:00C1H         SYMBOL        REG_WDT_CONTR
  N:00EAH         SYMBOL        RELOAD2_CONTR
  N:009BH         SYMBOL        S2BUF
  N:009AH         SYMBOL        S2CON
  N:0009H         SYMBOL        TI_CCXXX0_ADDR
  N:001DH         SYMBOL        TI_CCXXX0_AGCCTRL0
  N:001CH         SYMBOL        TI_CCXXX0_AGCCTRL1
  N:001BH         SYMBOL        TI_CCXXX0_AGCCTRL2
  N:002BH         SYMBOL        TI_CCXXX0_AGCTEST
  N:001AH         SYMBOL        TI_CCXXX0_BSCFG
  N:000AH         SYMBOL        TI_CCXXX0_CHANNR
  N:0015H         SYMBOL        TI_CCXXX0_DEVIATN
  N:0003H         SYMBOL        TI_CCXXX0_FIFOTHR
  N:0019H         SYMBOL        TI_CCXXX0_FOCCFG
  N:0022H         SYMBOL        TI_CCXXX0_FREND0
  N:0021H         SYMBOL        TI_CCXXX0_FREND1
  N:000FH         SYMBOL        TI_CCXXX0_FREQ0
  N:000EH         SYMBOL        TI_CCXXX0_FREQ1
  N:000DH         SYMBOL        TI_CCXXX0_FREQ2
  N:0032H         SYMBOL        TI_CCXXX0_FREQEST
  N:0026H         SYMBOL        TI_CCXXX0_FSCAL0
BL51 BANKED LINKER/LOCATER V6.05                                                      09/23/2016  17:07:17  PAGE 247


  N:0025H         SYMBOL        TI_CCXXX0_FSCAL1
  N:0024H         SYMBOL        TI_CCXXX0_FSCAL2
  N:0023H         SYMBOL        TI_CCXXX0_FSCAL3
  N:000CH         SYMBOL        TI_CCXXX0_FSCTRL0
  N:000BH         SYMBOL        TI_CCXXX0_FSCTRL1
  N:0029H         SYMBOL        TI_CCXXX0_FSTEST
  N:0002H         SYMBOL        TI_CCXXX0_IOCFG0
  N:0001H         SYMBOL        TI_CCXXX0_IOCFG1
  N:0000H         SYMBOL        TI_CCXXX0_IOCFG2
  N:0033H         SYMBOL        TI_CCXXX0_LQI
  N:0035H         SYMBOL        TI_CCXXX0_MARCSTATE
  N:0018H         SYMBOL        TI_CCXXX0_MCSM0
  N:0017H         SYMBOL        TI_CCXXX0_MCSM1
  N:0016H         SYMBOL        TI_CCXXX0_MCSM2
  N:0014H         SYMBOL        TI_CCXXX0_MDMCFG0
  N:0013H         SYMBOL        TI_CCXXX0_MDMCFG1
  N:0012H         SYMBOL        TI_CCXXX0_MDMCFG2
  N:0011H         SYMBOL        TI_CCXXX0_MDMCFG3
  N:0010H         SYMBOL        TI_CCXXX0_MDMCFG4
  N:007FH         SYMBOL        TI_CCXXX0_NUM_RXBYTES
  N:0030H         SYMBOL        TI_CCXXX0_PARTNUM
  N:003EH         SYMBOL        TI_CCXXX0_PATABLE
  N:0008H         SYMBOL        TI_CCXXX0_PKTCTRL0
  N:0007H         SYMBOL        TI_CCXXX0_PKTCTRL1
  N:0006H         SYMBOL        TI_CCXXX0_PKTLEN
  N:0038H         SYMBOL        TI_CCXXX0_PKTSTATUS
  N:002AH         SYMBOL        TI_CCXXX0_PTEST
  N:0028H         SYMBOL        TI_CCXXX0_RCCTRL0
  N:0027H         SYMBOL        TI_CCXXX0_RCCTRL1
  N:0034H         SYMBOL        TI_CCXXX0_RSSI
  N:003BH         SYMBOL        TI_CCXXX0_RXBYTES
  N:003FH         SYMBOL        TI_CCXXX0_RXFIFO
  N:0037H         SYMBOL        TI_CCXXX0_SAFC
  N:0033H         SYMBOL        TI_CCXXX0_SCAL
  N:003AH         SYMBOL        TI_CCXXX0_SFRX
  N:003BH         SYMBOL        TI_CCXXX0_SFTX
  N:0036H         SYMBOL        TI_CCXXX0_SIDLE
  N:003DH         SYMBOL        TI_CCXXX0_SNOP
  N:0039H         SYMBOL        TI_CCXXX0_SPWD
  N:0030H         SYMBOL        TI_CCXXX0_SRES
  N:0034H         SYMBOL        TI_CCXXX0_SRX
  N:0035H         SYMBOL        TI_CCXXX0_STX
  N:0038H         SYMBOL        TI_CCXXX0_SWOR
  N:003CH         SYMBOL        TI_CCXXX0_SWORRST
  N:0032H         SYMBOL        TI_CCXXX0_SXOFF
  N:0005H         SYMBOL        TI_CCXXX0_SYNC0
  N:0004H         SYMBOL        TI_CCXXX0_SYNC1
  N:002EH         SYMBOL        TI_CCXXX0_TEST0
  N:002DH         SYMBOL        TI_CCXXX0_TEST1
  N:002CH         SYMBOL        TI_CCXXX0_TEST2
  N:003AH         SYMBOL        TI_CCXXX0_TXBYTES
  N:003FH         SYMBOL        TI_CCXXX0_TXFIFO
  N:0039H         SYMBOL        TI_CCXXX0_VCO_VC_DAC
  N:0031H         SYMBOL        TI_CCXXX0_VERSION
  N:0020H         SYMBOL        TI_CCXXX0_WORCTRL
  N:001FH         SYMBOL        TI_CCXXX0_WOREVT0
  N:001EH         SYMBOL        TI_CCXXX0_WOREVT1
BL51 BANKED LINKER/LOCATER V6.05                                                      09/23/2016  17:07:17  PAGE 248


  N:0037H         SYMBOL        TI_CCXXX0_WORTIME0
  N:0036H         SYMBOL        TI_CCXXX0_WORTIME1
  N:008FH         SYMBOL        WAKE_CLKO
  B:00B0H.2       SYMBOL        WKO_BK
  C:7935H         SYMBOL        _RC500AUTHERR
  C:7934H         LINE#         58
  C:7935H         LINE#         61
  C:7937H         LINE#         62
  C:7938H         LINE#         75
  C:7939H         LINE#         93
  C:793AH         LINE#         107
  C:793BH         LINE#         117
  C:793CH         LINE#         128
  C:793DH         LINE#         151
  C:793FH         LINE#         153
  C:7942H         LINE#         155
  C:7944H         LINE#         157
  C:7947H         LINE#         158
  C:7949H         LINE#         159
  C:794AH         LINE#         160
  C:794BH         LINE#         162
  C:794EH         LINE#         163
  C:7950H         LINE#         164
  C:7951H         LINE#         167
  C:7954H         LINE#         168
  C:7956H         LINE#         169
  C:7957H         LINE#         170
  C:7959H         LINE#         171
  C:795BH         LINE#         172
  C:795CH         LINE#         613
  -------         ENDMOD        MFCARD

  -------         MODULE        NCONTACT
  C:6B7EH         SEGMENT       ?PR?NCONTACT?MATER
  C:6D7AH         PUBLIC        _FUN_NCONTACT_RC500ANTICOLL
  C:6C29H         PUBLIC        _FUN_NCONTACT_RC500CONFIG
  C:6C6FH         PUBLIC        _FUN_NCONTACT_RC500REQUEST
  C:6B81H         PUBLIC        _FUN_NCONTACT_RC500RST
  C:6CDDH         PUBLIC        _FUN_NCONTACT_RC500RX
  C:6DB3H         PUBLIC        _FUN_NCONTACT_RC500SELECT
  C:6CB8H         PUBLIC        _FUN_NCONTACT_RC500TXANDRX
  C:6E16H         PUBLIC        _FUN_NCONTACT_RC500TXANDRX02
  C:6C0AH         PUBLIC        _FUN_NCONTACT_RC500_PPS_CONFIG
  C:6BB2H         PUBLIC        _FUN_NCONTACT_SPIO
  C:6CDDH         PUBLIC        _RC500TXANDRX1001
  D:00E0H         SYMBOL        ACC
  D:00F0H         SYMBOL        B
  N:009CH         SYMBOL        BRT
  B:0020H.0       SYMBOL        BUSY
  N:00FAH         SYMBOL        CCAP0H
  N:00EAH         SYMBOL        CCAP0L
  N:00FBH         SYMBOL        CCAP1H
  N:00EBH         SYMBOL        CCAP1L
  N:00FCH         SYMBOL        CCAP2H
  N:00ECH         SYMBOL        CCAP2L
  N:00FDH         SYMBOL        CCAP3H
  N:00EDH         SYMBOL        CCAP3L
BL51 BANKED LINKER/LOCATER V6.05                                                      09/23/2016  17:07:17  PAGE 249


  N:00FEH         SYMBOL        CCAP4H
  N:00EEH         SYMBOL        CCAP4L
  N:00FFH         SYMBOL        CCAP5H
  N:00EFH         SYMBOL        CCAP5L
  N:00DAH         SYMBOL        CCAPM0
  N:00DBH         SYMBOL        CCAPM1
  N:00DCH         SYMBOL        CCAPM2
  N:00DDH         SYMBOL        CCAPM3
  N:00DEH         SYMBOL        CCAPM4
  N:00DFH         SYMBOL        CCAPM5
  B:00D8H.0       SYMBOL        CCF0
  B:00D8H.1       SYMBOL        CCF1
  B:00D8H.2       SYMBOL        CCF2
  B:00D8H.3       SYMBOL        CCF3
  B:00D8H.4       SYMBOL        CCF4
  B:00D8H.5       SYMBOL        CCF5
  N:00D8H         SYMBOL        CCON
  B:00D8H.7       SYMBOL        CF
  N:00F9H         SYMBOL        CH
  N:00E9H         SYMBOL        CL
  N:00D9H         SYMBOL        CMOD
  N:0002H         SYMBOL        CONST_ACTIONTYPE_GETRAND
  N:0000H         SYMBOL        CONST_ACTIONTYPE_GETSECURE
  N:0004H         SYMBOL        CONST_ACTIONTYPE_SETMMI
  N:0001H         SYMBOL        CONST_ACTIONTYPE_SETSECURE
  N:0003H         SYMBOL        CONST_ACTIONTYPE_TRANSFERCHANNEL
  N:0003H         SYMBOL        CONST_ACT_H
  N:0001H         SYMBOL        CONST_ACT_H_H
  N:0000H         SYMBOL        CONST_ACT_H_L
  N:0001H         SYMBOL        CONST_ACT_L
  N:0006H         SYMBOL        CONST_ACT_L_H
  N:000AH         SYMBOL        CONST_ACT_L_L
  N:0002H         SYMBOL        CONST_ACT_M
  N:0000H         SYMBOL        CONST_ACT_M_H
  N:0006H         SYMBOL        CONST_ACT_M_L
  N:0002H         SYMBOL        CONST_ACT_V
  N:0002H         SYMBOL        CONST_BAUD_115200
  N:0003H         SYMBOL        CONST_BAUD_115200PC
  N:0004H         SYMBOL        CONST_BAUD_230000
  N:0001H         SYMBOL        CONST_BAUD_38400
  N:0005H         SYMBOL        CONST_BAUD_38400PC
  N:0000H         SYMBOL        CONST_BAUD_9600
  N:0006H         SYMBOL        CONST_BAUD_9600PC
  N:000CH         SYMBOL        CONST_BAUD_BITFULL12
  N:000EH         SYMBOL        CONST_BAUD_BITFULL20
  N:0010H         SYMBOL        CONST_BAUD_BITFULL28
  N:000BH         SYMBOL        CONST_BAUD_BITFULL8
  N:000CH         SYMBOL        CONST_BAUD_BITHALF12
  N:00B3H         SYMBOL        CONST_BAUD_CURRENTBITFULL
  N:0058H         SYMBOL        CONST_BAUD_CURRENTBITHALF
  N:001DH         SYMBOL        CONST_BAUD_FULL115200
  N:000FH         SYMBOL        CONST_BAUD_FULL230000
  N:005DH         SYMBOL        CONST_BAUD_FULL38400
  N:00B3H         SYMBOL        CONST_BAUD_FULL9600
  N:000DH         SYMBOL        CONST_BAUD_HALF115200
  N:0008H         SYMBOL        CONST_BAUD_HALF230000
  N:002DH         SYMBOL        CONST_BAUD_HALF38400
BL51 BANKED LINKER/LOCATER V6.05                                                      09/23/2016  17:07:17  PAGE 250


  N:0058H         SYMBOL        CONST_BAUD_HALF9600
  N:00F8H         SYMBOL        CONST_BAUD_HAND115200
  N:00F3H         SYMBOL        CONST_BAUD_HAND115200PC
  N:00FCH         SYMBOL        CONST_BAUD_HAND230000
  N:00E9H         SYMBOL        CONST_BAUD_HAND38400
  N:00D8H         SYMBOL        CONST_BAUD_HAND38400PC
  N:00A3H         SYMBOL        CONST_BAUD_HAND9600
  N:0060H         SYMBOL        CONST_BAUD_HAND9600PC
  N:00FFH         SYMBOL        CONST_BLACK_H
  N:00FFH         SYMBOL        CONST_BLACK_L
  N:0014H         SYMBOL        CONST_BLUETOOTH_WORKTIME
  N:0020H         SYMBOL        CONST_BSTLIMIT
  N:0064H         SYMBOL        CONST_BSTLIMIT02
  N:0016H         SYMBOL        CONST_CARD_CONSUME
  N:0017H         SYMBOL        CONST_CARD_PASS
  N:0000H         SYMBOL        CONST_CELLFILE_H
  N:0009H         SYMBOL        CONST_CELLFILE_L
  N:0001H         SYMBOL        CONST_DPH_NORMAL
  N:0001H         SYMBOL        CONST_DPH_ONE
  N:0003H         SYMBOL        CONST_DPH_SERX
  N:0000H         SYMBOL        CONST_DPH_SETX
  N:0003H         SYMBOL        CONST_DPH_THREE
  N:0002H         SYMBOL        CONST_DPH_TWO
  N:0000H         SYMBOL        CONST_DPH_ZERO
  N:0007H         SYMBOL        CONST_DSRC_ACTION
  N:0009H         SYMBOL        CONST_DSRC_ACTIONTYPE
  N:0001H         SYMBOL        CONST_DSRC_CHANNELIDICC
  N:0002H         SYMBOL        CONST_DSRC_CHANNELIDSAM
  N:000AH         SYMBOL        CONST_DSRC_CONTAIN
  N:0008H         SYMBOL        CONST_DSRC_DID
  N:0000H         SYMBOL        CONST_DSRC_FILDIDAPPKEY
  N:0002H         SYMBOL        CONST_DSRC_FILDIDCONSUME
  N:0003H         SYMBOL        CONST_DSRC_FILDIDHOLD
  N:0001H         SYMBOL        CONST_DSRC_FILDIDVEHICLE
  N:000BH         SYMBOL        CONST_DSRC_FILL
  N:0006H         SYMBOL        CONST_DSRC_HEAD
  N:0005H         SYMBOL        CONST_DSRC_LLCCTRL
  N:0004H         SYMBOL        CONST_DSRC_MACCTRL
  N:0003H         SYMBOL        CONST_ETC_INPUT
  N:0002H         SYMBOL        CONST_FALSH_PREFLAG02H
  N:00F4H         SYMBOL        CONST_FALSH_PREFLAG02L
  N:0002H         SYMBOL        CONST_FALSH_PREFLAG03H
  N:00F5H         SYMBOL        CONST_FALSH_PREFLAG03L
  N:0002H         SYMBOL        CONST_FALSH_PREFLAG04H
  N:00F6H         SYMBOL        CONST_FALSH_PREFLAG04L
  N:0002H         SYMBOL        CONST_FALSH_PREFLAGH
  N:00F3H         SYMBOL        CONST_FALSH_PREFLAGL
  N:0001H         SYMBOL        CONST_FALSH_PREFLAGLEN
  N:0004H         SYMBOL        CONST_FLASHADD_BEACONIDUNIXTIMEH
  N:0000H         SYMBOL        CONST_FLASHADD_BEACONIDUNIXTIMEL
  N:0002H         SYMBOL        CONST_FLASH_0002H
  N:0058H         SYMBOL        CONST_FLASH_0002L
  N:0004H         SYMBOL        CONST_FLASH_0002LEN
  N:0002H         SYMBOL        CONST_FLASH_0012H
  N:005CH         SYMBOL        CONST_FLASH_0012L
  N:0028H         SYMBOL        CONST_FLASH_0012LEN
  N:0002H         SYMBOL        CONST_FLASH_0015H
BL51 BANKED LINKER/LOCATER V6.05                                                      09/23/2016  17:07:17  PAGE 251


  N:0084H         SYMBOL        CONST_FLASH_0015L
  N:0032H         SYMBOL        CONST_FLASH_0015LEN
  N:002BH         SYMBOL        CONST_FLASH_0015LENOLD
  N:002BH         SYMBOL        CONST_FLASH_0019GBLEN
  N:0002H         SYMBOL        CONST_FLASH_0019H
  N:00B6H         SYMBOL        CONST_FLASH_0019L
  N:003CH         SYMBOL        CONST_FLASH_0019LEN
  N:003FH         SYMBOL        CONST_FLASH_0019NEWGDLEN
  N:0004H         SYMBOL        CONST_FLASH_BEACONIDUNIXTIMEH
  N:0000H         SYMBOL        CONST_FLASH_BEACONIDUNIXTIMEL
  N:0008H         SYMBOL        CONST_FLASH_BEACONIDUNIXTIMELEN
  N:0002H         SYMBOL        CONST_FLASH_BLOCK01
  N:0001H         SYMBOL        CONST_FLASH_CARDTYPELEN
  N:00F3H         SYMBOL        CONST_FLASH_FILELEN
  N:0002H         SYMBOL        CONST_FLASH_LASTCARDH
  N:00F2H         SYMBOL        CONST_FLASH_LASTCARDL
  N:0002H         SYMBOL        CONST_FLASH_STARTHIGH
  N:0000H         SYMBOL        CONST_FLASH_STARTLOW
  N:0002H         SYMBOL        CONST_FLASH_SYSINFOH
  N:0000H         SYMBOL        CONST_FLASH_SYSINFOL
  N:0058H         SYMBOL        CONST_FLASH_SYSINFOLEN
  N:0002H         SYMBOL        CONST_GDO2_MCSM2
  N:0046H         SYMBOL        CONST_GDO2_VALUE
  N:00F0H         SYMBOL        CONST_GSM_MAXNUM
  N:0008H         SYMBOL        CONST_GSM_NUM
  N:0014H         SYMBOL        CONST_GSM_PJNUM
  N:0015H         SYMBOL        CONST_HANDSECOND
  N:0002H         SYMBOL        CONST_LHX_FLAG
  N:0005H         SYMBOL        CONST_MAX_RXNUM
  N:0008H         SYMBOL        CONST_MCU_WKCTH
  N:00FFH         SYMBOL        CONST_MCU_WKCTL
  N:0002H         SYMBOL        CONST_MF_DECREMENT
  N:0003H         SYMBOL        CONST_MF_INCREMENT
  N:00C0H         SYMBOL        CONST_MF_RC500DECREMENT
  N:00C1H         SYMBOL        CONST_MF_RC500INCREMENT
  N:0000H         SYMBOL        CONST_MF_READ
  N:0004H         SYMBOL        CONST_MF_RESTOR
  N:0001H         SYMBOL        CONST_MF_WRITE
  N:0001H         SYMBOL        CONST_MTC_INPUT
  N:0018H         SYMBOL        CONST_PPS_115200
  N:0096H         SYMBOL        CONST_PPS_230000
  N:0013H         SYMBOL        CONST_PPS_38400
  N:0010H         SYMBOL        CONST_PPS_9600
  N:0001H         SYMBOL        CONST_PRO_4SPEED
  N:00FAH         SYMBOL        CONST_PRO_OVERTIME2S
  N:0090H         SYMBOL        CONST_RTCOVERFLOW
  N:00FFH         SYMBOL        CONST_RTC_OFF
  N:0055H         SYMBOL        CONST_RTC_ON
  N:000AH         SYMBOL        CONST_SE_CHANNEL
  N:0000H         SYMBOL        CONST_SE_RXBUF
  N:0000H         SYMBOL        CONST_SE_TXBUF
  N:0000H         SYMBOL        CONST_SOF
  N:0014H         SYMBOL        CONST_SOFTBYTESP
  N:0010H         SYMBOL        CONST_SOFTFIRSTSCANTIME
  N:00FFH         SYMBOL        CONST_SOFTFIRSTSCANTIMEXX
  N:0070H         SYMBOL        CONST_SOFTSECOND
  N:000CH         SYMBOL        CONST_SSRC_FID
BL51 BANKED LINKER/LOCATER V6.05                                                      09/23/2016  17:07:17  PAGE 252


  N:0007H         SYMBOL        CONST_STATE_5823INIER
  N:0008H         SYMBOL        CONST_STATE_5823SLEEPER
  N:0003H         SYMBOL        CONST_STATE_ACCEPTOVER
  N:0004H         SYMBOL        CONST_STATE_ACCEPTOVERLEN
  N:0006H         SYMBOL        CONST_STATE_ACTCARDINVALID
  N:0004H         SYMBOL        CONST_STATE_ACTIVEFAIL
  N:0006H         SYMBOL        CONST_STATE_AUTHER
  N:001DH         SYMBOL        CONST_STATE_BASE01ANTICOLL
  N:0015H         SYMBOL        CONST_STATE_BASE01CONTACT
  N:0014H         SYMBOL        CONST_STATE_BASE01ESAMDF01
  N:001FH         SYMBOL        CONST_STATE_BASE01RATS
  N:001CH         SYMBOL        CONST_STATE_BASE01RE
  N:001EH         SYMBOL        CONST_STATE_BASE01SEL
  N:0019H         SYMBOL        CONST_STATE_BASE02ANTICOLL
  N:0016H         SYMBOL        CONST_STATE_BASE02CONTACT
  N:001BH         SYMBOL        CONST_STATE_BASE02RATS
  N:0018H         SYMBOL        CONST_STATE_BASE02RE
  N:001AH         SYMBOL        CONST_STATE_BASE02SEL
  N:000BH         SYMBOL        CONST_STATE_BASEESAMDF01
  N:0013H         SYMBOL        CONST_STATE_BASEN01INIT
  N:000AH         SYMBOL        CONST_STATE_BASENINIT
  N:000DH         SYMBOL        CONST_STATE_CARDPREDEAL0002
  N:000EH         SYMBOL        CONST_STATE_CARDPREDEAL0012
  N:000FH         SYMBOL        CONST_STATE_CARDPREDEAL0015
  N:0010H         SYMBOL        CONST_STATE_CARDPREDEAL0019
  N:000CH         SYMBOL        CONST_STATE_CARDPREDEAL1001
  N:0011H         SYMBOL        CONST_STATE_CARDPREDEAL3F00
  N:0012H         SYMBOL        CONST_STATE_CARDPREDEAL81
  N:0023H         SYMBOL        CONST_STATE_ESAMER
  N:0021H         SYMBOL        CONST_STATE_EXMEMORYER
  N:0022H         SYMBOL        CONST_STATE_EXMEMORYER02
  N:00FFH         SYMBOL        CONST_STATE_FALSE
  N:0009H         SYMBOL        CONST_STATE_GETSECURESELFILEER
  N:0005H         SYMBOL        CONST_STATE_ILLEGALACTCARD
  N:0002H         SYMBOL        CONST_STATE_ILLEGALINPUTCARD
  N:0003H         SYMBOL        CONST_STATE_INPUTCARDINVALID
  N:0001H         SYMBOL        CONST_STATE_INPUTFAIL
  N:0020H         SYMBOL        CONST_STATE_MEMORYER
  N:0005H         SYMBOL        CONST_STATE_RSTCPUER
  N:0001H         SYMBOL        CONST_STATE_SERIALACCPET
  N:0002H         SYMBOL        CONST_STATE_SERIALOVERTIME
  N:0017H         SYMBOL        CONST_STATE_TEST
  N:0000H         SYMBOL        CONST_STATE_TRUE
  N:0055H         SYMBOL        CONST_SYS_55
  N:00AAH         SYMBOL        CONST_SYS_AA
  N:0004H         SYMBOL        CONST_SYS_OBUIDLEN
  N:000AH         SYMBOL        CONST_SYS_POWERONTIMER
  N:0088H         SYMBOL        CONST_SYS_PREFLAG
  N:0064H         SYMBOL        CONST_SYS_RTCOVERTIME
  N:00FFH         SYMBOL        CONST_SYS_TRADECONFINE
  N:0001H         SYMBOL        CONST_TIMEER02
  N:00FEH         SYMBOL        CONST_TIMEER03
  N:0001H         SYMBOL        CONST_TIMEER04
  N:00FFH         SYMBOL        CONST_VSTLIMIT
  N:0000H         SYMBOL        CONST_WHITE_H
  N:0031H         SYMBOL        CONST_WHITE_L
  N:0000H         SYMBOL        CONST_WORKSTAION_0
BL51 BANKED LINKER/LOCATER V6.05                                                      09/23/2016  17:07:17  PAGE 253


  N:0001H         SYMBOL        CONST_WORKSTAION_1
  N:0002H         SYMBOL        CONST_WORKSTAION_2
  N:0003H         SYMBOL        CONST_WORKSTAION_3
  N:0000H         SYMBOL        CONST_XDATA_TXBUF02
  N:0080H         SYMBOL        CONST_XDATA_TXBUF02LEN
  B:00D8H.6       SYMBOL        CR
  D:0083H         SYMBOL        DPH
  D:0082H         SYMBOL        DPL
  B:00A8H.6       SYMBOL        EPCAI
  B:00A8H.6       SYMBOL        EPCA_LVD
  D:00A8H         SYMBOL        IE
  N:00AFH         SYMBOL        IE2
  N:00B7H         SYMBOL        IPH
  N:00C7H         SYMBOL        ISP_CONTR
  N:0000H         SYMBOL        NCONTACT
  C:6CB0H         SYMBOL        NCONTACT_RC500REQUEST_CARD
  C:6CB2H         SYMBOL        NCONTACT_RC500REQUEST_CARDOV
  C:6CACH         SYMBOL        NCONTACT_RC500REQUEST_NOCARD
  C:6BD7H         SYMBOL        NCONTACT_SPIOSOFT_WRITEADDRLOOP
  C:6BF5H         SYMBOL        NCONTACT_SPIOSOFT_WRITEDALOOP
  D:0080H         SYMBOL        P0
  D:0090H         SYMBOL        P1
  D:00A0H         SYMBOL        P2
  D:00B0H         SYMBOL        P3
  N:00C0H         SYMBOL        P4
  N:00F2H         SYMBOL        PCA_PWM0
  N:00F3H         SYMBOL        PCA_PWM1
  N:00F4H         SYMBOL        PCA_PWM2
  N:00F5H         SYMBOL        PCA_PWM3
  N:00F6H         SYMBOL        PCA_PWM4
  N:00F7H         SYMBOL        PCA_PWM5
  B:0080H.4       SYMBOL        PIN_522_MISO
  B:0080H.5       SYMBOL        PIN_522_MOSI
  B:00C0H.6       SYMBOL        PIN_522_RST
  B:0080H.7       SYMBOL        PIN_522_SCLK
  B:0080H.6       SYMBOL        PIN_522_SS
  B:0090H.0       SYMBOL        PIN_5823BK_CS
  B:0090H.2       SYMBOL        PIN_5823BK_IRQ
  B:0080H.0       SYMBOL        PIN_5823BK_MISO
  B:0080H.1       SYMBOL        PIN_5823BK_MOSI
  B:00C0H.2       SYMBOL        PIN_5823BK_SCLK
  B:0080H.3       SYMBOL        PIN_BELL_01
  B:0080H.2       SYMBOL        PIN_BELL_02
  B:0090H.1       SYMBOL        PIN_BK_CE
  B:00B0H.3       SYMBOL        PIN_CARD_EXIST
  B:0090H.6       SYMBOL        PIN_CC1101_GDO2
  B:00B0H.7       SYMBOL        PIN_CC1101_MISO
  B:00A0H.3       SYMBOL        PIN_CC1101_MOSI
  B:00A0H.2       SYMBOL        PIN_CC1101_SCLK
  B:00B0H.6       SYMBOL        PIN_CC1101_SS
  B:00A0H.5       SYMBOL        PIN_ESAM_RST
  B:00A0H.6       SYMBOL        PIN_ESAM_RX
  B:00A0H.6       SYMBOL        PIN_ESAM_TX
  B:00C0H.5       SYMBOL        PIN_GRE
  B:0090H.4       SYMBOL        PIN_LCD_CS
  B:0090H.7       SYMBOL        PIN_LCD_DC
  B:0090H.5       SYMBOL        PIN_LCD_RST
BL51 BANKED LINKER/LOCATER V6.05                                                      09/23/2016  17:07:17  PAGE 254


  B:00B0H.4       SYMBOL        PIN_LCD_SCL
  B:00C0H.3       SYMBOL        PIN_LCD_SDA
  B:00A0H.7       SYMBOL        PIN_PWRDWN
  B:0090H.3       SYMBOL        PIN_PWRDWN_LCD
  B:00A0H.4       SYMBOL        PIN_PWR_GSM
  B:00A0H.1       SYMBOL        PIN_PWR_LOWIO
  B:00C0H.1       SYMBOL        PIN_RED
  B:00B0H.0       SYMBOL        PIN_SOFTSERIALRX
  B:00B0H.1       SYMBOL        PIN_SOFTSERIALTXH
  B:00B0H.5       SYMBOL        PIN_UNFIX
  B:00A0H.0       SYMBOL        PIN_WAVE_CHANNEL1
  C:6C28H         SYMBOL        RC500_PPS_CONFIG_OVER
  N:00C0H         SYMBOL        READ_BURST
  N:00A2H         SYMBOL        REG_51_AUXR1
  N:008EH         SYMBOL        REG_5412AD_AUXR
  N:0094H         SYMBOL        REG_5412AD_P0M0
  N:0093H         SYMBOL        REG_5412AD_P0M1
  N:0092H         SYMBOL        REG_5412AD_P1M0
  N:0091H         SYMBOL        REG_5412AD_P1M1
  N:0096H         SYMBOL        REG_5412AD_P2M0
  N:0095H         SYMBOL        REG_5412AD_P2M1
  N:00B2H         SYMBOL        REG_5412AD_P3M0
  N:00B1H         SYMBOL        REG_5412AD_P3M1
  N:00B4H         SYMBOL        REG_5412AD_P4M0
  N:00B3H         SYMBOL        REG_5412AD_P4M1
  N:00BBH         SYMBOL        REG_5412AD_P4SW
  N:0085H         SYMBOL        REG_5412AD_SPCTL
  N:0086H         SYMBOL        REG_5412AD_SPDAT
  N:0084H         SYMBOL        REG_5412AD_SPSTAT
  N:00ABH         SYMBOL        REG_MCU_WKCTH
  N:00AAH         SYMBOL        REG_MCU_WKCTL
  N:000DH         SYMBOL        REG_RC522_BITFRAMINGREG
  N:000EH         SYMBOL        REG_RC522_COLLREG
  N:0002H         SYMBOL        REG_RC522_COMIENREG
  N:0004H         SYMBOL        REG_RC522_COMIRQREG
  N:0001H         SYMBOL        REG_RC522_COMMANDREG
  N:000CH         SYMBOL        REG_RC522_CONTROLREG
  N:0021H         SYMBOL        REG_RC522_CRCRESULTREGH
  N:0022H         SYMBOL        REG_RC522_CRCRESULTREGL
  N:0028H         SYMBOL        REG_RC522_CWGSPREG
  N:0019H         SYMBOL        REG_RC522_DEMODREG
  N:0003H         SYMBOL        REG_RC522_DIVIENREG
  N:0005H         SYMBOL        REG_RC522_DIVIRQREG
  N:0006H         SYMBOL        REG_RC522_ERRORREG
  N:0009H         SYMBOL        REG_RC522_FIFODATAREG
  N:000AH         SYMBOL        REG_RC522_FIFOLEVELREG
  N:0027H         SYMBOL        REG_RC522_GSNREG
  N:001CH         SYMBOL        REG_RC522_MIFAREREG
  N:0011H         SYMBOL        REG_RC522_MODEREG
  N:0029H         SYMBOL        REG_RC522_MODGSPREG
  N:0024H         SYMBOL        REG_RC522_MODWIDTHREG
  N:0000H         SYMBOL        REG_RC522_RC522PAGE
  N:0026H         SYMBOL        REG_RC522_RFCFGREG
  N:000FH         SYMBOL        REG_RC522_RFU
  N:0013H         SYMBOL        REG_RC522_RXMODEREG
  N:0017H         SYMBOL        REG_RC522_RXSELREG
  N:0018H         SYMBOL        REG_RC522_RXTHRESHOLDREG
BL51 BANKED LINKER/LOCATER V6.05                                                      09/23/2016  17:07:17  PAGE 255


  N:001FH         SYMBOL        REG_RC522_SERIALSPEEDREG
  N:0007H         SYMBOL        REG_RC522_STATUS1REG
  N:0008H         SYMBOL        REG_RC522_STATUS2REG
  N:002EH         SYMBOL        REG_RC522_TCOUNTERVALUEREGH
  N:002FH         SYMBOL        REG_RC522_TCOUNTERVALUEREGL
  N:002AH         SYMBOL        REG_RC522_TMODEREG
  N:002BH         SYMBOL        REG_RC522_TPRESCALERREG
  N:002CH         SYMBOL        REG_RC522_TRELOADREGH
  N:002DH         SYMBOL        REG_RC522_TRELOADREGL
  N:0015H         SYMBOL        REG_RC522_TXAUTOREG
  N:0014H         SYMBOL        REG_RC522_TXCONTROLREG
  N:0012H         SYMBOL        REG_RC522_TXMODEREG
  N:0016H         SYMBOL        REG_RC522_TXSELREG
  N:000BH         SYMBOL        REG_RC522_WATERLEVELREG
  N:009CH         SYMBOL        REG_SYS_BRT
  N:008FH         SYMBOL        REG_WAKECLK0
  B:00D8H.4       SYMBOL        REG_WAKECLK_04
  B:00D8H.5       SYMBOL        REG_WAKECLK_05
  N:00C1H         SYMBOL        REG_WDT_CONTR
  N:00EAH         SYMBOL        RELOAD2_CONTR
  N:009BH         SYMBOL        S2BUF
  N:009AH         SYMBOL        S2CON
  N:0009H         SYMBOL        TI_CCXXX0_ADDR
  N:001DH         SYMBOL        TI_CCXXX0_AGCCTRL0
  N:001CH         SYMBOL        TI_CCXXX0_AGCCTRL1
  N:001BH         SYMBOL        TI_CCXXX0_AGCCTRL2
  N:002BH         SYMBOL        TI_CCXXX0_AGCTEST
  N:001AH         SYMBOL        TI_CCXXX0_BSCFG
  N:000AH         SYMBOL        TI_CCXXX0_CHANNR
  N:0015H         SYMBOL        TI_CCXXX0_DEVIATN
  N:0003H         SYMBOL        TI_CCXXX0_FIFOTHR
  N:0019H         SYMBOL        TI_CCXXX0_FOCCFG
  N:0022H         SYMBOL        TI_CCXXX0_FREND0
  N:0021H         SYMBOL        TI_CCXXX0_FREND1
  N:000FH         SYMBOL        TI_CCXXX0_FREQ0
  N:000EH         SYMBOL        TI_CCXXX0_FREQ1
  N:000DH         SYMBOL        TI_CCXXX0_FREQ2
  N:0032H         SYMBOL        TI_CCXXX0_FREQEST
  N:0026H         SYMBOL        TI_CCXXX0_FSCAL0
  N:0025H         SYMBOL        TI_CCXXX0_FSCAL1
  N:0024H         SYMBOL        TI_CCXXX0_FSCAL2
  N:0023H         SYMBOL        TI_CCXXX0_FSCAL3
  N:000CH         SYMBOL        TI_CCXXX0_FSCTRL0
  N:000BH         SYMBOL        TI_CCXXX0_FSCTRL1
  N:0029H         SYMBOL        TI_CCXXX0_FSTEST
  N:0002H         SYMBOL        TI_CCXXX0_IOCFG0
  N:0001H         SYMBOL        TI_CCXXX0_IOCFG1
  N:0000H         SYMBOL        TI_CCXXX0_IOCFG2
  N:0033H         SYMBOL        TI_CCXXX0_LQI
  N:0035H         SYMBOL        TI_CCXXX0_MARCSTATE
  N:0018H         SYMBOL        TI_CCXXX0_MCSM0
  N:0017H         SYMBOL        TI_CCXXX0_MCSM1
  N:0016H         SYMBOL        TI_CCXXX0_MCSM2
  N:0014H         SYMBOL        TI_CCXXX0_MDMCFG0
  N:0013H         SYMBOL        TI_CCXXX0_MDMCFG1
  N:0012H         SYMBOL        TI_CCXXX0_MDMCFG2
  N:0011H         SYMBOL        TI_CCXXX0_MDMCFG3
BL51 BANKED LINKER/LOCATER V6.05                                                      09/23/2016  17:07:17  PAGE 256


  N:0010H         SYMBOL        TI_CCXXX0_MDMCFG4
  N:007FH         SYMBOL        TI_CCXXX0_NUM_RXBYTES
  N:0030H         SYMBOL        TI_CCXXX0_PARTNUM
  N:003EH         SYMBOL        TI_CCXXX0_PATABLE
  N:0008H         SYMBOL        TI_CCXXX0_PKTCTRL0
  N:0007H         SYMBOL        TI_CCXXX0_PKTCTRL1
  N:0006H         SYMBOL        TI_CCXXX0_PKTLEN
  N:0038H         SYMBOL        TI_CCXXX0_PKTSTATUS
  N:002AH         SYMBOL        TI_CCXXX0_PTEST
  N:0028H         SYMBOL        TI_CCXXX0_RCCTRL0
  N:0027H         SYMBOL        TI_CCXXX0_RCCTRL1
  N:0034H         SYMBOL        TI_CCXXX0_RSSI
  N:003BH         SYMBOL        TI_CCXXX0_RXBYTES
  N:003FH         SYMBOL        TI_CCXXX0_RXFIFO
  N:0037H         SYMBOL        TI_CCXXX0_SAFC
  N:0033H         SYMBOL        TI_CCXXX0_SCAL
  N:003AH         SYMBOL        TI_CCXXX0_SFRX
  N:003BH         SYMBOL        TI_CCXXX0_SFTX
  N:0036H         SYMBOL        TI_CCXXX0_SIDLE
  N:003DH         SYMBOL        TI_CCXXX0_SNOP
  N:0039H         SYMBOL        TI_CCXXX0_SPWD
  N:0030H         SYMBOL        TI_CCXXX0_SRES
  N:0034H         SYMBOL        TI_CCXXX0_SRX
  N:0035H         SYMBOL        TI_CCXXX0_STX
  N:0038H         SYMBOL        TI_CCXXX0_SWOR
  N:003CH         SYMBOL        TI_CCXXX0_SWORRST
  N:0032H         SYMBOL        TI_CCXXX0_SXOFF
  N:0005H         SYMBOL        TI_CCXXX0_SYNC0
  N:0004H         SYMBOL        TI_CCXXX0_SYNC1
  N:002EH         SYMBOL        TI_CCXXX0_TEST0
  N:002DH         SYMBOL        TI_CCXXX0_TEST1
  N:002CH         SYMBOL        TI_CCXXX0_TEST2
  N:003AH         SYMBOL        TI_CCXXX0_TXBYTES
  N:003FH         SYMBOL        TI_CCXXX0_TXFIFO
  N:0039H         SYMBOL        TI_CCXXX0_VCO_VC_DAC
  N:0031H         SYMBOL        TI_CCXXX0_VERSION
  N:0020H         SYMBOL        TI_CCXXX0_WORCTRL
  N:001FH         SYMBOL        TI_CCXXX0_WOREVT0
  N:001EH         SYMBOL        TI_CCXXX0_WOREVT1
  N:0037H         SYMBOL        TI_CCXXX0_WORTIME0
  N:0036H         SYMBOL        TI_CCXXX0_WORTIME1
  N:008FH         SYMBOL        WAKE_CLKO
  B:00B0H.2       SYMBOL        WKO_BK
  C:6B7EH         SYMBOL        _FUN_NCONTACT_MATER
  C:6BCFH         SYMBOL        _FUN_NCONTACT_SPIOSOFT
  C:6DB2H         SYMBOL        _RC500ANTICOLL_B
  C:6DAAH         SYMBOL        _RC500ANTICOLL_B1
  C:6DE1H         SYMBOL        _RC500SELECT1
  C:6CDFH         SYMBOL        _RC500TXANDRX1
  C:6CEBH         SYMBOL        _RC500TXANDRX1B
  C:6D06H         SYMBOL        _RC500TXANDRX1B001
  C:6D29H         SYMBOL        _RC500TXANDRX2
  C:6D23H         SYMBOL        _RC500TXANDRX2_B
  C:6D4DH         SYMBOL        _RC500TXANDRX2_C
  C:6D38H         SYMBOL        _RC500TXANDRX2_E
  C:6D3EH         SYMBOL        _RC500TXANDRX2_E1
  C:6D4CH         SYMBOL        _RC500TXANDRX2_E2
BL51 BANKED LINKER/LOCATER V6.05                                                      09/23/2016  17:07:17  PAGE 257


  C:6D75H         SYMBOL        _RC500TXANDRX3
  C:6D4FH         SYMBOL        _RC500TXANDRX4
  C:6B7EH         LINE#         20
  C:6B80H         LINE#         21
  C:6B81H         LINE#         34
  C:6B84H         LINE#         35
  C:6B85H         LINE#         36
  C:6B87H         LINE#         37
  C:6B89H         LINE#         39
  C:6B8BH         LINE#         40
  C:6B8DH         LINE#         41
  C:6B8FH         LINE#         43
  C:6B91H         LINE#         44
  C:6B93H         LINE#         45
  C:6B96H         LINE#         46
  C:6B98H         LINE#         47
  C:6B9AH         LINE#         48
  C:6B9DH         LINE#         49
  C:6B9FH         LINE#         50
  C:6BA1H         LINE#         51
  C:6BA4H         LINE#         53
  C:6BA6H         LINE#         54
  C:6BA7H         LINE#         55
  C:6BA9H         LINE#         56
  C:6BACH         LINE#         57
  C:6BAEH         LINE#         58
  C:6BB1H         LINE#         59
  C:6BB2H         LINE#         74
  C:6BB4H         LINE#         76
  C:6BB6H         LINE#         77
  C:6BB7H         LINE#         78
  C:6BB8H         LINE#         80
  C:6BBAH         LINE#         83
  C:6BBCH         LINE#         84
  C:6BBFH         LINE#         87
  C:6BC2H         LINE#         89
  C:6BC4H         LINE#         92
  C:6BC6H         LINE#         93
  C:6BC9H         LINE#         96
  C:6BCCH         LINE#         98
  C:6BCEH         LINE#         100
  C:6BCFH         LINE#         114
  C:6BD1H         LINE#         116
  C:6BD3H         LINE#         117
  C:6BD4H         LINE#         118
  C:6BD5H         LINE#         121
  C:6BD7H         LINE#         123
  C:6BD9H         LINE#         124
  C:6BDAH         LINE#         125
  C:6BDCH         LINE#         126
  C:6BDEH         LINE#         127
  C:6BDFH         LINE#         128
  C:6BE1H         LINE#         130
  C:6BE2H         LINE#         131
  C:6BE3H         LINE#         132
  C:6BE4H         LINE#         133
  C:6BE5H         LINE#         134
BL51 BANKED LINKER/LOCATER V6.05                                                      09/23/2016  17:07:17  PAGE 258


  C:6BE6H         LINE#         135
  C:6BE7H         LINE#         136
  C:6BE8H         LINE#         137
  C:6BE9H         LINE#         138
  C:6BEAH         LINE#         139
  C:6BEBH         LINE#         140
  C:6BECH         LINE#         141
  C:6BEDH         LINE#         142
  C:6BEEH         LINE#         143
  C:6BEFH         LINE#         144
  C:6BF0H         LINE#         145
  C:6BF1H         LINE#         146
  C:6BF2H         LINE#         149
  C:6BF3H         LINE#         150
  C:6BF5H         LINE#         152
  C:6BF7H         LINE#         153
  C:6BF8H         LINE#         154
  C:6BFAH         LINE#         155
  C:6BFBH         LINE#         156
  C:6BFCH         LINE#         157
  C:6BFEH         LINE#         158
  C:6C00H         LINE#         159
  C:6C02H         LINE#         160
  C:6C03H         LINE#         162
  C:6C05H         LINE#         164
  C:6C07H         LINE#         165
  C:6C09H         LINE#         167
  C:6C0AH         LINE#         172
  C:6C0CH         LINE#         173
  C:6C0EH         LINE#         175
  C:6C10H         LINE#         176
  C:6C11H         LINE#         177
  C:6C13H         LINE#         178
  C:6C16H         LINE#         180
  C:6C18H         LINE#         181
  C:6C19H         LINE#         182
  C:6C1BH         LINE#         183
  C:6C1EH         LINE#         185
  C:6C20H         LINE#         186
  C:6C21H         LINE#         187
  C:6C23H         LINE#         188
  C:6C26H         LINE#         201
  C:6C28H         LINE#         205
  C:6C29H         LINE#         231
  C:6C2BH         LINE#         232
  C:6C2CH         LINE#         234
  C:6C2EH         LINE#         235
  C:6C31H         LINE#         237
  C:6C33H         LINE#         238
  C:6C34H         LINE#         239
  C:6C36H         LINE#         240
  C:6C39H         LINE#         242
  C:6C3BH         LINE#         244
  C:6C3CH         LINE#         245
  C:6C3EH         LINE#         246
  C:6C41H         LINE#         248
  C:6C43H         LINE#         249
BL51 BANKED LINKER/LOCATER V6.05                                                      09/23/2016  17:07:17  PAGE 259


  C:6C44H         LINE#         250
  C:6C46H         LINE#         251
  C:6C49H         LINE#         253
  C:6C4BH         LINE#         254
  C:6C4CH         LINE#         255
  C:6C4EH         LINE#         256
  C:6C51H         LINE#         258
  C:6C53H         LINE#         259
  C:6C54H         LINE#         260
  C:6C56H         LINE#         261
  C:6C59H         LINE#         263
  C:6C5BH         LINE#         264
  C:6C5CH         LINE#         265
  C:6C5EH         LINE#         266
  C:6C61H         LINE#         268
  C:6C63H         LINE#         269
  C:6C64H         LINE#         270
  C:6C66H         LINE#         271
  C:6C69H         LINE#         273
  C:6C6BH         LINE#         275
  C:6C6EH         LINE#         277
  C:6C6FH         LINE#         307
  C:6C71H         LINE#         308
  C:6C72H         LINE#         309
  C:6C74H         LINE#         310
  C:6C77H         LINE#         314
  C:6C79H         LINE#         315
  C:6C7BH         LINE#         316
  C:6C7CH         LINE#         319
  C:6C7EH         LINE#         320
  C:6C80H         LINE#         321
  C:6C82H         LINE#         323
  C:6C84H         LINE#         327
  C:6C86H         LINE#         328
  C:6C88H         LINE#         329
  C:6C89H         LINE#         330
  C:6C8BH         LINE#         331
  C:6C8EH         LINE#         332
  C:6C90H         LINE#         334
  C:6C92H         LINE#         335
  C:6C93H         LINE#         336
  C:6C96H         LINE#         338
  C:6C98H         LINE#         339
  C:6C99H         LINE#         340
  C:6C9BH         LINE#         341
  C:6C9DH         LINE#         342
  C:6CA0H         LINE#         344
  C:6CA2H         LINE#         345
  C:6CA3H         LINE#         346
  C:6CA5H         LINE#         347
  C:6CA6H         LINE#         348
  C:6CA9H         LINE#         350
  C:6CACH         LINE#         352
  C:6CAEH         LINE#         353
  C:6CB0H         LINE#         355
  C:6CB2H         LINE#         357
  C:6CB4H         LINE#         359
BL51 BANKED LINKER/LOCATER V6.05                                                      09/23/2016  17:07:17  PAGE 260


  C:6CB7H         LINE#         361
  C:6CB8H         LINE#         367
  C:6CBAH         LINE#         368
  C:6CBCH         LINE#         369
  C:6CBDH         LINE#         370
  C:6CBFH         LINE#         371
  C:6CC2H         LINE#         372
  C:6CC4H         LINE#         374
  C:6CC6H         LINE#         375
  C:6CC7H         LINE#         376
  C:6CCAH         LINE#         378
  C:6CCCH         LINE#         379
  C:6CCDH         LINE#         380
  C:6CCFH         LINE#         381
  C:6CD1H         LINE#         382
  C:6CD4H         LINE#         384
  C:6CD6H         LINE#         385
  C:6CD7H         LINE#         386
  C:6CD9H         LINE#         387
  C:6CDAH         LINE#         388
  C:6CDDH         LINE#         396
  C:6CDFH         LINE#         398
  C:6CE0H         LINE#         399
  C:6CE1H         LINE#         400
  C:6CE2H         LINE#         401
  C:6CE3H         LINE#         402
  C:6CE4H         LINE#         403
  C:6CE6H         LINE#         404
  C:6CE8H         LINE#         405
  C:6CEBH         LINE#         408
  C:6CEDH         LINE#         409
  C:6CEEH         LINE#         410
  C:6CF0H         LINE#         411
  C:6CF2H         LINE#         412
  C:6CF4H         LINE#         413
  C:6CF7H         LINE#         414
  C:6CF9H         LINE#         418
  C:6CFBH         LINE#         419
  C:6CFDH         LINE#         420
  C:6CFFH         LINE#         421
  C:6D01H         LINE#         422
  C:6D04H         LINE#         423
  C:6D06H         LINE#         438
  C:6D08H         LINE#         439
  C:6D09H         LINE#         440
  C:6D0BH         LINE#         441
  C:6D0DH         LINE#         442
  C:6D10H         LINE#         445
  C:6D12H         LINE#         446
  C:6D14H         LINE#         448
  C:6D16H         LINE#         449
  C:6D17H         LINE#         450
  C:6D19H         LINE#         451
  C:6D1BH         LINE#         452
  C:6D1EH         LINE#         457
  C:6D21H         LINE#         462
  C:6D22H         LINE#         464
BL51 BANKED LINKER/LOCATER V6.05                                                      09/23/2016  17:07:17  PAGE 261


  C:6D23H         LINE#         467
  C:6D25H         LINE#         469
  C:6D28H         LINE#         470
  C:6D29H         LINE#         472
  C:6D2BH         LINE#         473
  C:6D2CH         LINE#         474
  C:6D2EH         LINE#         475
  C:6D30H         LINE#         476
  C:6D33H         LINE#         479
  C:6D36H         LINE#         480
  C:6D38H         LINE#         484
  C:6D3BH         LINE#         485
  C:6D3CH         LINE#         486
  C:6D3EH         LINE#         489
  C:6D40H         LINE#         490
  C:6D42H         LINE#         491
  C:6D45H         LINE#         492
  C:6D47H         LINE#         493
  C:6D48H         LINE#         494
  C:6D4AH         LINE#         495
  C:6D4CH         LINE#         498
  C:6D4DH         LINE#         500
  C:6D4FH         LINE#         503
  C:6D51H         LINE#         504
  C:6D52H         LINE#         505
  C:6D54H         LINE#         506
  C:6D56H         LINE#         507
  C:6D59H         LINE#         510
  C:6D5BH         LINE#         511
  C:6D5CH         LINE#         512
  C:6D5EH         LINE#         513
  C:6D5FH         LINE#         514
  C:6D62H         LINE#         516
  C:6D64H         LINE#         517
  C:6D65H         LINE#         518
  C:6D67H         LINE#         519
  C:6D6AH         LINE#         521
  C:6D6CH         LINE#         522
  C:6D6DH         LINE#         523
  C:6D6FH         LINE#         524
  C:6D72H         LINE#         525
  C:6D74H         LINE#         526
  C:6D75H         LINE#         533
  C:6D77H         LINE#         534
  C:6D79H         LINE#         536
  C:6D7AH         LINE#         555
  C:6D7CH         LINE#         556
  C:6D7DH         LINE#         557
  C:6D7FH         LINE#         558
  C:6D82H         LINE#         560
  C:6D84H         LINE#         561
  C:6D85H         LINE#         562
  C:6D87H         LINE#         563
  C:6D8AH         LINE#         565
  C:6D8CH         LINE#         566
  C:6D8DH         LINE#         567
  C:6D8FH         LINE#         568
BL51 BANKED LINKER/LOCATER V6.05                                                      09/23/2016  17:07:17  PAGE 262


  C:6D92H         LINE#         571
  C:6D94H         LINE#         572
  C:6D96H         LINE#         573
  C:6D97H         LINE#         575
  C:6D99H         LINE#         576
  C:6D9BH         LINE#         577
  C:6D9DH         LINE#         578
  C:6D9FH         LINE#         579
  C:6DA2H         LINE#         581
  C:6DA5H         LINE#         582
  C:6DA7H         LINE#         583
  C:6DA9H         LINE#         584
  C:6DAAH         LINE#         587
  C:6DABH         LINE#         588
  C:6DACH         LINE#         589
  C:6DAEH         LINE#         590
  C:6DB0H         LINE#         591
  C:6DB2H         LINE#         594
  C:6DB3H         LINE#         629
  C:6DB5H         LINE#         630
  C:6DB6H         LINE#         631
  C:6DB8H         LINE#         632
  C:6DBBH         LINE#         634
  C:6DBDH         LINE#         635
  C:6DBEH         LINE#         636
  C:6DC0H         LINE#         637
  C:6DC3H         LINE#         639
  C:6DC5H         LINE#         640
  C:6DC6H         LINE#         641
  C:6DC8H         LINE#         642
  C:6DCBH         LINE#         644
  C:6DCDH         LINE#         645
  C:6DCEH         LINE#         646
  C:6DD0H         LINE#         647
  C:6DD3H         LINE#         649
  C:6DD5H         LINE#         650
  C:6DD6H         LINE#         651
  C:6DD8H         LINE#         652
  C:6DDBH         LINE#         654
  C:6DDDH         LINE#         655
  C:6DDFH         LINE#         656
  C:6DE1H         LINE#         659
  C:6DE2H         LINE#         660
  C:6DE3H         LINE#         661
  C:6DE5H         LINE#         662
  C:6DE7H         LINE#         663
  C:6DE8H         LINE#         664
  C:6DEBH         LINE#         665
  C:6DECH         LINE#         666
  C:6DEEH         LINE#         668
  C:6DEFH         LINE#         669
  C:6DF0H         LINE#         670
  C:6DF2H         LINE#         671
  C:6DF3H         LINE#         672
  C:6DF6H         LINE#         674
  C:6DF8H         LINE#         675
  C:6DF9H         LINE#         676
BL51 BANKED LINKER/LOCATER V6.05                                                      09/23/2016  17:07:17  PAGE 263


  C:6DFBH         LINE#         677
  C:6DFEH         LINE#         679
  C:6E00H         LINE#         680
  C:6E01H         LINE#         681
  C:6E03H         LINE#         682
  C:6E06H         LINE#         685
  C:6E08H         LINE#         686
  C:6E0AH         LINE#         687
  C:6E0CH         LINE#         688
  C:6E0EH         LINE#         689
  C:6E10H         LINE#         691
  C:6E12H         LINE#         692
  C:6E15H         LINE#         694
  C:6E16H         LINE#         705
  C:6E18H         LINE#         706
  C:6E1AH         LINE#         707
  C:6E1BH         LINE#         708
  C:6E1DH         LINE#         709
  C:6E20H         LINE#         710
  C:6E22H         LINE#         712
  C:6E24H         LINE#         713
  C:6E25H         LINE#         714
  C:6E28H         LINE#         716
  C:6E2AH         LINE#         717
  C:6E2BH         LINE#         718
  C:6E2DH         LINE#         719
  C:6E2FH         LINE#         720
  C:6E32H         LINE#         722
  C:6E34H         LINE#         723
  C:6E35H         LINE#         724
  C:6E37H         LINE#         725
  C:6E38H         LINE#         726
  C:6E3BH         LINE#         734
  -------         ENDMOD        NCONTACT

  -------         MODULE        PROCARD
  C:6E3CH         SEGMENT       ?PR?PROCARD?MATER
  C:705AH         PUBLIC        _FUN_PROCARD_CHANNEL
  C:6FE8H         PUBLIC        _FUN_PROCARD_RATS
  C:6E56H         PUBLIC        _FUN_PROCARD_RXPRO
  C:6F5DH         PUBLIC        _FUN_PROCARD_TXBYTE
  C:6F69H         PUBLIC        _FUN_PROCARD_TXPRO
  C:701BH         PUBLIC        _FUN_PRO_PPS
  D:00E0H         SYMBOL        ACC
  N:009CH         SYMBOL        BRT
  B:0020H.0       SYMBOL        BUSY
  N:00FAH         SYMBOL        CCAP0H
  N:00EAH         SYMBOL        CCAP0L
  N:00FBH         SYMBOL        CCAP1H
  N:00EBH         SYMBOL        CCAP1L
  N:00FCH         SYMBOL        CCAP2H
  N:00ECH         SYMBOL        CCAP2L
  N:00FDH         SYMBOL        CCAP3H
  N:00EDH         SYMBOL        CCAP3L
  N:00FEH         SYMBOL        CCAP4H
  N:00EEH         SYMBOL        CCAP4L
  N:00FFH         SYMBOL        CCAP5H
BL51 BANKED LINKER/LOCATER V6.05                                                      09/23/2016  17:07:17  PAGE 264


  N:00EFH         SYMBOL        CCAP5L
  N:00DAH         SYMBOL        CCAPM0
  N:00DBH         SYMBOL        CCAPM1
  N:00DCH         SYMBOL        CCAPM2
  N:00DDH         SYMBOL        CCAPM3
  N:00DEH         SYMBOL        CCAPM4
  N:00DFH         SYMBOL        CCAPM5
  B:00D8H.0       SYMBOL        CCF0
  B:00D8H.1       SYMBOL        CCF1
  B:00D8H.2       SYMBOL        CCF2
  B:00D8H.3       SYMBOL        CCF3
  B:00D8H.4       SYMBOL        CCF4
  B:00D8H.5       SYMBOL        CCF5
  N:00D8H         SYMBOL        CCON
  B:00D8H.7       SYMBOL        CF
  N:00F9H         SYMBOL        CH
  N:00E9H         SYMBOL        CL
  N:00D9H         SYMBOL        CMOD
  N:0002H         SYMBOL        CONST_ACTIONTYPE_GETRAND
  N:0000H         SYMBOL        CONST_ACTIONTYPE_GETSECURE
  N:0004H         SYMBOL        CONST_ACTIONTYPE_SETMMI
  N:0001H         SYMBOL        CONST_ACTIONTYPE_SETSECURE
  N:0003H         SYMBOL        CONST_ACTIONTYPE_TRANSFERCHANNEL
  N:0003H         SYMBOL        CONST_ACT_H
  N:0001H         SYMBOL        CONST_ACT_H_H
  N:0000H         SYMBOL        CONST_ACT_H_L
  N:0001H         SYMBOL        CONST_ACT_L
  N:0006H         SYMBOL        CONST_ACT_L_H
  N:000AH         SYMBOL        CONST_ACT_L_L
  N:0002H         SYMBOL        CONST_ACT_M
  N:0000H         SYMBOL        CONST_ACT_M_H
  N:0006H         SYMBOL        CONST_ACT_M_L
  N:0002H         SYMBOL        CONST_ACT_V
  N:0002H         SYMBOL        CONST_BAUD_115200
  N:0003H         SYMBOL        CONST_BAUD_115200PC
  N:0004H         SYMBOL        CONST_BAUD_230000
  N:0001H         SYMBOL        CONST_BAUD_38400
  N:0005H         SYMBOL        CONST_BAUD_38400PC
  N:0000H         SYMBOL        CONST_BAUD_9600
  N:0006H         SYMBOL        CONST_BAUD_9600PC
  N:000CH         SYMBOL        CONST_BAUD_BITFULL12
  N:000EH         SYMBOL        CONST_BAUD_BITFULL20
  N:0010H         SYMBOL        CONST_BAUD_BITFULL28
  N:000BH         SYMBOL        CONST_BAUD_BITFULL8
  N:000CH         SYMBOL        CONST_BAUD_BITHALF12
  N:00B3H         SYMBOL        CONST_BAUD_CURRENTBITFULL
  N:0058H         SYMBOL        CONST_BAUD_CURRENTBITHALF
  N:001DH         SYMBOL        CONST_BAUD_FULL115200
  N:000FH         SYMBOL        CONST_BAUD_FULL230000
  N:005DH         SYMBOL        CONST_BAUD_FULL38400
  N:00B3H         SYMBOL        CONST_BAUD_FULL9600
  N:000DH         SYMBOL        CONST_BAUD_HALF115200
  N:0008H         SYMBOL        CONST_BAUD_HALF230000
  N:002DH         SYMBOL        CONST_BAUD_HALF38400
  N:0058H         SYMBOL        CONST_BAUD_HALF9600
  N:00F8H         SYMBOL        CONST_BAUD_HAND115200
  N:00F3H         SYMBOL        CONST_BAUD_HAND115200PC
BL51 BANKED LINKER/LOCATER V6.05                                                      09/23/2016  17:07:17  PAGE 265


  N:00FCH         SYMBOL        CONST_BAUD_HAND230000
  N:00E9H         SYMBOL        CONST_BAUD_HAND38400
  N:00D8H         SYMBOL        CONST_BAUD_HAND38400PC
  N:00A3H         SYMBOL        CONST_BAUD_HAND9600
  N:0060H         SYMBOL        CONST_BAUD_HAND9600PC
  N:00FFH         SYMBOL        CONST_BLACK_H
  N:00FFH         SYMBOL        CONST_BLACK_L
  N:0014H         SYMBOL        CONST_BLUETOOTH_WORKTIME
  N:0020H         SYMBOL        CONST_BSTLIMIT
  N:0064H         SYMBOL        CONST_BSTLIMIT02
  N:0016H         SYMBOL        CONST_CARD_CONSUME
  N:0017H         SYMBOL        CONST_CARD_PASS
  N:0000H         SYMBOL        CONST_CELLFILE_H
  N:0009H         SYMBOL        CONST_CELLFILE_L
  N:0001H         SYMBOL        CONST_DPH_NORMAL
  N:0001H         SYMBOL        CONST_DPH_ONE
  N:0003H         SYMBOL        CONST_DPH_SERX
  N:0000H         SYMBOL        CONST_DPH_SETX
  N:0003H         SYMBOL        CONST_DPH_THREE
  N:0002H         SYMBOL        CONST_DPH_TWO
  N:0000H         SYMBOL        CONST_DPH_ZERO
  N:0007H         SYMBOL        CONST_DSRC_ACTION
  N:0009H         SYMBOL        CONST_DSRC_ACTIONTYPE
  N:0001H         SYMBOL        CONST_DSRC_CHANNELIDICC
  N:0002H         SYMBOL        CONST_DSRC_CHANNELIDSAM
  N:000AH         SYMBOL        CONST_DSRC_CONTAIN
  N:0008H         SYMBOL        CONST_DSRC_DID
  N:0000H         SYMBOL        CONST_DSRC_FILDIDAPPKEY
  N:0002H         SYMBOL        CONST_DSRC_FILDIDCONSUME
  N:0003H         SYMBOL        CONST_DSRC_FILDIDHOLD
  N:0001H         SYMBOL        CONST_DSRC_FILDIDVEHICLE
  N:000BH         SYMBOL        CONST_DSRC_FILL
  N:0006H         SYMBOL        CONST_DSRC_HEAD
  N:0005H         SYMBOL        CONST_DSRC_LLCCTRL
  N:0004H         SYMBOL        CONST_DSRC_MACCTRL
  N:0003H         SYMBOL        CONST_ETC_INPUT
  N:0002H         SYMBOL        CONST_FALSH_PREFLAG02H
  N:00F4H         SYMBOL        CONST_FALSH_PREFLAG02L
  N:0002H         SYMBOL        CONST_FALSH_PREFLAG03H
  N:00F5H         SYMBOL        CONST_FALSH_PREFLAG03L
  N:0002H         SYMBOL        CONST_FALSH_PREFLAG04H
  N:00F6H         SYMBOL        CONST_FALSH_PREFLAG04L
  N:0002H         SYMBOL        CONST_FALSH_PREFLAGH
  N:00F3H         SYMBOL        CONST_FALSH_PREFLAGL
  N:0001H         SYMBOL        CONST_FALSH_PREFLAGLEN
  N:0004H         SYMBOL        CONST_FLASHADD_BEACONIDUNIXTIMEH
  N:0000H         SYMBOL        CONST_FLASHADD_BEACONIDUNIXTIMEL
  N:0002H         SYMBOL        CONST_FLASH_0002H
  N:0058H         SYMBOL        CONST_FLASH_0002L
  N:0004H         SYMBOL        CONST_FLASH_0002LEN
  N:0002H         SYMBOL        CONST_FLASH_0012H
  N:005CH         SYMBOL        CONST_FLASH_0012L
  N:0028H         SYMBOL        CONST_FLASH_0012LEN
  N:0002H         SYMBOL        CONST_FLASH_0015H
  N:0084H         SYMBOL        CONST_FLASH_0015L
  N:0032H         SYMBOL        CONST_FLASH_0015LEN
  N:002BH         SYMBOL        CONST_FLASH_0015LENOLD
BL51 BANKED LINKER/LOCATER V6.05                                                      09/23/2016  17:07:17  PAGE 266


  N:002BH         SYMBOL        CONST_FLASH_0019GBLEN
  N:0002H         SYMBOL        CONST_FLASH_0019H
  N:00B6H         SYMBOL        CONST_FLASH_0019L
  N:003CH         SYMBOL        CONST_FLASH_0019LEN
  N:003FH         SYMBOL        CONST_FLASH_0019NEWGDLEN
  N:0004H         SYMBOL        CONST_FLASH_BEACONIDUNIXTIMEH
  N:0000H         SYMBOL        CONST_FLASH_BEACONIDUNIXTIMEL
  N:0008H         SYMBOL        CONST_FLASH_BEACONIDUNIXTIMELEN
  N:0002H         SYMBOL        CONST_FLASH_BLOCK01
  N:0001H         SYMBOL        CONST_FLASH_CARDTYPELEN
  N:00F3H         SYMBOL        CONST_FLASH_FILELEN
  N:0002H         SYMBOL        CONST_FLASH_LASTCARDH
  N:00F2H         SYMBOL        CONST_FLASH_LASTCARDL
  N:0002H         SYMBOL        CONST_FLASH_STARTHIGH
  N:0000H         SYMBOL        CONST_FLASH_STARTLOW
  N:0002H         SYMBOL        CONST_FLASH_SYSINFOH
  N:0000H         SYMBOL        CONST_FLASH_SYSINFOL
  N:0058H         SYMBOL        CONST_FLASH_SYSINFOLEN
  N:0002H         SYMBOL        CONST_GDO2_MCSM2
  N:0046H         SYMBOL        CONST_GDO2_VALUE
  N:00F0H         SYMBOL        CONST_GSM_MAXNUM
  N:0008H         SYMBOL        CONST_GSM_NUM
  N:0014H         SYMBOL        CONST_GSM_PJNUM
  N:0015H         SYMBOL        CONST_HANDSECOND
  N:0002H         SYMBOL        CONST_LHX_FLAG
  N:0005H         SYMBOL        CONST_MAX_RXNUM
  N:0008H         SYMBOL        CONST_MCU_WKCTH
  N:00FFH         SYMBOL        CONST_MCU_WKCTL
  N:0002H         SYMBOL        CONST_MF_DECREMENT
  N:0003H         SYMBOL        CONST_MF_INCREMENT
  N:00C0H         SYMBOL        CONST_MF_RC500DECREMENT
  N:00C1H         SYMBOL        CONST_MF_RC500INCREMENT
  N:0000H         SYMBOL        CONST_MF_READ
  N:0004H         SYMBOL        CONST_MF_RESTOR
  N:0001H         SYMBOL        CONST_MF_WRITE
  N:0001H         SYMBOL        CONST_MTC_INPUT
  N:0018H         SYMBOL        CONST_PPS_115200
  N:0096H         SYMBOL        CONST_PPS_230000
  N:0013H         SYMBOL        CONST_PPS_38400
  N:0010H         SYMBOL        CONST_PPS_9600
  N:0001H         SYMBOL        CONST_PRO_4SPEED
  N:00FAH         SYMBOL        CONST_PRO_OVERTIME2S
  N:0090H         SYMBOL        CONST_RTCOVERFLOW
  N:00FFH         SYMBOL        CONST_RTC_OFF
  N:0055H         SYMBOL        CONST_RTC_ON
  N:000AH         SYMBOL        CONST_SE_CHANNEL
  N:0000H         SYMBOL        CONST_SE_RXBUF
  N:0000H         SYMBOL        CONST_SE_TXBUF
  N:0000H         SYMBOL        CONST_SOF
  N:0014H         SYMBOL        CONST_SOFTBYTESP
  N:0010H         SYMBOL        CONST_SOFTFIRSTSCANTIME
  N:00FFH         SYMBOL        CONST_SOFTFIRSTSCANTIMEXX
  N:0070H         SYMBOL        CONST_SOFTSECOND
  N:000CH         SYMBOL        CONST_SSRC_FID
  N:0007H         SYMBOL        CONST_STATE_5823INIER
  N:0008H         SYMBOL        CONST_STATE_5823SLEEPER
  N:0003H         SYMBOL        CONST_STATE_ACCEPTOVER
BL51 BANKED LINKER/LOCATER V6.05                                                      09/23/2016  17:07:17  PAGE 267


  N:0004H         SYMBOL        CONST_STATE_ACCEPTOVERLEN
  N:0006H         SYMBOL        CONST_STATE_ACTCARDINVALID
  N:0004H         SYMBOL        CONST_STATE_ACTIVEFAIL
  N:0006H         SYMBOL        CONST_STATE_AUTHER
  N:001DH         SYMBOL        CONST_STATE_BASE01ANTICOLL
  N:0015H         SYMBOL        CONST_STATE_BASE01CONTACT
  N:0014H         SYMBOL        CONST_STATE_BASE01ESAMDF01
  N:001FH         SYMBOL        CONST_STATE_BASE01RATS
  N:001CH         SYMBOL        CONST_STATE_BASE01RE
  N:001EH         SYMBOL        CONST_STATE_BASE01SEL
  N:0019H         SYMBOL        CONST_STATE_BASE02ANTICOLL
  N:0016H         SYMBOL        CONST_STATE_BASE02CONTACT
  N:001BH         SYMBOL        CONST_STATE_BASE02RATS
  N:0018H         SYMBOL        CONST_STATE_BASE02RE
  N:001AH         SYMBOL        CONST_STATE_BASE02SEL
  N:000BH         SYMBOL        CONST_STATE_BASEESAMDF01
  N:0013H         SYMBOL        CONST_STATE_BASEN01INIT
  N:000AH         SYMBOL        CONST_STATE_BASENINIT
  N:000DH         SYMBOL        CONST_STATE_CARDPREDEAL0002
  N:000EH         SYMBOL        CONST_STATE_CARDPREDEAL0012
  N:000FH         SYMBOL        CONST_STATE_CARDPREDEAL0015
  N:0010H         SYMBOL        CONST_STATE_CARDPREDEAL0019
  N:000CH         SYMBOL        CONST_STATE_CARDPREDEAL1001
  N:0011H         SYMBOL        CONST_STATE_CARDPREDEAL3F00
  N:0012H         SYMBOL        CONST_STATE_CARDPREDEAL81
  N:0023H         SYMBOL        CONST_STATE_ESAMER
  N:0021H         SYMBOL        CONST_STATE_EXMEMORYER
  N:0022H         SYMBOL        CONST_STATE_EXMEMORYER02
  N:00FFH         SYMBOL        CONST_STATE_FALSE
  N:0009H         SYMBOL        CONST_STATE_GETSECURESELFILEER
  N:0005H         SYMBOL        CONST_STATE_ILLEGALACTCARD
  N:0002H         SYMBOL        CONST_STATE_ILLEGALINPUTCARD
  N:0003H         SYMBOL        CONST_STATE_INPUTCARDINVALID
  N:0001H         SYMBOL        CONST_STATE_INPUTFAIL
  N:0020H         SYMBOL        CONST_STATE_MEMORYER
  N:0005H         SYMBOL        CONST_STATE_RSTCPUER
  N:0001H         SYMBOL        CONST_STATE_SERIALACCPET
  N:0002H         SYMBOL        CONST_STATE_SERIALOVERTIME
  N:0017H         SYMBOL        CONST_STATE_TEST
  N:0000H         SYMBOL        CONST_STATE_TRUE
  N:0055H         SYMBOL        CONST_SYS_55
  N:00AAH         SYMBOL        CONST_SYS_AA
  N:0004H         SYMBOL        CONST_SYS_OBUIDLEN
  N:000AH         SYMBOL        CONST_SYS_POWERONTIMER
  N:0088H         SYMBOL        CONST_SYS_PREFLAG
  N:0064H         SYMBOL        CONST_SYS_RTCOVERTIME
  N:00FFH         SYMBOL        CONST_SYS_TRADECONFINE
  N:0001H         SYMBOL        CONST_TIMEER02
  N:00FEH         SYMBOL        CONST_TIMEER03
  N:0001H         SYMBOL        CONST_TIMEER04
  N:00FFH         SYMBOL        CONST_VSTLIMIT
  N:0000H         SYMBOL        CONST_WHITE_H
  N:0031H         SYMBOL        CONST_WHITE_L
  N:0000H         SYMBOL        CONST_WORKSTAION_0
  N:0001H         SYMBOL        CONST_WORKSTAION_1
  N:0002H         SYMBOL        CONST_WORKSTAION_2
  N:0003H         SYMBOL        CONST_WORKSTAION_3
BL51 BANKED LINKER/LOCATER V6.05                                                      09/23/2016  17:07:17  PAGE 268


  N:0000H         SYMBOL        CONST_XDATA_TXBUF02
  N:0080H         SYMBOL        CONST_XDATA_TXBUF02LEN
  B:00D8H.6       SYMBOL        CR
  D:0083H         SYMBOL        DPH
  D:0082H         SYMBOL        DPL
  B:00A8H.6       SYMBOL        EPCAI
  B:00A8H.6       SYMBOL        EPCA_LVD
  D:00A8H         SYMBOL        IE
  N:00AFH         SYMBOL        IE2
  N:00B7H         SYMBOL        IPH
  N:00C7H         SYMBOL        ISP_CONTR
  D:0080H         SYMBOL        P0
  D:0090H         SYMBOL        P1
  D:00A0H         SYMBOL        P2
  D:00B0H         SYMBOL        P3
  N:00C0H         SYMBOL        P4
  N:00F2H         SYMBOL        PCA_PWM0
  N:00F3H         SYMBOL        PCA_PWM1
  N:00F4H         SYMBOL        PCA_PWM2
  N:00F5H         SYMBOL        PCA_PWM3
  N:00F6H         SYMBOL        PCA_PWM4
  N:00F7H         SYMBOL        PCA_PWM5
  B:0080H.4       SYMBOL        PIN_522_MISO
  B:0080H.5       SYMBOL        PIN_522_MOSI
  B:00C0H.6       SYMBOL        PIN_522_RST
  B:0080H.7       SYMBOL        PIN_522_SCLK
  B:0080H.6       SYMBOL        PIN_522_SS
  B:0090H.0       SYMBOL        PIN_5823BK_CS
  B:0090H.2       SYMBOL        PIN_5823BK_IRQ
  B:0080H.0       SYMBOL        PIN_5823BK_MISO
  B:0080H.1       SYMBOL        PIN_5823BK_MOSI
  B:00C0H.2       SYMBOL        PIN_5823BK_SCLK
  B:0080H.3       SYMBOL        PIN_BELL_01
  B:0080H.2       SYMBOL        PIN_BELL_02
  B:0090H.1       SYMBOL        PIN_BK_CE
  B:00B0H.3       SYMBOL        PIN_CARD_EXIST
  B:0090H.6       SYMBOL        PIN_CC1101_GDO2
  B:00B0H.7       SYMBOL        PIN_CC1101_MISO
  B:00A0H.3       SYMBOL        PIN_CC1101_MOSI
  B:00A0H.2       SYMBOL        PIN_CC1101_SCLK
  B:00B0H.6       SYMBOL        PIN_CC1101_SS
  B:00A0H.5       SYMBOL        PIN_ESAM_RST
  B:00A0H.6       SYMBOL        PIN_ESAM_RX
  B:00A0H.6       SYMBOL        PIN_ESAM_TX
  B:00C0H.5       SYMBOL        PIN_GRE
  B:0090H.4       SYMBOL        PIN_LCD_CS
  B:0090H.7       SYMBOL        PIN_LCD_DC
  B:0090H.5       SYMBOL        PIN_LCD_RST
  B:00B0H.4       SYMBOL        PIN_LCD_SCL
  B:00C0H.3       SYMBOL        PIN_LCD_SDA
  B:00A0H.7       SYMBOL        PIN_PWRDWN
  B:0090H.3       SYMBOL        PIN_PWRDWN_LCD
  B:00A0H.4       SYMBOL        PIN_PWR_GSM
  B:00A0H.1       SYMBOL        PIN_PWR_LOWIO
  B:00C0H.1       SYMBOL        PIN_RED
  B:00B0H.0       SYMBOL        PIN_SOFTSERIALRX
  B:00B0H.1       SYMBOL        PIN_SOFTSERIALTXH
BL51 BANKED LINKER/LOCATER V6.05                                                      09/23/2016  17:07:17  PAGE 269


  B:00B0H.5       SYMBOL        PIN_UNFIX
  B:00A0H.0       SYMBOL        PIN_WAVE_CHANNEL1
  N:0000H         SYMBOL        PROCARD
  C:6F34H         SYMBOL        PROCARD_RXPRO_ERR
  C:6F11H         SYMBOL        PROCARD_RXPRO_FHFH
  C:6EC5H         SYMBOL        PROCARD_RXPRO_LOOP
  C:6F13H         SYMBOL        PROCARD_RXPRO_OVER
  C:6F33H         SYMBOL        PROCARD_RXPRO_RET
  C:6EB8H         SYMBOL        PROCARD_RXPRO_RXRESULT
  C:6EA8H         SYMBOL        PROCARD_RXPRO_RXRESULT_J
  C:6EBEH         SYMBOL        PROCARD_RXPRO_RXRESULT_J2
  C:6EC1H         SYMBOL        PROCARD_RXPRO_STARTLOOP
  C:6E6BH         SYMBOL        PROCARD_RXPRO_STARTRX
  C:6E63H         SYMBOL        PROCARD_RXPRO_STARTRX01
  C:6EADH         SYMBOL        PROCARD_RXPRO_STARTRX_J
  C:6E9CH         SYMBOL        PROCARD_RXPRO_STARTRX_J1
  C:6F82H         SYMBOL        PROCARD_TXPRO_LEN
  C:6F8DH         SYMBOL        PROCARD_TXPRO_LENLOOP
  C:6FCEH         SYMBOL        PROCARD_TXPRO_LENLOOP2
  C:6FC9H         SYMBOL        PROCARD_TXPRO_LENLOOP2ZZ
  C:6FE7H         SYMBOL        PROCARD_TXPRO_LENOVER
  C:6F8AH         SYMBOL        PROCARD_TXPRO_LENTX
  C:6FACH         SYMBOL        PROCARD_TXPRO_TXWAIT
  C:7059H         SYMBOL        PRO_PPS_OVER
  N:00C0H         SYMBOL        READ_BURST
  N:00A2H         SYMBOL        REG_51_AUXR1
  N:008EH         SYMBOL        REG_5412AD_AUXR
  N:0094H         SYMBOL        REG_5412AD_P0M0
  N:0093H         SYMBOL        REG_5412AD_P0M1
  N:0092H         SYMBOL        REG_5412AD_P1M0
  N:0091H         SYMBOL        REG_5412AD_P1M1
  N:0096H         SYMBOL        REG_5412AD_P2M0
  N:0095H         SYMBOL        REG_5412AD_P2M1
  N:00B2H         SYMBOL        REG_5412AD_P3M0
  N:00B1H         SYMBOL        REG_5412AD_P3M1
  N:00B4H         SYMBOL        REG_5412AD_P4M0
  N:00B3H         SYMBOL        REG_5412AD_P4M1
  N:00BBH         SYMBOL        REG_5412AD_P4SW
  N:0085H         SYMBOL        REG_5412AD_SPCTL
  N:0086H         SYMBOL        REG_5412AD_SPDAT
  N:0084H         SYMBOL        REG_5412AD_SPSTAT
  N:00ABH         SYMBOL        REG_MCU_WKCTH
  N:00AAH         SYMBOL        REG_MCU_WKCTL
  N:000DH         SYMBOL        REG_RC522_BITFRAMINGREG
  N:000EH         SYMBOL        REG_RC522_COLLREG
  N:0002H         SYMBOL        REG_RC522_COMIENREG
  N:0004H         SYMBOL        REG_RC522_COMIRQREG
  N:0001H         SYMBOL        REG_RC522_COMMANDREG
  N:000CH         SYMBOL        REG_RC522_CONTROLREG
  N:0021H         SYMBOL        REG_RC522_CRCRESULTREGH
  N:0022H         SYMBOL        REG_RC522_CRCRESULTREGL
  N:0028H         SYMBOL        REG_RC522_CWGSPREG
  N:0019H         SYMBOL        REG_RC522_DEMODREG
  N:0003H         SYMBOL        REG_RC522_DIVIENREG
  N:0005H         SYMBOL        REG_RC522_DIVIRQREG
  N:0006H         SYMBOL        REG_RC522_ERRORREG
  N:0009H         SYMBOL        REG_RC522_FIFODATAREG
BL51 BANKED LINKER/LOCATER V6.05                                                      09/23/2016  17:07:17  PAGE 270


  N:000AH         SYMBOL        REG_RC522_FIFOLEVELREG
  N:0027H         SYMBOL        REG_RC522_GSNREG
  N:001CH         SYMBOL        REG_RC522_MIFAREREG
  N:0011H         SYMBOL        REG_RC522_MODEREG
  N:0029H         SYMBOL        REG_RC522_MODGSPREG
  N:0024H         SYMBOL        REG_RC522_MODWIDTHREG
  N:0000H         SYMBOL        REG_RC522_RC522PAGE
  N:0026H         SYMBOL        REG_RC522_RFCFGREG
  N:000FH         SYMBOL        REG_RC522_RFU
  N:0013H         SYMBOL        REG_RC522_RXMODEREG
  N:0017H         SYMBOL        REG_RC522_RXSELREG
  N:0018H         SYMBOL        REG_RC522_RXTHRESHOLDREG
  N:001FH         SYMBOL        REG_RC522_SERIALSPEEDREG
  N:0007H         SYMBOL        REG_RC522_STATUS1REG
  N:0008H         SYMBOL        REG_RC522_STATUS2REG
  N:002EH         SYMBOL        REG_RC522_TCOUNTERVALUEREGH
  N:002FH         SYMBOL        REG_RC522_TCOUNTERVALUEREGL
  N:002AH         SYMBOL        REG_RC522_TMODEREG
  N:002BH         SYMBOL        REG_RC522_TPRESCALERREG
  N:002CH         SYMBOL        REG_RC522_TRELOADREGH
  N:002DH         SYMBOL        REG_RC522_TRELOADREGL
  N:0015H         SYMBOL        REG_RC522_TXAUTOREG
  N:0014H         SYMBOL        REG_RC522_TXCONTROLREG
  N:0012H         SYMBOL        REG_RC522_TXMODEREG
  N:0016H         SYMBOL        REG_RC522_TXSELREG
  N:000BH         SYMBOL        REG_RC522_WATERLEVELREG
  N:009CH         SYMBOL        REG_SYS_BRT
  N:008FH         SYMBOL        REG_WAKECLK0
  B:00D8H.4       SYMBOL        REG_WAKECLK_04
  B:00D8H.5       SYMBOL        REG_WAKECLK_05
  N:00C1H         SYMBOL        REG_WDT_CONTR
  N:00EAH         SYMBOL        RELOAD2_CONTR
  C:6ECBH         SYMBOL        RXPRO_LOOP_ADDRMOV
  C:6ECEH         SYMBOL        RXPRO_LOOP_ADDRMOVX
  C:6ED4H         SYMBOL        RXPRO_LOOP_ADDROVER
  N:009BH         SYMBOL        S2BUF
  N:009AH         SYMBOL        S2CON
  N:0009H         SYMBOL        TI_CCXXX0_ADDR
  N:001DH         SYMBOL        TI_CCXXX0_AGCCTRL0
  N:001CH         SYMBOL        TI_CCXXX0_AGCCTRL1
  N:001BH         SYMBOL        TI_CCXXX0_AGCCTRL2
  N:002BH         SYMBOL        TI_CCXXX0_AGCTEST
  N:001AH         SYMBOL        TI_CCXXX0_BSCFG
  N:000AH         SYMBOL        TI_CCXXX0_CHANNR
  N:0015H         SYMBOL        TI_CCXXX0_DEVIATN
  N:0003H         SYMBOL        TI_CCXXX0_FIFOTHR
  N:0019H         SYMBOL        TI_CCXXX0_FOCCFG
  N:0022H         SYMBOL        TI_CCXXX0_FREND0
  N:0021H         SYMBOL        TI_CCXXX0_FREND1
  N:000FH         SYMBOL        TI_CCXXX0_FREQ0
  N:000EH         SYMBOL        TI_CCXXX0_FREQ1
  N:000DH         SYMBOL        TI_CCXXX0_FREQ2
  N:0032H         SYMBOL        TI_CCXXX0_FREQEST
  N:0026H         SYMBOL        TI_CCXXX0_FSCAL0
  N:0025H         SYMBOL        TI_CCXXX0_FSCAL1
  N:0024H         SYMBOL        TI_CCXXX0_FSCAL2
  N:0023H         SYMBOL        TI_CCXXX0_FSCAL3
BL51 BANKED LINKER/LOCATER V6.05                                                      09/23/2016  17:07:17  PAGE 271


  N:000CH         SYMBOL        TI_CCXXX0_FSCTRL0
  N:000BH         SYMBOL        TI_CCXXX0_FSCTRL1
  N:0029H         SYMBOL        TI_CCXXX0_FSTEST
  N:0002H         SYMBOL        TI_CCXXX0_IOCFG0
  N:0001H         SYMBOL        TI_CCXXX0_IOCFG1
  N:0000H         SYMBOL        TI_CCXXX0_IOCFG2
  N:0033H         SYMBOL        TI_CCXXX0_LQI
  N:0035H         SYMBOL        TI_CCXXX0_MARCSTATE
  N:0018H         SYMBOL        TI_CCXXX0_MCSM0
  N:0017H         SYMBOL        TI_CCXXX0_MCSM1
  N:0016H         SYMBOL        TI_CCXXX0_MCSM2
  N:0014H         SYMBOL        TI_CCXXX0_MDMCFG0
  N:0013H         SYMBOL        TI_CCXXX0_MDMCFG1
  N:0012H         SYMBOL        TI_CCXXX0_MDMCFG2
  N:0011H         SYMBOL        TI_CCXXX0_MDMCFG3
  N:0010H         SYMBOL        TI_CCXXX0_MDMCFG4
  N:007FH         SYMBOL        TI_CCXXX0_NUM_RXBYTES
  N:0030H         SYMBOL        TI_CCXXX0_PARTNUM
  N:003EH         SYMBOL        TI_CCXXX0_PATABLE
  N:0008H         SYMBOL        TI_CCXXX0_PKTCTRL0
  N:0007H         SYMBOL        TI_CCXXX0_PKTCTRL1
  N:0006H         SYMBOL        TI_CCXXX0_PKTLEN
  N:0038H         SYMBOL        TI_CCXXX0_PKTSTATUS
  N:002AH         SYMBOL        TI_CCXXX0_PTEST
  N:0028H         SYMBOL        TI_CCXXX0_RCCTRL0
  N:0027H         SYMBOL        TI_CCXXX0_RCCTRL1
  N:0034H         SYMBOL        TI_CCXXX0_RSSI
  N:003BH         SYMBOL        TI_CCXXX0_RXBYTES
  N:003FH         SYMBOL        TI_CCXXX0_RXFIFO
  N:0037H         SYMBOL        TI_CCXXX0_SAFC
  N:0033H         SYMBOL        TI_CCXXX0_SCAL
  N:003AH         SYMBOL        TI_CCXXX0_SFRX
  N:003BH         SYMBOL        TI_CCXXX0_SFTX
  N:0036H         SYMBOL        TI_CCXXX0_SIDLE
  N:003DH         SYMBOL        TI_CCXXX0_SNOP
  N:0039H         SYMBOL        TI_CCXXX0_SPWD
  N:0030H         SYMBOL        TI_CCXXX0_SRES
  N:0034H         SYMBOL        TI_CCXXX0_SRX
  N:0035H         SYMBOL        TI_CCXXX0_STX
  N:0038H         SYMBOL        TI_CCXXX0_SWOR
  N:003CH         SYMBOL        TI_CCXXX0_SWORRST
  N:0032H         SYMBOL        TI_CCXXX0_SXOFF
  N:0005H         SYMBOL        TI_CCXXX0_SYNC0
  N:0004H         SYMBOL        TI_CCXXX0_SYNC1
  N:002EH         SYMBOL        TI_CCXXX0_TEST0
  N:002DH         SYMBOL        TI_CCXXX0_TEST1
  N:002CH         SYMBOL        TI_CCXXX0_TEST2
  N:003AH         SYMBOL        TI_CCXXX0_TXBYTES
  N:003FH         SYMBOL        TI_CCXXX0_TXFIFO
  N:0039H         SYMBOL        TI_CCXXX0_VCO_VC_DAC
  N:0031H         SYMBOL        TI_CCXXX0_VERSION
  N:0020H         SYMBOL        TI_CCXXX0_WORCTRL
  N:001FH         SYMBOL        TI_CCXXX0_WOREVT0
  N:001EH         SYMBOL        TI_CCXXX0_WOREVT1
  N:0037H         SYMBOL        TI_CCXXX0_WORTIME0
  N:0036H         SYMBOL        TI_CCXXX0_WORTIME1
  C:6F90H         SYMBOL        TXPRO_LOOP_ADDRMOV
BL51 BANKED LINKER/LOCATER V6.05                                                      09/23/2016  17:07:17  PAGE 272


  C:6FD1H         SYMBOL        TXPRO_LOOP_ADDRMOV2
  C:6F93H         SYMBOL        TXPRO_LOOP_ADDRMOVX
  C:6FD4H         SYMBOL        TXPRO_LOOP_ADDRMOVX2
  C:6F99H         SYMBOL        TXPRO_LOOP_ADDROVER
  C:6FDAH         SYMBOL        TXPRO_LOOP_ADDROVER2
  N:008FH         SYMBOL        WAKE_CLKO
  B:00B0H.2       SYMBOL        WKO_BK
  C:6F39H         SYMBOL        _FUN_PROCARD_CLRRESULT
  C:6E3CH         SYMBOL        _FUN_PROCARD_RXBYTE
  C:6E4BH         SYMBOL        _FUN_PROCARD_RXNUM
  C:6E59H         SYMBOL        _FUN_PROCARD_RXPRO_J
  C:700CH         SYMBOL        _RATS1
  C:700FH         SYMBOL        _RATS2
  C:7012H         SYMBOL        _RATS2_1
  C:7009H         SYMBOL        _RATSERR
  C:704BH         SYMBOL        _RAT_NCONTACT_PPS_S1
  C:704EH         SYMBOL        _RAT_NCONTACT_PPS_S2
  C:7051H         SYMBOL        _RAT_NCONTACT_PPS_S2_1
  C:7048H         SYMBOL        _RAT_NCONTACT_PPS_SERR
  C:6E3CH         LINE#         26
  C:6E3EH         LINE#         27
  C:6E40H         LINE#         28
  C:6E42H         LINE#         29
  C:6E43H         LINE#         30
  C:6E45H         LINE#         31
  C:6E48H         LINE#         33
  C:6E4AH         LINE#         34
  C:6E4BH         LINE#         38
  C:6E4DH         LINE#         39
  C:6E4FH         LINE#         40
  C:6E50H         LINE#         41
  C:6E52H         LINE#         42
  C:6E55H         LINE#         45
  C:6E56H         LINE#         60
  C:6E59H         LINE#         62
  C:6E5CH         LINE#         63
  C:6E5EH         LINE#         64
  C:6E61H         LINE#         65
  C:6E63H         LINE#         69
  C:6E64H         LINE#         70
  C:6E66H         LINE#         71
  C:6E68H         LINE#         72
  C:6E6BH         LINE#         75
  C:6E6CH         LINE#         76
  C:6E6EH         LINE#         77
  C:6E70H         LINE#         79
  C:6E73H         LINE#         80
  C:6E75H         LINE#         81
  C:6E77H         LINE#         83
  C:6E7AH         LINE#         84
  C:6E7DH         LINE#         86
  C:6E7FH         LINE#         87
  C:6E80H         LINE#         88
  C:6E82H         LINE#         89
  C:6E85H         LINE#         91
  C:6E87H         LINE#         92
  C:6E88H         LINE#         93
BL51 BANKED LINKER/LOCATER V6.05                                                      09/23/2016  17:07:17  PAGE 273


  C:6E8AH         LINE#         94
  C:6E8DH         LINE#         96
  C:6E8FH         LINE#         97
  C:6E90H         LINE#         98
  C:6E92H         LINE#         99
  C:6E95H         LINE#         101
  C:6E97H         LINE#         103
  C:6E9AH         LINE#         105
  C:6E9CH         LINE#         109
  C:6E9DH         LINE#         110
  C:6E9EH         LINE#         111
  C:6E9FH         LINE#         112
  C:6EA0H         LINE#         114
  C:6EA3H         LINE#         115
  C:6EA5H         LINE#         116
  C:6EA8H         LINE#         118
  C:6EABH         LINE#         119
  C:6EADH         LINE#         123
  C:6EAEH         LINE#         124
  C:6EAFH         LINE#         125
  C:6EB0H         LINE#         126
  C:6EB1H         LINE#         129
  C:6EB4H         LINE#         130
  C:6EB6H         LINE#         131
  C:6EB8H         LINE#         134
  C:6EBBH         LINE#         135
  C:6EBEH         LINE#         138
  C:6EC1H         LINE#         141
  C:6EC3H         LINE#         142
  C:6EC5H         LINE#         145
  C:6EC8H         LINE#         150
  C:6ECBH         LINE#         152
  C:6ECCH         LINE#         153
  C:6ECEH         LINE#         158
  C:6ED1H         LINE#         159
  C:6ED3H         LINE#         160
  C:6ED4H         LINE#         164
  C:6ED5H         LINE#         165
  C:6ED7H         LINE#         167
  C:6ED9H         LINE#         168
  C:6EDBH         LINE#         175
  C:6EDDH         LINE#         176
  C:6EDFH         LINE#         177
  C:6EE1H         LINE#         178
  C:6EE3H         LINE#         179
  C:6EE5H         LINE#         180
  C:6EE7H         LINE#         181
  C:6EE9H         LINE#         182
  C:6EEBH         LINE#         183
  C:6EEDH         LINE#         184
  C:6EEFH         LINE#         185
  C:6EF1H         LINE#         186
  C:6EF3H         LINE#         187
  C:6EF5H         LINE#         188
  C:6EF7H         LINE#         189
  C:6EF9H         LINE#         190
  C:6EFBH         LINE#         197
BL51 BANKED LINKER/LOCATER V6.05                                                      09/23/2016  17:07:17  PAGE 274


  C:6EFDH         LINE#         198
  C:6EFEH         LINE#         199
  C:6F00H         LINE#         200
  C:6F02H         LINE#         201
  C:6F05H         LINE#         203
  C:6F07H         LINE#         204
  C:6F08H         LINE#         205
  C:6F09H         LINE#         206
  C:6F0AH         LINE#         209
  C:6F0DH         LINE#         210
  C:6F0FH         LINE#         211
  C:6F11H         LINE#         214
  C:6F13H         LINE#         218
  C:6F16H         LINE#         219
  C:6F18H         LINE#         220
  C:6F1BH         LINE#         221
  C:6F1DH         LINE#         223
  C:6F20H         LINE#         225
  C:6F21H         LINE#         226
  C:6F22H         LINE#         227
  C:6F23H         LINE#         229
  C:6F24H         LINE#         230
  C:6F26H         LINE#         235
  C:6F29H         LINE#         236
  C:6F2BH         LINE#         237
  C:6F2CH         LINE#         238
  C:6F2DH         LINE#         239
  C:6F2EH         LINE#         242
  C:6F30H         LINE#         243
  C:6F31H         LINE#         246
  C:6F33H         LINE#         250
  C:6F34H         LINE#         253
  C:6F36H         LINE#         254
  C:6F38H         LINE#         255
  C:6F39H         LINE#         266
  C:6F3BH         LINE#         267
  C:6F3CH         LINE#         268
  C:6F3EH         LINE#         269
  C:6F40H         LINE#         270
  C:6F43H         LINE#         273
  C:6F45H         LINE#         274
  C:6F46H         LINE#         275
  C:6F48H         LINE#         276
  C:6F49H         LINE#         277
  C:6F4CH         LINE#         280
  C:6F4EH         LINE#         281
  C:6F4FH         LINE#         282
  C:6F51H         LINE#         283
  C:6F54H         LINE#         286
  C:6F56H         LINE#         287
  C:6F57H         LINE#         288
  C:6F59H         LINE#         289
  C:6F5CH         LINE#         290
  C:6F5DH         LINE#         301
  C:6F5FH         LINE#         302
  C:6F60H         LINE#         303
  C:6F62H         LINE#         304
BL51 BANKED LINKER/LOCATER V6.05                                                      09/23/2016  17:07:17  PAGE 275


  C:6F63H         LINE#         305
  C:6F66H         LINE#         306
  C:6F68H         LINE#         308
  C:6F69H         LINE#         327
  C:6F6BH         LINE#         328
  C:6F6DH         LINE#         329
  C:6F6FH         LINE#         330
  C:6F72H         LINE#         331
  C:6F74H         LINE#         332
  C:6F76H         LINE#         333
  C:6F79H         LINE#         335
  C:6F7CH         LINE#         336
  C:6F7EH         LINE#         337
  C:6F80H         LINE#         338
  C:6F82H         LINE#         341
  C:6F83H         LINE#         342
  C:6F85H         LINE#         343
  C:6F87H         LINE#         344
  C:6F88H         LINE#         345
  C:6F8AH         LINE#         349
  C:6F8DH         LINE#         352
  C:6F90H         LINE#         354
  C:6F91H         LINE#         355
  C:6F93H         LINE#         358
  C:6F96H         LINE#         359
  C:6F98H         LINE#         360
  C:6F99H         LINE#         363
  C:6F9CH         LINE#         364
  C:6F9DH         LINE#         365
  C:6F9FH         LINE#         367
  C:6FA2H         LINE#         368
  C:6FA4H         LINE#         370
  C:6FA7H         LINE#         373
  C:6FA8H         LINE#         374
  C:6FAAH         LINE#         375
  C:6FACH         LINE#         377
  C:6FAEH         LINE#         378
  C:6FB0H         LINE#         379
  C:6FB1H         LINE#         380
  C:6FB3H         LINE#         381
  C:6FB6H         LINE#         383
  C:6FB9H         LINE#         384
  C:6FBBH         LINE#         387
  C:6FBEH         LINE#         388
  C:6FC0H         LINE#         389
  C:6FC1H         LINE#         390
  C:6FC2H         LINE#         391
  C:6FC4H         LINE#         392
  C:6FC5H         LINE#         393
  C:6FC7H         LINE#         394
  C:6FC9H         LINE#         397
  C:6FCCH         LINE#         398
  C:6FCEH         LINE#         405
  C:6FD1H         LINE#         407
  C:6FD2H         LINE#         408
  C:6FD4H         LINE#         414
  C:6FD7H         LINE#         415
BL51 BANKED LINKER/LOCATER V6.05                                                      09/23/2016  17:07:17  PAGE 276


  C:6FD9H         LINE#         416
  C:6FDAH         LINE#         421
  C:6FDCH         LINE#         422
  C:6FDFH         LINE#         423
  C:6FE1H         LINE#         424
  C:6FE2H         LINE#         425
  C:6FE4H         LINE#         427
  C:6FE5H         LINE#         428
  C:6FE7H         LINE#         432
  C:6FE8H         LINE#         560
  C:6FEAH         LINE#         561
  C:6FEBH         LINE#         562
  C:6FEDH         LINE#         563
  C:6FF0H         LINE#         565
  C:6FF2H         LINE#         566
  C:6FF3H         LINE#         568
  C:6FF5H         LINE#         569
  C:6FF8H         LINE#         570
  C:6FFAH         LINE#         571
  C:6FFCH         LINE#         572
  C:6FFFH         LINE#         573
  C:7001H         LINE#         576
  C:7003H         LINE#         577
  C:7006H         LINE#         579
  C:7009H         LINE#         581
  C:700BH         LINE#         583
  C:700CH         LINE#         585
  C:700DH         LINE#         587
  C:700FH         LINE#         589
  C:7012H         LINE#         592
  C:7015H         LINE#         593
  C:7016H         LINE#         596
  C:7018H         LINE#         597
  C:701AH         LINE#         599
  C:701BH         LINE#         604
  C:701DH         LINE#         605
  C:701FH         LINE#         608
  C:7021H         LINE#         609
  C:7022H         LINE#         610
  C:7024H         LINE#         611
  C:7027H         LINE#         613
  C:7029H         LINE#         614
  C:702AH         LINE#         616
  C:702CH         LINE#         617
  C:702FH         LINE#         619
  C:7031H         LINE#         620
  C:7032H         LINE#         622
  C:7034H         LINE#         623
  C:7037H         LINE#         625
  C:7039H         LINE#         626
  C:703BH         LINE#         627
  C:703EH         LINE#         628
  C:7040H         LINE#         629
  C:7042H         LINE#         630
  C:7045H         LINE#         632
  C:7048H         LINE#         634
  C:704AH         LINE#         635
BL51 BANKED LINKER/LOCATER V6.05                                                      09/23/2016  17:07:17  PAGE 277


  C:704BH         LINE#         638
  C:704CH         LINE#         640
  C:704EH         LINE#         642
  C:7051H         LINE#         645
  C:7054H         LINE#         646
  C:7055H         LINE#         647
  C:7057H         LINE#         648
  C:7059H         LINE#         652
  C:705AH         LINE#         670
  C:705CH         LINE#         671
  C:705EH         LINE#         672
  C:7060H         LINE#         673
  C:7063H         LINE#         674
  C:7065H         LINE#         675
  C:7067H         LINE#         677
  C:7069H         LINE#         678
  C:706CH         LINE#         679
  C:706FH         LINE#         685
  -------         ENDMOD        PROCARD

  -------         MODULE        SERIAL
  C:5E13H         SEGMENT       ?PR?SERIAL?MATER
  C:61F3H         PUBLIC        _FUN_SERIAL_AUDIOTXSOFT
  C:5E13H         PUBLIC        _FUN_SERIAL_INIT
  C:60DBH         PUBLIC        _FUN_SERIAL_RXHARD
  C:6172H         PUBLIC        _FUN_SERIAL_RXHARD02
  C:623FH         PUBLIC        _FUN_SERIAL_RXHARD03
  C:6148H         PUBLIC        _FUN_SERIAL_RXHBYTE
  C:5F5DH         PUBLIC        _FUN_SERIAL_RXSBYTE
  C:6000H         PUBLIC        _FUN_SERIAL_RXSOFT
  C:62ADH         PUBLIC        _FUN_SERIAL_RXSOFTRST
  C:6073H         PUBLIC        _FUN_SERIAL_RXTXINTERRUPT
  C:6074H         PUBLIC        _FUN_SERIAL_TXHARD
  C:60A1H         PUBLIC        _FUN_SERIAL_TXHARD02
  C:5F18H         PUBLIC        _FUN_SERIAL_TXSOFT
  C:61F1H         PUBLIC        _FUN_TESTSERIAL_RXHARD
  D:00E0H         SYMBOL        ACC
  N:009CH         SYMBOL        BRT
  B:0020H.0       SYMBOL        BUSY
  N:00FAH         SYMBOL        CCAP0H
  N:00EAH         SYMBOL        CCAP0L
  N:00FBH         SYMBOL        CCAP1H
  N:00EBH         SYMBOL        CCAP1L
  N:00FCH         SYMBOL        CCAP2H
  N:00ECH         SYMBOL        CCAP2L
  N:00FDH         SYMBOL        CCAP3H
  N:00EDH         SYMBOL        CCAP3L
  N:00FEH         SYMBOL        CCAP4H
  N:00EEH         SYMBOL        CCAP4L
  N:00FFH         SYMBOL        CCAP5H
  N:00EFH         SYMBOL        CCAP5L
  N:00DAH         SYMBOL        CCAPM0
  N:00DBH         SYMBOL        CCAPM1
  N:00DCH         SYMBOL        CCAPM2
  N:00DDH         SYMBOL        CCAPM3
  N:00DEH         SYMBOL        CCAPM4
  N:00DFH         SYMBOL        CCAPM5
BL51 BANKED LINKER/LOCATER V6.05                                                      09/23/2016  17:07:17  PAGE 278


  B:00D8H.0       SYMBOL        CCF0
  B:00D8H.1       SYMBOL        CCF1
  B:00D8H.2       SYMBOL        CCF2
  B:00D8H.3       SYMBOL        CCF3
  B:00D8H.4       SYMBOL        CCF4
  B:00D8H.5       SYMBOL        CCF5
  N:00D8H         SYMBOL        CCON
  B:00D8H.7       SYMBOL        CF
  N:00F9H         SYMBOL        CH
  N:00E9H         SYMBOL        CL
  N:00D9H         SYMBOL        CMOD
  N:0002H         SYMBOL        CONST_ACTIONTYPE_GETRAND
  N:0000H         SYMBOL        CONST_ACTIONTYPE_GETSECURE
  N:0004H         SYMBOL        CONST_ACTIONTYPE_SETMMI
  N:0001H         SYMBOL        CONST_ACTIONTYPE_SETSECURE
  N:0003H         SYMBOL        CONST_ACTIONTYPE_TRANSFERCHANNEL
  N:0003H         SYMBOL        CONST_ACT_H
  N:0001H         SYMBOL        CONST_ACT_H_H
  N:0000H         SYMBOL        CONST_ACT_H_L
  N:0001H         SYMBOL        CONST_ACT_L
  N:0006H         SYMBOL        CONST_ACT_L_H
  N:000AH         SYMBOL        CONST_ACT_L_L
  N:0002H         SYMBOL        CONST_ACT_M
  N:0000H         SYMBOL        CONST_ACT_M_H
  N:0006H         SYMBOL        CONST_ACT_M_L
  N:0002H         SYMBOL        CONST_ACT_V
  N:0002H         SYMBOL        CONST_BAUD_115200
  N:0003H         SYMBOL        CONST_BAUD_115200PC
  N:0004H         SYMBOL        CONST_BAUD_230000
  N:0001H         SYMBOL        CONST_BAUD_38400
  N:0005H         SYMBOL        CONST_BAUD_38400PC
  N:0000H         SYMBOL        CONST_BAUD_9600
  N:0006H         SYMBOL        CONST_BAUD_9600PC
  N:000CH         SYMBOL        CONST_BAUD_BITFULL12
  N:000EH         SYMBOL        CONST_BAUD_BITFULL20
  N:0010H         SYMBOL        CONST_BAUD_BITFULL28
  N:000BH         SYMBOL        CONST_BAUD_BITFULL8
  N:000CH         SYMBOL        CONST_BAUD_BITHALF12
  N:00B3H         SYMBOL        CONST_BAUD_CURRENTBITFULL
  N:0058H         SYMBOL        CONST_BAUD_CURRENTBITHALF
  N:001DH         SYMBOL        CONST_BAUD_FULL115200
  N:000FH         SYMBOL        CONST_BAUD_FULL230000
  N:005DH         SYMBOL        CONST_BAUD_FULL38400
  N:00B3H         SYMBOL        CONST_BAUD_FULL9600
  N:000DH         SYMBOL        CONST_BAUD_HALF115200
  N:0008H         SYMBOL        CONST_BAUD_HALF230000
  N:002DH         SYMBOL        CONST_BAUD_HALF38400
  N:0058H         SYMBOL        CONST_BAUD_HALF9600
  N:00F8H         SYMBOL        CONST_BAUD_HAND115200
  N:00F3H         SYMBOL        CONST_BAUD_HAND115200PC
  N:00FCH         SYMBOL        CONST_BAUD_HAND230000
  N:00E9H         SYMBOL        CONST_BAUD_HAND38400
  N:00D8H         SYMBOL        CONST_BAUD_HAND38400PC
  N:00A3H         SYMBOL        CONST_BAUD_HAND9600
  N:0060H         SYMBOL        CONST_BAUD_HAND9600PC
  N:00FFH         SYMBOL        CONST_BLACK_H
  N:00FFH         SYMBOL        CONST_BLACK_L
BL51 BANKED LINKER/LOCATER V6.05                                                      09/23/2016  17:07:17  PAGE 279


  N:0014H         SYMBOL        CONST_BLUETOOTH_WORKTIME
  N:0020H         SYMBOL        CONST_BSTLIMIT
  N:0064H         SYMBOL        CONST_BSTLIMIT02
  N:0016H         SYMBOL        CONST_CARD_CONSUME
  N:0017H         SYMBOL        CONST_CARD_PASS
  N:0000H         SYMBOL        CONST_CELLFILE_H
  N:0009H         SYMBOL        CONST_CELLFILE_L
  N:0001H         SYMBOL        CONST_DPH_NORMAL
  N:0001H         SYMBOL        CONST_DPH_ONE
  N:0003H         SYMBOL        CONST_DPH_SERX
  N:0000H         SYMBOL        CONST_DPH_SETX
  N:0003H         SYMBOL        CONST_DPH_THREE
  N:0002H         SYMBOL        CONST_DPH_TWO
  N:0000H         SYMBOL        CONST_DPH_ZERO
  N:0007H         SYMBOL        CONST_DSRC_ACTION
  N:0009H         SYMBOL        CONST_DSRC_ACTIONTYPE
  N:0001H         SYMBOL        CONST_DSRC_CHANNELIDICC
  N:0002H         SYMBOL        CONST_DSRC_CHANNELIDSAM
  N:000AH         SYMBOL        CONST_DSRC_CONTAIN
  N:0008H         SYMBOL        CONST_DSRC_DID
  N:0000H         SYMBOL        CONST_DSRC_FILDIDAPPKEY
  N:0002H         SYMBOL        CONST_DSRC_FILDIDCONSUME
  N:0003H         SYMBOL        CONST_DSRC_FILDIDHOLD
  N:0001H         SYMBOL        CONST_DSRC_FILDIDVEHICLE
  N:000BH         SYMBOL        CONST_DSRC_FILL
  N:0006H         SYMBOL        CONST_DSRC_HEAD
  N:0005H         SYMBOL        CONST_DSRC_LLCCTRL
  N:0004H         SYMBOL        CONST_DSRC_MACCTRL
  N:0003H         SYMBOL        CONST_ETC_INPUT
  N:0002H         SYMBOL        CONST_FALSH_PREFLAG02H
  N:00F4H         SYMBOL        CONST_FALSH_PREFLAG02L
  N:0002H         SYMBOL        CONST_FALSH_PREFLAG03H
  N:00F5H         SYMBOL        CONST_FALSH_PREFLAG03L
  N:0002H         SYMBOL        CONST_FALSH_PREFLAG04H
  N:00F6H         SYMBOL        CONST_FALSH_PREFLAG04L
  N:0002H         SYMBOL        CONST_FALSH_PREFLAGH
  N:00F3H         SYMBOL        CONST_FALSH_PREFLAGL
  N:0001H         SYMBOL        CONST_FALSH_PREFLAGLEN
  N:0004H         SYMBOL        CONST_FLASHADD_BEACONIDUNIXTIMEH
  N:0000H         SYMBOL        CONST_FLASHADD_BEACONIDUNIXTIMEL
  N:0002H         SYMBOL        CONST_FLASH_0002H
  N:0058H         SYMBOL        CONST_FLASH_0002L
  N:0004H         SYMBOL        CONST_FLASH_0002LEN
  N:0002H         SYMBOL        CONST_FLASH_0012H
  N:005CH         SYMBOL        CONST_FLASH_0012L
  N:0028H         SYMBOL        CONST_FLASH_0012LEN
  N:0002H         SYMBOL        CONST_FLASH_0015H
  N:0084H         SYMBOL        CONST_FLASH_0015L
  N:0032H         SYMBOL        CONST_FLASH_0015LEN
  N:002BH         SYMBOL        CONST_FLASH_0015LENOLD
  N:002BH         SYMBOL        CONST_FLASH_0019GBLEN
  N:0002H         SYMBOL        CONST_FLASH_0019H
  N:00B6H         SYMBOL        CONST_FLASH_0019L
  N:003CH         SYMBOL        CONST_FLASH_0019LEN
  N:003FH         SYMBOL        CONST_FLASH_0019NEWGDLEN
  N:0004H         SYMBOL        CONST_FLASH_BEACONIDUNIXTIMEH
  N:0000H         SYMBOL        CONST_FLASH_BEACONIDUNIXTIMEL
BL51 BANKED LINKER/LOCATER V6.05                                                      09/23/2016  17:07:17  PAGE 280


  N:0008H         SYMBOL        CONST_FLASH_BEACONIDUNIXTIMELEN
  N:0002H         SYMBOL        CONST_FLASH_BLOCK01
  N:0001H         SYMBOL        CONST_FLASH_CARDTYPELEN
  N:00F3H         SYMBOL        CONST_FLASH_FILELEN
  N:0002H         SYMBOL        CONST_FLASH_LASTCARDH
  N:00F2H         SYMBOL        CONST_FLASH_LASTCARDL
  N:0002H         SYMBOL        CONST_FLASH_STARTHIGH
  N:0000H         SYMBOL        CONST_FLASH_STARTLOW
  N:0002H         SYMBOL        CONST_FLASH_SYSINFOH
  N:0000H         SYMBOL        CONST_FLASH_SYSINFOL
  N:0058H         SYMBOL        CONST_FLASH_SYSINFOLEN
  N:0002H         SYMBOL        CONST_GDO2_MCSM2
  N:0046H         SYMBOL        CONST_GDO2_VALUE
  N:00F0H         SYMBOL        CONST_GSM_MAXNUM
  N:0008H         SYMBOL        CONST_GSM_NUM
  N:0014H         SYMBOL        CONST_GSM_PJNUM
  N:0015H         SYMBOL        CONST_HANDSECOND
  N:0002H         SYMBOL        CONST_LHX_FLAG
  N:0005H         SYMBOL        CONST_MAX_RXNUM
  N:0008H         SYMBOL        CONST_MCU_WKCTH
  N:00FFH         SYMBOL        CONST_MCU_WKCTL
  N:0002H         SYMBOL        CONST_MF_DECREMENT
  N:0003H         SYMBOL        CONST_MF_INCREMENT
  N:00C0H         SYMBOL        CONST_MF_RC500DECREMENT
  N:00C1H         SYMBOL        CONST_MF_RC500INCREMENT
  N:0000H         SYMBOL        CONST_MF_READ
  N:0004H         SYMBOL        CONST_MF_RESTOR
  N:0001H         SYMBOL        CONST_MF_WRITE
  N:0001H         SYMBOL        CONST_MTC_INPUT
  N:0018H         SYMBOL        CONST_PPS_115200
  N:0096H         SYMBOL        CONST_PPS_230000
  N:0013H         SYMBOL        CONST_PPS_38400
  N:0010H         SYMBOL        CONST_PPS_9600
  N:0001H         SYMBOL        CONST_PRO_4SPEED
  N:00FAH         SYMBOL        CONST_PRO_OVERTIME2S
  N:0090H         SYMBOL        CONST_RTCOVERFLOW
  N:00FFH         SYMBOL        CONST_RTC_OFF
  N:0055H         SYMBOL        CONST_RTC_ON
  N:000AH         SYMBOL        CONST_SE_CHANNEL
  N:0000H         SYMBOL        CONST_SE_RXBUF
  N:0000H         SYMBOL        CONST_SE_TXBUF
  N:0000H         SYMBOL        CONST_SOF
  N:0014H         SYMBOL        CONST_SOFTBYTESP
  N:0010H         SYMBOL        CONST_SOFTFIRSTSCANTIME
  N:00FFH         SYMBOL        CONST_SOFTFIRSTSCANTIMEXX
  N:0070H         SYMBOL        CONST_SOFTSECOND
  N:000CH         SYMBOL        CONST_SSRC_FID
  N:0007H         SYMBOL        CONST_STATE_5823INIER
  N:0008H         SYMBOL        CONST_STATE_5823SLEEPER
  N:0003H         SYMBOL        CONST_STATE_ACCEPTOVER
  N:0004H         SYMBOL        CONST_STATE_ACCEPTOVERLEN
  N:0006H         SYMBOL        CONST_STATE_ACTCARDINVALID
  N:0004H         SYMBOL        CONST_STATE_ACTIVEFAIL
  N:0006H         SYMBOL        CONST_STATE_AUTHER
  N:001DH         SYMBOL        CONST_STATE_BASE01ANTICOLL
  N:0015H         SYMBOL        CONST_STATE_BASE01CONTACT
  N:0014H         SYMBOL        CONST_STATE_BASE01ESAMDF01
BL51 BANKED LINKER/LOCATER V6.05                                                      09/23/2016  17:07:17  PAGE 281


  N:001FH         SYMBOL        CONST_STATE_BASE01RATS
  N:001CH         SYMBOL        CONST_STATE_BASE01RE
  N:001EH         SYMBOL        CONST_STATE_BASE01SEL
  N:0019H         SYMBOL        CONST_STATE_BASE02ANTICOLL
  N:0016H         SYMBOL        CONST_STATE_BASE02CONTACT
  N:001BH         SYMBOL        CONST_STATE_BASE02RATS
  N:0018H         SYMBOL        CONST_STATE_BASE02RE
  N:001AH         SYMBOL        CONST_STATE_BASE02SEL
  N:000BH         SYMBOL        CONST_STATE_BASEESAMDF01
  N:0013H         SYMBOL        CONST_STATE_BASEN01INIT
  N:000AH         SYMBOL        CONST_STATE_BASENINIT
  N:000DH         SYMBOL        CONST_STATE_CARDPREDEAL0002
  N:000EH         SYMBOL        CONST_STATE_CARDPREDEAL0012
  N:000FH         SYMBOL        CONST_STATE_CARDPREDEAL0015
  N:0010H         SYMBOL        CONST_STATE_CARDPREDEAL0019
  N:000CH         SYMBOL        CONST_STATE_CARDPREDEAL1001
  N:0011H         SYMBOL        CONST_STATE_CARDPREDEAL3F00
  N:0012H         SYMBOL        CONST_STATE_CARDPREDEAL81
  N:0023H         SYMBOL        CONST_STATE_ESAMER
  N:0021H         SYMBOL        CONST_STATE_EXMEMORYER
  N:0022H         SYMBOL        CONST_STATE_EXMEMORYER02
  N:00FFH         SYMBOL        CONST_STATE_FALSE
  N:0009H         SYMBOL        CONST_STATE_GETSECURESELFILEER
  N:0005H         SYMBOL        CONST_STATE_ILLEGALACTCARD
  N:0002H         SYMBOL        CONST_STATE_ILLEGALINPUTCARD
  N:0003H         SYMBOL        CONST_STATE_INPUTCARDINVALID
  N:0001H         SYMBOL        CONST_STATE_INPUTFAIL
  N:0020H         SYMBOL        CONST_STATE_MEMORYER
  N:0005H         SYMBOL        CONST_STATE_RSTCPUER
  N:0001H         SYMBOL        CONST_STATE_SERIALACCPET
  N:0002H         SYMBOL        CONST_STATE_SERIALOVERTIME
  N:0017H         SYMBOL        CONST_STATE_TEST
  N:0000H         SYMBOL        CONST_STATE_TRUE
  N:0055H         SYMBOL        CONST_SYS_55
  N:00AAH         SYMBOL        CONST_SYS_AA
  N:0004H         SYMBOL        CONST_SYS_OBUIDLEN
  N:000AH         SYMBOL        CONST_SYS_POWERONTIMER
  N:0088H         SYMBOL        CONST_SYS_PREFLAG
  N:0064H         SYMBOL        CONST_SYS_RTCOVERTIME
  N:00FFH         SYMBOL        CONST_SYS_TRADECONFINE
  N:0001H         SYMBOL        CONST_TIMEER02
  N:00FEH         SYMBOL        CONST_TIMEER03
  N:0001H         SYMBOL        CONST_TIMEER04
  N:00FFH         SYMBOL        CONST_VSTLIMIT
  N:0000H         SYMBOL        CONST_WHITE_H
  N:0031H         SYMBOL        CONST_WHITE_L
  N:0000H         SYMBOL        CONST_WORKSTAION_0
  N:0001H         SYMBOL        CONST_WORKSTAION_1
  N:0002H         SYMBOL        CONST_WORKSTAION_2
  N:0003H         SYMBOL        CONST_WORKSTAION_3
  N:0000H         SYMBOL        CONST_XDATA_TXBUF02
  N:0080H         SYMBOL        CONST_XDATA_TXBUF02LEN
  B:00D8H.6       SYMBOL        CR
  D:0083H         SYMBOL        DPH
  D:0082H         SYMBOL        DPL
  B:00A8H.6       SYMBOL        EPCAI
  B:00A8H.6       SYMBOL        EPCA_LVD
BL51 BANKED LINKER/LOCATER V6.05                                                      09/23/2016  17:07:17  PAGE 282


  B:00A8H.1       SYMBOL        ET0
  D:00A8H         SYMBOL        IE
  N:00AFH         SYMBOL        IE2
  N:00B7H         SYMBOL        IPH
  N:00C7H         SYMBOL        ISP_CONTR
  B:00D0H.0       SYMBOL        P
  D:0080H         SYMBOL        P0
  D:0090H         SYMBOL        P1
  D:00A0H         SYMBOL        P2
  D:00B0H         SYMBOL        P3
  N:00C0H         SYMBOL        P4
  N:00F2H         SYMBOL        PCA_PWM0
  N:00F3H         SYMBOL        PCA_PWM1
  N:00F4H         SYMBOL        PCA_PWM2
  N:00F5H         SYMBOL        PCA_PWM3
  N:00F6H         SYMBOL        PCA_PWM4
  N:00F7H         SYMBOL        PCA_PWM5
  D:0087H         SYMBOL        PCON
  B:0080H.4       SYMBOL        PIN_522_MISO
  B:0080H.5       SYMBOL        PIN_522_MOSI
  B:00C0H.6       SYMBOL        PIN_522_RST
  B:0080H.7       SYMBOL        PIN_522_SCLK
  B:0080H.6       SYMBOL        PIN_522_SS
  B:0090H.0       SYMBOL        PIN_5823BK_CS
  B:0090H.2       SYMBOL        PIN_5823BK_IRQ
  B:0080H.0       SYMBOL        PIN_5823BK_MISO
  B:0080H.1       SYMBOL        PIN_5823BK_MOSI
  B:00C0H.2       SYMBOL        PIN_5823BK_SCLK
  B:0080H.3       SYMBOL        PIN_BELL_01
  B:0080H.2       SYMBOL        PIN_BELL_02
  B:0090H.1       SYMBOL        PIN_BK_CE
  B:00B0H.3       SYMBOL        PIN_CARD_EXIST
  B:0090H.6       SYMBOL        PIN_CC1101_GDO2
  B:00B0H.7       SYMBOL        PIN_CC1101_MISO
  B:00A0H.3       SYMBOL        PIN_CC1101_MOSI
  B:00A0H.2       SYMBOL        PIN_CC1101_SCLK
  B:00B0H.6       SYMBOL        PIN_CC1101_SS
  B:00A0H.5       SYMBOL        PIN_ESAM_RST
  B:00A0H.6       SYMBOL        PIN_ESAM_RX
  B:00A0H.6       SYMBOL        PIN_ESAM_TX
  B:00C0H.5       SYMBOL        PIN_GRE
  B:0090H.4       SYMBOL        PIN_LCD_CS
  B:0090H.7       SYMBOL        PIN_LCD_DC
  B:0090H.5       SYMBOL        PIN_LCD_RST
  B:00B0H.4       SYMBOL        PIN_LCD_SCL
  B:00C0H.3       SYMBOL        PIN_LCD_SDA
  B:00A0H.7       SYMBOL        PIN_PWRDWN
  B:0090H.3       SYMBOL        PIN_PWRDWN_LCD
  B:00A0H.4       SYMBOL        PIN_PWR_GSM
  B:00A0H.1       SYMBOL        PIN_PWR_LOWIO
  B:00C0H.1       SYMBOL        PIN_RED
  B:00B0H.0       SYMBOL        PIN_SOFTSERIALRX
  B:00B0H.1       SYMBOL        PIN_SOFTSERIALTXH
  B:00B0H.5       SYMBOL        PIN_UNFIX
  B:00A0H.0       SYMBOL        PIN_WAVE_CHANNEL1
  B:0098H.2       SYMBOL        RB8
  N:00C0H         SYMBOL        READ_BURST
BL51 BANKED LINKER/LOCATER V6.05                                                      09/23/2016  17:07:17  PAGE 283


  N:00A2H         SYMBOL        REG_51_AUXR1
  N:008EH         SYMBOL        REG_5412AD_AUXR
  N:0094H         SYMBOL        REG_5412AD_P0M0
  N:0093H         SYMBOL        REG_5412AD_P0M1
  N:0092H         SYMBOL        REG_5412AD_P1M0
  N:0091H         SYMBOL        REG_5412AD_P1M1
  N:0096H         SYMBOL        REG_5412AD_P2M0
  N:0095H         SYMBOL        REG_5412AD_P2M1
  N:00B2H         SYMBOL        REG_5412AD_P3M0
  N:00B1H         SYMBOL        REG_5412AD_P3M1
  N:00B4H         SYMBOL        REG_5412AD_P4M0
  N:00B3H         SYMBOL        REG_5412AD_P4M1
  N:00BBH         SYMBOL        REG_5412AD_P4SW
  N:0085H         SYMBOL        REG_5412AD_SPCTL
  N:0086H         SYMBOL        REG_5412AD_SPDAT
  N:0084H         SYMBOL        REG_5412AD_SPSTAT
  N:00ABH         SYMBOL        REG_MCU_WKCTH
  N:00AAH         SYMBOL        REG_MCU_WKCTL
  N:000DH         SYMBOL        REG_RC522_BITFRAMINGREG
  N:000EH         SYMBOL        REG_RC522_COLLREG
  N:0002H         SYMBOL        REG_RC522_COMIENREG
  N:0004H         SYMBOL        REG_RC522_COMIRQREG
  N:0001H         SYMBOL        REG_RC522_COMMANDREG
  N:000CH         SYMBOL        REG_RC522_CONTROLREG
  N:0021H         SYMBOL        REG_RC522_CRCRESULTREGH
  N:0022H         SYMBOL        REG_RC522_CRCRESULTREGL
  N:0028H         SYMBOL        REG_RC522_CWGSPREG
  N:0019H         SYMBOL        REG_RC522_DEMODREG
  N:0003H         SYMBOL        REG_RC522_DIVIENREG
  N:0005H         SYMBOL        REG_RC522_DIVIRQREG
  N:0006H         SYMBOL        REG_RC522_ERRORREG
  N:0009H         SYMBOL        REG_RC522_FIFODATAREG
  N:000AH         SYMBOL        REG_RC522_FIFOLEVELREG
  N:0027H         SYMBOL        REG_RC522_GSNREG
  N:001CH         SYMBOL        REG_RC522_MIFAREREG
  N:0011H         SYMBOL        REG_RC522_MODEREG
  N:0029H         SYMBOL        REG_RC522_MODGSPREG
  N:0024H         SYMBOL        REG_RC522_MODWIDTHREG
  N:0000H         SYMBOL        REG_RC522_RC522PAGE
  N:0026H         SYMBOL        REG_RC522_RFCFGREG
  N:000FH         SYMBOL        REG_RC522_RFU
  N:0013H         SYMBOL        REG_RC522_RXMODEREG
  N:0017H         SYMBOL        REG_RC522_RXSELREG
  N:0018H         SYMBOL        REG_RC522_RXTHRESHOLDREG
  N:001FH         SYMBOL        REG_RC522_SERIALSPEEDREG
  N:0007H         SYMBOL        REG_RC522_STATUS1REG
  N:0008H         SYMBOL        REG_RC522_STATUS2REG
  N:002EH         SYMBOL        REG_RC522_TCOUNTERVALUEREGH
  N:002FH         SYMBOL        REG_RC522_TCOUNTERVALUEREGL
  N:002AH         SYMBOL        REG_RC522_TMODEREG
  N:002BH         SYMBOL        REG_RC522_TPRESCALERREG
  N:002CH         SYMBOL        REG_RC522_TRELOADREGH
  N:002DH         SYMBOL        REG_RC522_TRELOADREGL
  N:0015H         SYMBOL        REG_RC522_TXAUTOREG
  N:0014H         SYMBOL        REG_RC522_TXCONTROLREG
  N:0012H         SYMBOL        REG_RC522_TXMODEREG
  N:0016H         SYMBOL        REG_RC522_TXSELREG
BL51 BANKED LINKER/LOCATER V6.05                                                      09/23/2016  17:07:17  PAGE 284


  N:000BH         SYMBOL        REG_RC522_WATERLEVELREG
  N:009CH         SYMBOL        REG_SYS_BRT
  N:008FH         SYMBOL        REG_WAKECLK0
  B:00D8H.4       SYMBOL        REG_WAKECLK_04
  B:00D8H.5       SYMBOL        REG_WAKECLK_05
  N:00C1H         SYMBOL        REG_WDT_CONTR
  N:00EAH         SYMBOL        RELOAD2_CONTR
  B:0098H.4       SYMBOL        REN
  B:0098H.0       SYMBOL        RI
  N:009BH         SYMBOL        S2BUF
  N:009AH         SYMBOL        S2CON
  D:0099H         SYMBOL        SBUF
  D:0098H         SYMBOL        SCON
  N:0000H         SYMBOL        SERIAL
  C:6224H         SYMBOL        SERIAL_AUDIOTXBYTE_ESAMVERIFY
  C:622CH         SYMBOL        SERIAL_AUDIOTXBYTE_LOOP
  C:61F6H         SYMBOL        SERIAL_AUDIOTXSOFT_ESAMLOOP
  C:6215H         SYMBOL        SERIAL_AUDIOTXSOFT_OVER
  C:5E92H         SYMBOL        SERIAL_BITSPACEFULL_12_OVER
  C:5EAFH         SYMBOL        SERIAL_BITSPACEFULL_20_OVER
  C:5ECCH         SYMBOL        SERIAL_BITSPACEFULL_28_OVER
  C:5E75H         SYMBOL        SERIAL_BITSPACEFULL_8_OVER
  C:5E58H         SYMBOL        SERIAL_BITSPACEHALF_12_OVER
  C:620AH         SYMBOL        SERIAL_ESAMAUDIOTXSOFTMOVOVER
  C:6201H         SYMBOL        SERIAL_ESAMAUDIOTXSOFTMOVX
  C:5F53H         SYMBOL        SERIAL_ESAMTXSOFTMOVOVER
  C:5F4AH         SYMBOL        SERIAL_ESAMTXSOFTMOVX
  C:5E31H         SYMBOL        SERIAL_INIT_NINE
  C:5E34H         SYMBOL        SERIAL_INIT_NINEOVER
  C:6362H         SYMBOL        SERIAL_RXBYTE02_ACCEPTBYTE
  C:6366H         SYMBOL        SERIAL_RXBYTE02_ACCEPTBYTELOOP
  C:6355H         SYMBOL        SERIAL_RXBYTE02_BYTE
  C:63BCH         SYMBOL        SERIAL_RXBYTE02_OVER
  C:6347H         SYMBOL        SERIAL_RXBYTE02_SEARCHSECONDLIMITE
  C:6338H         SYMBOL        SERIAL_RXBYTE02_SEARCHSTARTLIMITE
  C:6352H         SYMBOL        SERIAL_RXBYTE02_SEARCHSTARTLIMITLESS
  C:6343H         SYMBOL        SERIAL_RXBYTE02_SECONDBYTE
  C:6323H         SYMBOL        SERIAL_RXBYTE02_START
  C:634EH         SYMBOL        SERIAL_RXBYTE02_STARTOVERTIME
  C:63A4H         SYMBOL        SERIAL_RXBYTE02_STOP
  C:63B6H         SYMBOL        SERIAL_RXBYTE02_STOPER
  C:6390H         SYMBOL        SERIAL_RXBYTE02_STOPVERIFY
  C:63BAH         SYMBOL        SERIAL_RXBYTE02_SUCCEED
  C:6383H         SYMBOL        SERIAL_RXBYTE02_VERIFY
  C:638CH         SYMBOL        SERIAL_RXBYTE02_VERIFYER
  C:5FA4H         SYMBOL        SERIAL_RXBYTE_ACCEPTBYTE
  C:5FA8H         SYMBOL        SERIAL_RXBYTE_ACCEPTBYTELOOP
  C:5F97H         SYMBOL        SERIAL_RXBYTE_BYTE
  C:5FFEH         SYMBOL        SERIAL_RXBYTE_OVER
  C:5F89H         SYMBOL        SERIAL_RXBYTE_SEARCHSECONDLIMITE
  C:5F7AH         SYMBOL        SERIAL_RXBYTE_SEARCHSTARTLIMITE
  C:5F94H         SYMBOL        SERIAL_RXBYTE_SEARCHSTARTLIMITLESS
  C:5F85H         SYMBOL        SERIAL_RXBYTE_SECONDBYTE
  C:5F65H         SYMBOL        SERIAL_RXBYTE_START
  C:5F90H         SYMBOL        SERIAL_RXBYTE_STARTOVERTIME
  C:5FE6H         SYMBOL        SERIAL_RXBYTE_STOP
  C:5FF8H         SYMBOL        SERIAL_RXBYTE_STOPER
BL51 BANKED LINKER/LOCATER V6.05                                                      09/23/2016  17:07:17  PAGE 285


  C:5FD2H         SYMBOL        SERIAL_RXBYTE_STOPVERIFY
  C:5FFCH         SYMBOL        SERIAL_RXBYTE_SUCCEED
  C:5FC5H         SYMBOL        SERIAL_RXBYTE_VERIFY
  C:5FCEH         SYMBOL        SERIAL_RXBYTE_VERIFYER
  C:61C6H         SYMBOL        SERIAL_RXHARD02_ALREADYRX
  C:61E3H         SYMBOL        SERIAL_RXHARD02_CONTINUE
  C:61E6H         SYMBOL        SERIAL_RXHARD02_OVER
  C:6183H         SYMBOL        SERIAL_RXHARD02_RXLOOP
  C:61B8H         SYMBOL        SERIAL_RXHARD02_SEARCHSTARTLIMITLESS
  C:61A9H         SYMBOL        SERIAL_RXHARD02_SECONDBYTE
  C:619CH         SYMBOL        SERIAL_RXHARD02_SERRI
  C:61ADH         SYMBOL        SERIAL_RXHARD02_SESECONDRRI
  C:61D1H         SYMBOL        SERIAL_RXHARD02_SPACE
  C:61DAH         SYMBOL        SERIAL_RXHARD02_SPACEOVER
  C:6285H         SYMBOL        SERIAL_RXHARD03_ALREADYRX
  C:62A1H         SYMBOL        SERIAL_RXHARD03_CONTINUE
  C:62A4H         SYMBOL        SERIAL_RXHARD03_OVER
  C:624EH         SYMBOL        SERIAL_RXHARD03_RXLOOP
  C:6280H         SYMBOL        SERIAL_RXHARD03_SEARCHSTARTLIMITLESS
  C:6273H         SYMBOL        SERIAL_RXHARD03_SECONDBYTE
  C:6268H         SYMBOL        SERIAL_RXHARD03_SERRI
  C:6277H         SYMBOL        SERIAL_RXHARD03_SESECONDRRI
  C:628FH         SYMBOL        SERIAL_RXHARD03_SPACE
  C:6298H         SYMBOL        SERIAL_RXHARD03_SPACEOVER
  C:6120H         SYMBOL        SERIAL_RXHARD_ALREADYRX
  C:613CH         SYMBOL        SERIAL_RXHARD_CONTINUE
  C:613FH         SYMBOL        SERIAL_RXHARD_OVER
  C:60EAH         SYMBOL        SERIAL_RXHARD_RXLOOP
  C:611BH         SYMBOL        SERIAL_RXHARD_SEARCHSTARTLIMITLESS
  C:610EH         SYMBOL        SERIAL_RXHARD_SECONDBYTE
  C:6103H         SYMBOL        SERIAL_RXHARD_SERRI
  C:6112H         SYMBOL        SERIAL_RXHARD_SESECONDRRI
  C:612AH         SYMBOL        SERIAL_RXHARD_SPACE
  C:6133H         SYMBOL        SERIAL_RXHARD_SPACEOVER
  C:6166H         SYMBOL        SERIAL_RXHBYTE_ALREADYRX
  C:6171H         SYMBOL        SERIAL_RXHBYTE_OVER
  C:6159H         SYMBOL        SERIAL_RXHBYTE_SERRI
  C:62E7H         SYMBOL        SERIAL_RXSOFT02MOV
  C:62F3H         SYMBOL        SERIAL_RXSOFT02MOVOVER
  C:62EAH         SYMBOL        SERIAL_RXSOFT02MOVX
  C:62FFH         SYMBOL        SERIAL_RXSOFT02_ACCEPTOVERLEN
  C:62F3H         SYMBOL        SERIAL_RXSOFT02_ADD
  C:62FCH         SYMBOL        SERIAL_RXSOFT02_ADDCONTINUE
  C:630EH         SYMBOL        SERIAL_RXSOFT02_OVER
  C:62AFH         SYMBOL        SERIAL_RXSOFT02_STR
  C:62C1H         SYMBOL        SERIAL_RXSOFT02_STRLOOP
  C:603EH         SYMBOL        SERIAL_RXSOFTMOV
  C:604AH         SYMBOL        SERIAL_RXSOFTMOVOVER
  C:6041H         SYMBOL        SERIAL_RXSOFTMOVX
  C:6057H         SYMBOL        SERIAL_RXSOFT_ACCEPTOVERLEN
  C:604AH         SYMBOL        SERIAL_RXSOFT_ADD
  C:6054H         SYMBOL        SERIAL_RXSOFT_ADDCONTINUE
  C:6066H         SYMBOL        SERIAL_RXSOFT_OVER
  C:6004H         SYMBOL        SERIAL_RXSOFT_STR
  C:6018H         SYMBOL        SERIAL_RXSOFT_STRLOOP
  C:608CH         SYMBOL        SERIAL_RXTXINTERRUPT_SENDDELAY
  C:5F07H         SYMBOL        SERIAL_TXBYTE_ESAMLOOP
BL51 BANKED LINKER/LOCATER V6.05                                                      09/23/2016  17:07:17  PAGE 286


  C:5EFFH         SYMBOL        SERIAL_TXBYTE_ESAMVERIFY
  C:5EE3H         SYMBOL        SERIAL_TXBYTE_USERCARDLOOP
  C:5EDBH         SYMBOL        SERIAL_TXBYTE_USERCARDVERIFY
  C:60D7H         SYMBOL        SERIAL_TXHARD02_OVER
  C:60BBH         SYMBOL        SERIAL_TXHARD02_SENDDELAY
  C:60CCH         SYMBOL        SERIAL_TXHARD02_SENDDELAY_NINE
  C:60A7H         SYMBOL        SERIAL_TXHARD02_SENDLOOP
  C:60B3H         SYMBOL        SERIAL_TXHARD02_SPACE
  C:60B9H         SYMBOL        SERIAL_TXHARD02_SPACEOVER
  C:60D0H         SYMBOL        SERIAL_TXHARD02_TI
  C:609EH         SYMBOL        SERIAL_TXHARD_OVER
  C:6079H         SYMBOL        SERIAL_TXHARD_SENDLOOP
  C:6084H         SYMBOL        SERIAL_TXHARD_SPACE
  C:608AH         SYMBOL        SERIAL_TXHARD_SPACEOVER
  C:6099H         SYMBOL        SERIAL_TXHARD_TI
  C:5F3FH         SYMBOL        SERIAL_TXSOFT_ESAMLOOP
  C:5F5CH         SYMBOL        SERIAL_TXSOFT_OVER
  C:5F20H         SYMBOL        SERIAL_TXSOFT_USERCARDLOOP
  C:5F34H         SYMBOL        SERIAL_USERCARDTXSOFTMOVOVER
  C:5F2BH         SYMBOL        SERIAL_USERCARDTXSOFTMOVX
  B:0098H.1       SYMBOL        TI
  N:0009H         SYMBOL        TI_CCXXX0_ADDR
  N:001DH         SYMBOL        TI_CCXXX0_AGCCTRL0
  N:001CH         SYMBOL        TI_CCXXX0_AGCCTRL1
  N:001BH         SYMBOL        TI_CCXXX0_AGCCTRL2
  N:002BH         SYMBOL        TI_CCXXX0_AGCTEST
  N:001AH         SYMBOL        TI_CCXXX0_BSCFG
  N:000AH         SYMBOL        TI_CCXXX0_CHANNR
  N:0015H         SYMBOL        TI_CCXXX0_DEVIATN
  N:0003H         SYMBOL        TI_CCXXX0_FIFOTHR
  N:0019H         SYMBOL        TI_CCXXX0_FOCCFG
  N:0022H         SYMBOL        TI_CCXXX0_FREND0
  N:0021H         SYMBOL        TI_CCXXX0_FREND1
  N:000FH         SYMBOL        TI_CCXXX0_FREQ0
  N:000EH         SYMBOL        TI_CCXXX0_FREQ1
  N:000DH         SYMBOL        TI_CCXXX0_FREQ2
  N:0032H         SYMBOL        TI_CCXXX0_FREQEST
  N:0026H         SYMBOL        TI_CCXXX0_FSCAL0
  N:0025H         SYMBOL        TI_CCXXX0_FSCAL1
  N:0024H         SYMBOL        TI_CCXXX0_FSCAL2
  N:0023H         SYMBOL        TI_CCXXX0_FSCAL3
  N:000CH         SYMBOL        TI_CCXXX0_FSCTRL0
  N:000BH         SYMBOL        TI_CCXXX0_FSCTRL1
  N:0029H         SYMBOL        TI_CCXXX0_FSTEST
  N:0002H         SYMBOL        TI_CCXXX0_IOCFG0
  N:0001H         SYMBOL        TI_CCXXX0_IOCFG1
  N:0000H         SYMBOL        TI_CCXXX0_IOCFG2
  N:0033H         SYMBOL        TI_CCXXX0_LQI
  N:0035H         SYMBOL        TI_CCXXX0_MARCSTATE
  N:0018H         SYMBOL        TI_CCXXX0_MCSM0
  N:0017H         SYMBOL        TI_CCXXX0_MCSM1
  N:0016H         SYMBOL        TI_CCXXX0_MCSM2
  N:0014H         SYMBOL        TI_CCXXX0_MDMCFG0
  N:0013H         SYMBOL        TI_CCXXX0_MDMCFG1
  N:0012H         SYMBOL        TI_CCXXX0_MDMCFG2
  N:0011H         SYMBOL        TI_CCXXX0_MDMCFG3
  N:0010H         SYMBOL        TI_CCXXX0_MDMCFG4
BL51 BANKED LINKER/LOCATER V6.05                                                      09/23/2016  17:07:17  PAGE 287


  N:007FH         SYMBOL        TI_CCXXX0_NUM_RXBYTES
  N:0030H         SYMBOL        TI_CCXXX0_PARTNUM
  N:003EH         SYMBOL        TI_CCXXX0_PATABLE
  N:0008H         SYMBOL        TI_CCXXX0_PKTCTRL0
  N:0007H         SYMBOL        TI_CCXXX0_PKTCTRL1
  N:0006H         SYMBOL        TI_CCXXX0_PKTLEN
  N:0038H         SYMBOL        TI_CCXXX0_PKTSTATUS
  N:002AH         SYMBOL        TI_CCXXX0_PTEST
  N:0028H         SYMBOL        TI_CCXXX0_RCCTRL0
  N:0027H         SYMBOL        TI_CCXXX0_RCCTRL1
  N:0034H         SYMBOL        TI_CCXXX0_RSSI
  N:003BH         SYMBOL        TI_CCXXX0_RXBYTES
  N:003FH         SYMBOL        TI_CCXXX0_RXFIFO
  N:0037H         SYMBOL        TI_CCXXX0_SAFC
  N:0033H         SYMBOL        TI_CCXXX0_SCAL
  N:003AH         SYMBOL        TI_CCXXX0_SFRX
  N:003BH         SYMBOL        TI_CCXXX0_SFTX
  N:0036H         SYMBOL        TI_CCXXX0_SIDLE
  N:003DH         SYMBOL        TI_CCXXX0_SNOP
  N:0039H         SYMBOL        TI_CCXXX0_SPWD
  N:0030H         SYMBOL        TI_CCXXX0_SRES
  N:0034H         SYMBOL        TI_CCXXX0_SRX
  N:0035H         SYMBOL        TI_CCXXX0_STX
  N:0038H         SYMBOL        TI_CCXXX0_SWOR
  N:003CH         SYMBOL        TI_CCXXX0_SWORRST
  N:0032H         SYMBOL        TI_CCXXX0_SXOFF
  N:0005H         SYMBOL        TI_CCXXX0_SYNC0
  N:0004H         SYMBOL        TI_CCXXX0_SYNC1
  N:002EH         SYMBOL        TI_CCXXX0_TEST0
  N:002DH         SYMBOL        TI_CCXXX0_TEST1
  N:002CH         SYMBOL        TI_CCXXX0_TEST2
  N:003AH         SYMBOL        TI_CCXXX0_TXBYTES
  N:003FH         SYMBOL        TI_CCXXX0_TXFIFO
  N:0039H         SYMBOL        TI_CCXXX0_VCO_VC_DAC
  N:0031H         SYMBOL        TI_CCXXX0_VERSION
  N:0020H         SYMBOL        TI_CCXXX0_WORCTRL
  N:001FH         SYMBOL        TI_CCXXX0_WOREVT0
  N:001EH         SYMBOL        TI_CCXXX0_WOREVT1
  N:0037H         SYMBOL        TI_CCXXX0_WORTIME0
  N:0036H         SYMBOL        TI_CCXXX0_WORTIME1
  D:0089H         SYMBOL        TMOD
  B:0088H.4       SYMBOL        TR0
  C:6095H         SYMBOL        TXHARD_SENDLOOP_NINE
  N:008FH         SYMBOL        WAKE_CLKO
  B:00B0H.2       SYMBOL        WKO_BK
  C:6216H         SYMBOL        _FUN_SERIAL_AUDIOTXBYTE
  C:5E76H         SYMBOL        _FUN_SERIAL_BITSPACEFULL_12
  C:5E93H         SYMBOL        _FUN_SERIAL_BITSPACEFULL_20
  C:5EB0H         SYMBOL        _FUN_SERIAL_BITSPACEFULL_28
  C:5E59H         SYMBOL        _FUN_SERIAL_BITSPACEFULL_8
  C:5E3CH         SYMBOL        _FUN_SERIAL_BITSPACEHALF_12
  C:5EF0H         SYMBOL        _FUN_SERIAL_ESAMTXBYTE
  C:631BH         SYMBOL        _FUN_SERIAL_RXSBYTE02
  C:5ECDH         SYMBOL        _FUN_SERIAL_USERCARDTXBYTE
  C:5E13H         LINE#         51
  C:5E14H         LINE#         55
  C:5E16H         LINE#         56
BL51 BANKED LINKER/LOCATER V6.05                                                      09/23/2016  17:07:17  PAGE 288


  C:5E17H         LINE#         58
  C:5E19H         LINE#         59
  C:5E1BH         LINE#         60
  C:5E1DH         LINE#         61
  C:5E1FH         LINE#         62
  C:5E21H         LINE#         64
  C:5E24H         LINE#         65
  C:5E27H         LINE#         69
  C:5E29H         LINE#         77
  C:5E2CH         LINE#         79
  C:5E2FH         LINE#         80
  C:5E31H         LINE#         84
  C:5E34H         LINE#         86
  C:5E37H         LINE#         89
  C:5E39H         LINE#         90
  C:5E3BH         LINE#         92
  C:5E3CH         LINE#         98
  C:5E3EH         LINE#         99
  C:5E40H         LINE#         101
  C:5E42H         LINE#         102
  C:5E43H         LINE#         103
  C:5E44H         LINE#         104
  C:5E46H         LINE#         105
  C:5E47H         LINE#         106
  C:5E48H         LINE#         108
  C:5E49H         LINE#         109
  C:5E4BH         LINE#         110
  C:5E4DH         LINE#         112
  C:5E4FH         LINE#         114
  C:5E52H         LINE#         115
  C:5E54H         LINE#         116
  C:5E55H         LINE#         117
  C:5E56H         LINE#         118
  C:5E58H         LINE#         122
  C:5E59H         LINE#         130
  C:5E5BH         LINE#         131
  C:5E5DH         LINE#         132
  C:5E5FH         LINE#         133
  C:5E60H         LINE#         134
  C:5E61H         LINE#         135
  C:5E63H         LINE#         136
  C:5E64H         LINE#         137
  C:5E65H         LINE#         139
  C:5E66H         LINE#         140
  C:5E68H         LINE#         141
  C:5E6AH         LINE#         143
  C:5E6CH         LINE#         144
  C:5E6FH         LINE#         145
  C:5E71H         LINE#         146
  C:5E72H         LINE#         147
  C:5E73H         LINE#         148
  C:5E75H         LINE#         152
  C:5E76H         LINE#         159
  C:5E78H         LINE#         160
  C:5E7AH         LINE#         161
  C:5E7CH         LINE#         162
  C:5E7DH         LINE#         163
BL51 BANKED LINKER/LOCATER V6.05                                                      09/23/2016  17:07:17  PAGE 289


  C:5E7EH         LINE#         164
  C:5E80H         LINE#         165
  C:5E81H         LINE#         166
  C:5E82H         LINE#         168
  C:5E83H         LINE#         169
  C:5E85H         LINE#         170
  C:5E87H         LINE#         171
  C:5E89H         LINE#         173
  C:5E8CH         LINE#         174
  C:5E8EH         LINE#         175
  C:5E8FH         LINE#         176
  C:5E90H         LINE#         177
  C:5E92H         LINE#         180
  C:5E93H         LINE#         187
  C:5E95H         LINE#         188
  C:5E97H         LINE#         189
  C:5E99H         LINE#         190
  C:5E9AH         LINE#         191
  C:5E9BH         LINE#         192
  C:5E9DH         LINE#         193
  C:5E9EH         LINE#         194
  C:5E9FH         LINE#         196
  C:5EA0H         LINE#         197
  C:5EA2H         LINE#         198
  C:5EA4H         LINE#         200
  C:5EA6H         LINE#         202
  C:5EA9H         LINE#         203
  C:5EABH         LINE#         204
  C:5EACH         LINE#         205
  C:5EADH         LINE#         206
  C:5EAFH         LINE#         211
  C:5EB0H         LINE#         218
  C:5EB2H         LINE#         219
  C:5EB4H         LINE#         220
  C:5EB6H         LINE#         221
  C:5EB7H         LINE#         222
  C:5EB8H         LINE#         223
  C:5EBAH         LINE#         224
  C:5EBBH         LINE#         225
  C:5EBCH         LINE#         227
  C:5EBDH         LINE#         228
  C:5EBFH         LINE#         229
  C:5EC1H         LINE#         231
  C:5EC3H         LINE#         233
  C:5EC6H         LINE#         234
  C:5EC8H         LINE#         235
  C:5EC9H         LINE#         236
  C:5ECAH         LINE#         237
  C:5ECCH         LINE#         241
  C:5ECDH         LINE#         253
  C:5ECEH         LINE#         256
  C:5ECFH         LINE#         257
  C:5ED2H         LINE#         259
  C:5ED5H         LINE#         260
  C:5ED7H         LINE#         261
  C:5ED9H         LINE#         262
  C:5EDBH         LINE#         264
BL51 BANKED LINKER/LOCATER V6.05                                                      09/23/2016  17:07:17  PAGE 290


  C:5EDDH         LINE#         265
  C:5EDEH         LINE#         266
  C:5EDFH         LINE#         267
  C:5EE0H         LINE#         268
  C:5EE1H         LINE#         269
  C:5EE2H         LINE#         270
  C:5EE3H         LINE#         272
  C:5EE4H         LINE#         274
  C:5EE7H         LINE#         275
  C:5EE9H         LINE#         277
  C:5EEAH         LINE#         278
  C:5EEBH         LINE#         279
  C:5EECH         LINE#         281
  C:5EEFH         LINE#         283
  C:5EF0H         LINE#         287
  C:5EF2H         LINE#         288
  C:5EF3H         LINE#         290
  C:5EF6H         LINE#         292
  C:5EF9H         LINE#         293
  C:5EFBH         LINE#         294
  C:5EFDH         LINE#         296
  C:5EFFH         LINE#         298
  C:5F01H         LINE#         299
  C:5F02H         LINE#         300
  C:5F03H         LINE#         301
  C:5F04H         LINE#         302
  C:5F05H         LINE#         303
  C:5F06H         LINE#         304
  C:5F07H         LINE#         306
  C:5F08H         LINE#         307
  C:5F0AH         LINE#         309
  C:5F0DH         LINE#         310
  C:5F0FH         LINE#         312
  C:5F10H         LINE#         313
  C:5F11H         LINE#         314
  C:5F12H         LINE#         315
  C:5F14H         LINE#         317
  C:5F17H         LINE#         318
  C:5F18H         LINE#         332
  C:5F1BH         LINE#         334
  C:5F1EH         LINE#         335
  C:5F20H         LINE#         341
  C:5F21H         LINE#         342
  C:5F22H         LINE#         343
  C:5F25H         LINE#         345
  C:5F28H         LINE#         346
  C:5F29H         LINE#         347
  C:5F2BH         LINE#         350
  C:5F2EH         LINE#         351
  C:5F30H         LINE#         352
  C:5F31H         LINE#         353
  C:5F32H         LINE#         354
  C:5F33H         LINE#         355
  C:5F34H         LINE#         357
  C:5F35H         LINE#         358
  C:5F38H         LINE#         359
  C:5F39H         LINE#         360
BL51 BANKED LINKER/LOCATER V6.05                                                      09/23/2016  17:07:17  PAGE 291


  C:5F3BH         LINE#         362
  C:5F3DH         LINE#         363
  C:5F3FH         LINE#         367
  C:5F40H         LINE#         368
  C:5F41H         LINE#         369
  C:5F44H         LINE#         370
  C:5F47H         LINE#         371
  C:5F48H         LINE#         372
  C:5F4AH         LINE#         375
  C:5F4DH         LINE#         376
  C:5F4FH         LINE#         377
  C:5F50H         LINE#         378
  C:5F51H         LINE#         379
  C:5F52H         LINE#         380
  C:5F53H         LINE#         382
  C:5F54H         LINE#         383
  C:5F57H         LINE#         384
  C:5F58H         LINE#         385
  C:5F5AH         LINE#         387
  C:5F5CH         LINE#         392
  C:5F5DH         LINE#         414
  C:5F60H         LINE#         415
  C:5F62H         LINE#         416
  C:5F65H         LINE#         419
  C:5F68H         LINE#         421
  C:5F6BH         LINE#         422
  C:5F6DH         LINE#         426
  C:5F6FH         LINE#         428
  C:5F72H         LINE#         429
  C:5F74H         LINE#         430
  C:5F75H         LINE#         431
  C:5F76H         LINE#         439
  C:5F78H         LINE#         440
  C:5F7AH         LINE#         442
  C:5F7DH         LINE#         443
  C:5F7FH         LINE#         444
  C:5F81H         LINE#         445
  C:5F83H         LINE#         449
  C:5F85H         LINE#         453
  C:5F87H         LINE#         454
  C:5F89H         LINE#         456
  C:5F8CH         LINE#         457
  C:5F8EH         LINE#         458
  C:5F90H         LINE#         465
  C:5F92H         LINE#         466
  C:5F94H         LINE#         470
  C:5F97H         LINE#         475
  C:5F9AH         LINE#         476
  C:5F9BH         LINE#         477
  C:5F9CH         LINE#         478
  C:5F9FH         LINE#         480
  C:5FA1H         LINE#         482
  C:5FA2H         LINE#         483
  C:5FA4H         LINE#         486
  C:5FA6H         LINE#         487
  C:5FA7H         LINE#         488
  C:5FA8H         LINE#         491
BL51 BANKED LINKER/LOCATER V6.05                                                      09/23/2016  17:07:17  PAGE 292


  C:5FABH         LINE#         493
  C:5FACH         LINE#         494
  C:5FAEH         LINE#         496
  C:5FAFH         LINE#         497
  C:5FB1H         LINE#         500
  C:5FB4H         LINE#         502
  C:5FB7H         LINE#         503
  C:5FB8H         LINE#         504
  C:5FB9H         LINE#         505
  C:5FBBH         LINE#         507
  C:5FBEH         LINE#         509
  C:5FC0H         LINE#         510
  C:5FC3H         LINE#         511
  C:5FC5H         LINE#         514
  C:5FC7H         LINE#         516
  C:5FC8H         LINE#         517
  C:5FC9H         LINE#         518
  C:5FCAH         LINE#         519
  C:5FCBH         LINE#         521
  C:5FCEH         LINE#         529
  C:5FD0H         LINE#         530
  C:5FD2H         LINE#         537
  C:5FD5H         LINE#         538
  C:5FD8H         LINE#         539
  C:5FDBH         LINE#         540
  C:5FDEH         LINE#         541
  C:5FE1H         LINE#         542
  C:5FE4H         LINE#         543
  C:5FE6H         LINE#         551
  C:5FE9H         LINE#         553
  C:5FECH         LINE#         554
  C:5FEFH         LINE#         555
  C:5FF2H         LINE#         556
  C:5FF5H         LINE#         557
  C:5FF8H         LINE#         560
  C:5FFAH         LINE#         561
  C:5FFCH         LINE#         565
  C:5FFEH         LINE#         567
  C:5FFFH         LINE#         569
  C:6000H         LINE#         597
  C:6002H         LINE#         598
  C:6004H         LINE#         604
  C:6005H         LINE#         605
  C:6007H         LINE#         607
  C:600AH         LINE#         608
  C:600CH         LINE#         609
  C:600DH         LINE#         611
  C:6010H         LINE#         614
  C:6011H         LINE#         615
  C:6013H         LINE#         616
  C:6014H         LINE#         617
  C:6015H         LINE#         618
  C:6016H         LINE#         619
  C:6018H         LINE#         621
  C:601AH         LINE#         622
  C:601DH         LINE#         623
  C:601FH         LINE#         626
BL51 BANKED LINKER/LOCATER V6.05                                                      09/23/2016  17:07:17  PAGE 293


  C:6021H         LINE#         629
  C:6022H         LINE#         630
  C:6023H         LINE#         631
  C:6025H         LINE#         632
  C:6027H         LINE#         636
  C:6029H         LINE#         638
  C:602CH         LINE#         639
  C:602EH         LINE#         640
  C:602FH         LINE#         642
  C:6032H         LINE#         643
  C:6033H         LINE#         644
  C:6034H         LINE#         645
  C:6035H         LINE#         646
  C:6038H         LINE#         647
  C:603AH         LINE#         649
  C:603BH         LINE#         652
  C:603EH         LINE#         654
  C:603FH         LINE#         655
  C:6041H         LINE#         658
  C:6044H         LINE#         659
  C:6046H         LINE#         660
  C:6047H         LINE#         661
  C:6048H         LINE#         662
  C:6049H         LINE#         663
  C:604AH         LINE#         670
  C:604BH         LINE#         672
  C:604EH         LINE#         674
  C:604FH         LINE#         675
  C:6051H         LINE#         677
  C:6052H         LINE#         678
  C:6054H         LINE#         682
  C:6055H         LINE#         683
  C:6057H         LINE#         686
  C:6059H         LINE#         687
  C:605BH         LINE#         689
  C:605DH         LINE#         691
  C:6060H         LINE#         692
  C:6062H         LINE#         693
  C:6063H         LINE#         694
  C:6065H         LINE#         695
  C:6066H         LINE#         698
  C:6068H         LINE#         700
  C:606BH         LINE#         701
  C:606DH         LINE#         702
  C:606EH         LINE#         705
  C:606FH         LINE#         706
  C:6070H         LINE#         707
  C:6071H         LINE#         708
  C:6072H         LINE#         710
  C:6073H         LINE#         736
  C:6074H         LINE#         748
  C:6076H         LINE#         749
  C:6079H         LINE#         751
  C:607AH         LINE#         752
  C:607CH         LINE#         754
  C:607EH         LINE#         755
  C:6081H         LINE#         756
BL51 BANKED LINKER/LOCATER V6.05                                                      09/23/2016  17:07:17  PAGE 294


  C:6082H         LINE#         757
  C:6084H         LINE#         761
  C:6087H         LINE#         762
  C:6089H         LINE#         763
  C:608AH         LINE#         767
  C:608CH         LINE#         769
  C:608EH         LINE#         775
  C:6091H         LINE#         776
  C:6093H         LINE#         777
  C:6095H         LINE#         779
  C:6097H         LINE#         782
  C:6098H         LINE#         783
  C:6099H         LINE#         786
  C:609CH         LINE#         787
  C:609EH         LINE#         789
  C:60A0H         LINE#         791
  C:60A1H         LINE#         797
  C:60A4H         LINE#         798
  C:60A7H         LINE#         800
  C:60A8H         LINE#         801
  C:60AAH         LINE#         804
  C:60ADH         LINE#         805
  C:60B0H         LINE#         806
  C:60B1H         LINE#         807
  C:60B3H         LINE#         811
  C:60B6H         LINE#         812
  C:60B8H         LINE#         813
  C:60B9H         LINE#         817
  C:60BBH         LINE#         819
  C:60BDH         LINE#         825
  C:60C0H         LINE#         826
  C:60C2H         LINE#         827
  C:60C4H         LINE#         829
  C:60C6H         LINE#         830
  C:60C8H         LINE#         831
  C:60CAH         LINE#         832
  C:60CCH         LINE#         834
  C:60CEH         LINE#         837
  C:60CFH         LINE#         838
  C:60D0H         LINE#         841
  C:60D2H         LINE#         843
  C:60D5H         LINE#         844
  C:60D7H         LINE#         847
  C:60DAH         LINE#         849
  C:60DBH         LINE#         870
  C:60DDH         LINE#         871
  C:60DFH         LINE#         872
  C:60E1H         LINE#         873
  C:60E4H         LINE#         875
  C:60E5H         LINE#         876
  C:60E7H         LINE#         877
  C:60E8H         LINE#         878
  C:60E9H         LINE#         879
  C:60EAH         LINE#         883
  C:60EDH         LINE#         884
  C:60F0H         LINE#         885
  C:60F2H         LINE#         888
BL51 BANKED LINKER/LOCATER V6.05                                                      09/23/2016  17:07:17  PAGE 295


  C:60F4H         LINE#         889
  C:60F6H         LINE#         891
  C:60F9H         LINE#         892
  C:60FBH         LINE#         893
  C:60FCH         LINE#         894
  C:60FEH         LINE#         896
  C:60FFH         LINE#         898
  C:6101H         LINE#         899
  C:6103H         LINE#         901
  C:6106H         LINE#         902
  C:6108H         LINE#         903
  C:610AH         LINE#         904
  C:610CH         LINE#         912
  C:610EH         LINE#         916
  C:6110H         LINE#         917
  C:6112H         LINE#         919
  C:6115H         LINE#         920
  C:6117H         LINE#         921
  C:6119H         LINE#         928
  C:611BH         LINE#         932
  C:611EH         LINE#         933
  C:6120H         LINE#         936
  C:6122H         LINE#         937
  C:6124H         LINE#         939
  C:6127H         LINE#         940
  C:6128H         LINE#         941
  C:612AH         LINE#         944
  C:612DH         LINE#         945
  C:612FH         LINE#         946
  C:6130H         LINE#         947
  C:6131H         LINE#         948
  C:6132H         LINE#         949
  C:6133H         LINE#         952
  C:6134H         LINE#         953
  C:6136H         LINE#         955
  C:6137H         LINE#         956
  C:6139H         LINE#         958
  C:613AH         LINE#         960
  C:613CH         LINE#         971
  C:613DH         LINE#         972
  C:613FH         LINE#         976
  C:6140H         LINE#         977
  C:6141H         LINE#         978
  C:6142H         LINE#         979
  C:6143H         LINE#         981
  C:6145H         LINE#         982
  C:6147H         LINE#         984
  C:6148H         LINE#         1001
  C:614AH         LINE#         1002
  C:614CH         LINE#         1006
  C:614EH         LINE#         1008
  C:6151H         LINE#         1009
  C:6153H         LINE#         1010
  C:6154H         LINE#         1013
  C:6155H         LINE#         1015
  C:6157H         LINE#         1016
  C:6159H         LINE#         1018
BL51 BANKED LINKER/LOCATER V6.05                                                      09/23/2016  17:07:17  PAGE 296


  C:615CH         LINE#         1019
  C:615EH         LINE#         1020
  C:6160H         LINE#         1021
  C:6162H         LINE#         1025
  C:6164H         LINE#         1026
  C:6166H         LINE#         1029
  C:6168H         LINE#         1030
  C:616AH         LINE#         1031
  C:616BH         LINE#         1032
  C:616DH         LINE#         1034
  C:616FH         LINE#         1035
  C:6171H         LINE#         1038
  C:6172H         LINE#         1043
  C:6174H         LINE#         1045
  C:6177H         LINE#         1047
  C:617AH         LINE#         1048
  C:617DH         LINE#         1050
  C:617EH         LINE#         1051
  C:6180H         LINE#         1052
  C:6181H         LINE#         1053
  C:6182H         LINE#         1054
  C:6183H         LINE#         1058
  C:6186H         LINE#         1060
  C:6189H         LINE#         1061
  C:618BH         LINE#         1064
  C:618DH         LINE#         1065
  C:618FH         LINE#         1067
  C:6192H         LINE#         1068
  C:6194H         LINE#         1069
  C:6195H         LINE#         1070
  C:6197H         LINE#         1072
  C:6198H         LINE#         1074
  C:619AH         LINE#         1075
  C:619CH         LINE#         1077
  C:619EH         LINE#         1078
  C:61A1H         LINE#         1080
  C:61A3H         LINE#         1081
  C:61A5H         LINE#         1082
  C:61A7H         LINE#         1090
  C:61A9H         LINE#         1094
  C:61ABH         LINE#         1095
  C:61ADH         LINE#         1098
  C:61AFH         LINE#         1099
  C:61B2H         LINE#         1100
  C:61B4H         LINE#         1101
  C:61B6H         LINE#         1109
  C:61B8H         LINE#         1114
  C:61BAH         LINE#         1115
  C:61BDH         LINE#         1116
  C:61BFH         LINE#         1119
  C:61C1H         LINE#         1120
  C:61C3H         LINE#         1121
  C:61C6H         LINE#         1127
  C:61C9H         LINE#         1128
  C:61CBH         LINE#         1130
  C:61CEH         LINE#         1131
  C:61CFH         LINE#         1132
BL51 BANKED LINKER/LOCATER V6.05                                                      09/23/2016  17:07:17  PAGE 297


  C:61D1H         LINE#         1136
  C:61D4H         LINE#         1137
  C:61D6H         LINE#         1138
  C:61D7H         LINE#         1139
  C:61D8H         LINE#         1140
  C:61D9H         LINE#         1141
  C:61DAH         LINE#         1144
  C:61DBH         LINE#         1145
  C:61DDH         LINE#         1147
  C:61DEH         LINE#         1148
  C:61E0H         LINE#         1150
  C:61E1H         LINE#         1151
  C:61E3H         LINE#         1154
  C:61E4H         LINE#         1155
  C:61E6H         LINE#         1159
  C:61E7H         LINE#         1160
  C:61E8H         LINE#         1161
  C:61E9H         LINE#         1162
  C:61EAH         LINE#         1165
  C:61EDH         LINE#         1167
  C:61F0H         LINE#         1169
  C:61F1H         LINE#         1180
  C:61F2H         LINE#         1181
  C:61F3H         LINE#         1193
  C:61F6H         LINE#         1197
  C:61F7H         LINE#         1198
  C:61F8H         LINE#         1199
  C:61FBH         LINE#         1200
  C:61FEH         LINE#         1201
  C:61FFH         LINE#         1202
  C:6201H         LINE#         1205
  C:6204H         LINE#         1206
  C:6206H         LINE#         1207
  C:6207H         LINE#         1208
  C:6208H         LINE#         1209
  C:6209H         LINE#         1210
  C:620AH         LINE#         1212
  C:620BH         LINE#         1213
  C:620EH         LINE#         1214
  C:620FH         LINE#         1215
  C:6211H         LINE#         1217
  C:6213H         LINE#         1218
  C:6215H         LINE#         1222
  C:6216H         LINE#         1228
  C:6217H         LINE#         1230
  C:621AH         LINE#         1232
  C:621DH         LINE#         1233
  C:621FH         LINE#         1234
  C:6221H         LINE#         1236
  C:6224H         LINE#         1238
  C:6226H         LINE#         1239
  C:6227H         LINE#         1240
  C:6228H         LINE#         1241
  C:6229H         LINE#         1242
  C:622AH         LINE#         1243
  C:622BH         LINE#         1244
  C:622CH         LINE#         1246
BL51 BANKED LINKER/LOCATER V6.05                                                      09/23/2016  17:07:17  PAGE 298


  C:622DH         LINE#         1249
  C:6230H         LINE#         1250
  C:6231H         LINE#         1251
  C:6232H         LINE#         1252
  C:6233H         LINE#         1253
  C:6234H         LINE#         1254
  C:6235H         LINE#         1255
  C:6236H         LINE#         1256
  C:6238H         LINE#         1258
  C:6239H         LINE#         1259
  C:623AH         LINE#         1260
  C:623BH         LINE#         1263
  C:623EH         LINE#         1264
  C:623FH         LINE#         1268
  C:6241H         LINE#         1269
  C:6243H         LINE#         1270
  C:6245H         LINE#         1271
  C:6248H         LINE#         1273
  C:6249H         LINE#         1274
  C:624BH         LINE#         1275
  C:624CH         LINE#         1276
  C:624DH         LINE#         1277
  C:624EH         LINE#         1281
  C:6251H         LINE#         1282
  C:6254H         LINE#         1283
  C:6256H         LINE#         1286
  C:6258H         LINE#         1287
  C:625AH         LINE#         1289
  C:625DH         LINE#         1290
  C:625FH         LINE#         1291
  C:6260H         LINE#         1292
  C:6262H         LINE#         1294
  C:6264H         LINE#         1296
  C:6266H         LINE#         1297
  C:6268H         LINE#         1299
  C:626BH         LINE#         1300
  C:626DH         LINE#         1301
  C:626FH         LINE#         1302
  C:6271H         LINE#         1310
  C:6273H         LINE#         1314
  C:6275H         LINE#         1315
  C:6277H         LINE#         1317
  C:627AH         LINE#         1318
  C:627CH         LINE#         1319
  C:627EH         LINE#         1326
  C:6280H         LINE#         1330
  C:6283H         LINE#         1331
  C:6285H         LINE#         1334
  C:6287H         LINE#         1335
  C:6289H         LINE#         1337
  C:628CH         LINE#         1338
  C:628DH         LINE#         1339
  C:628FH         LINE#         1342
  C:6292H         LINE#         1343
  C:6294H         LINE#         1344
  C:6295H         LINE#         1345
  C:6296H         LINE#         1346
BL51 BANKED LINKER/LOCATER V6.05                                                      09/23/2016  17:07:17  PAGE 299


  C:6297H         LINE#         1347
  C:6298H         LINE#         1350
  C:6299H         LINE#         1351
  C:629BH         LINE#         1353
  C:629CH         LINE#         1354
  C:629EH         LINE#         1356
  C:629FH         LINE#         1358
  C:62A1H         LINE#         1369
  C:62A2H         LINE#         1370
  C:62A4H         LINE#         1374
  C:62A5H         LINE#         1375
  C:62A6H         LINE#         1376
  C:62A7H         LINE#         1377
  C:62A8H         LINE#         1379
  C:62AAH         LINE#         1380
  C:62ACH         LINE#         1382
  C:62ADH         LINE#         1386
  C:62AFH         LINE#         1391
  C:62B0H         LINE#         1392
  C:62B2H         LINE#         1394
  C:62B5H         LINE#         1395
  C:62B7H         LINE#         1396
  C:62B8H         LINE#         1398
  C:62BBH         LINE#         1401
  C:62BCH         LINE#         1402
  C:62BEH         LINE#         1403
  C:62BFH         LINE#         1404
  C:62C0H         LINE#         1405
  C:62C1H         LINE#         1408
  C:62C3H         LINE#         1409
  C:62C6H         LINE#         1410
  C:62C8H         LINE#         1413
  C:62CAH         LINE#         1416
  C:62CBH         LINE#         1417
  C:62CCH         LINE#         1418
  C:62CEH         LINE#         1419
  C:62D0H         LINE#         1423
  C:62D2H         LINE#         1425
  C:62D5H         LINE#         1426
  C:62D7H         LINE#         1427
  C:62D8H         LINE#         1429
  C:62DBH         LINE#         1430
  C:62DCH         LINE#         1431
  C:62DDH         LINE#         1432
  C:62DEH         LINE#         1433
  C:62E1H         LINE#         1434
  C:62E3H         LINE#         1436
  C:62E4H         LINE#         1439
  C:62E7H         LINE#         1441
  C:62E8H         LINE#         1442
  C:62EAH         LINE#         1445
  C:62EDH         LINE#         1446
  C:62EFH         LINE#         1447
  C:62F0H         LINE#         1448
  C:62F1H         LINE#         1449
  C:62F2H         LINE#         1450
  C:62F3H         LINE#         1457
BL51 BANKED LINKER/LOCATER V6.05                                                      09/23/2016  17:07:17  PAGE 300


  C:62F4H         LINE#         1458
  C:62F6H         LINE#         1460
  C:62F7H         LINE#         1461
  C:62F9H         LINE#         1463
  C:62FAH         LINE#         1464
  C:62FCH         LINE#         1468
  C:62FDH         LINE#         1469
  C:62FFH         LINE#         1472
  C:6301H         LINE#         1473
  C:6303H         LINE#         1475
  C:6305H         LINE#         1477
  C:6308H         LINE#         1478
  C:630AH         LINE#         1479
  C:630BH         LINE#         1480
  C:630DH         LINE#         1481
  C:630EH         LINE#         1484
  C:6310H         LINE#         1486
  C:6313H         LINE#         1487
  C:6315H         LINE#         1488
  C:6316H         LINE#         1491
  C:6317H         LINE#         1492
  C:6318H         LINE#         1493
  C:6319H         LINE#         1494
  C:631AH         LINE#         1496
  C:631BH         LINE#         1501
  C:631EH         LINE#         1502
  C:6320H         LINE#         1503
  C:6323H         LINE#         1506
  C:6326H         LINE#         1508
  C:6329H         LINE#         1509
  C:632BH         LINE#         1512
  C:632DH         LINE#         1514
  C:6330H         LINE#         1515
  C:6332H         LINE#         1516
  C:6333H         LINE#         1517
  C:6334H         LINE#         1524
  C:6336H         LINE#         1525
  C:6338H         LINE#         1527
  C:633BH         LINE#         1528
  C:633DH         LINE#         1529
  C:633FH         LINE#         1530
  C:6341H         LINE#         1534
  C:6343H         LINE#         1538
  C:6345H         LINE#         1539
  C:6347H         LINE#         1541
  C:634AH         LINE#         1542
  C:634CH         LINE#         1543
  C:634EH         LINE#         1550
  C:6350H         LINE#         1551
  C:6352H         LINE#         1555
  C:6355H         LINE#         1560
  C:6358H         LINE#         1561
  C:6359H         LINE#         1562
  C:635AH         LINE#         1563
  C:635DH         LINE#         1565
  C:635FH         LINE#         1567
  C:6360H         LINE#         1568
BL51 BANKED LINKER/LOCATER V6.05                                                      09/23/2016  17:07:17  PAGE 301


  C:6362H         LINE#         1571
  C:6364H         LINE#         1572
  C:6365H         LINE#         1573
  C:6366H         LINE#         1576
  C:6369H         LINE#         1578
  C:636AH         LINE#         1579
  C:636CH         LINE#         1581
  C:636DH         LINE#         1582
  C:636FH         LINE#         1585
  C:6372H         LINE#         1587
  C:6375H         LINE#         1588
  C:6376H         LINE#         1589
  C:6377H         LINE#         1590
  C:6379H         LINE#         1592
  C:637CH         LINE#         1594
  C:637EH         LINE#         1595
  C:6381H         LINE#         1596
  C:6383H         LINE#         1599
  C:6385H         LINE#         1601
  C:6386H         LINE#         1602
  C:6387H         LINE#         1603
  C:6388H         LINE#         1604
  C:6389H         LINE#         1606
  C:638CH         LINE#         1614
  C:638EH         LINE#         1615
  C:6390H         LINE#         1622
  C:6393H         LINE#         1623
  C:6396H         LINE#         1624
  C:6399H         LINE#         1625
  C:639CH         LINE#         1626
  C:639FH         LINE#         1627
  C:63A2H         LINE#         1628
  C:63A4H         LINE#         1636
  C:63A7H         LINE#         1638
  C:63AAH         LINE#         1639
  C:63ADH         LINE#         1640
  C:63B0H         LINE#         1641
  C:63B3H         LINE#         1642
  C:63B6H         LINE#         1645
  C:63B8H         LINE#         1646
  C:63BAH         LINE#         1650
  C:63BCH         LINE#         1652
  C:63BDH         LINE#         1654
  -------         ENDMOD        SERIAL

  -------         MODULE        TEST
  C:7972H         SEGMENT       ?PR?TEST?MATER
  C:78AEH         SEGMENT       ?PR?TEST?MATER2
  C:78FCH         PUBLIC        TEST_5823_LOOP
  C:78D6H         PUBLIC        _FUN_TEST_BEEP
  C:78D1H         PUBLIC        _FUN_TEST_CHECKRTCMODE
  C:78AFH         PUBLIC        _FUN_TEST_DISPLAY
  C:78CFH         PUBLIC        _FUN_TEST_DISPLAY02
  C:78F0H         PUBLIC        _FUN_TEST_GSMTX
  C:7972H         PUBLIC        _FUN_TEST_MASTER
  C:78D0H         PUBLIC        _FUN_TEST_RED
  C:78AEH         PUBLIC        _FUN_TEST_UARTDISPLAY
BL51 BANKED LINKER/LOCATER V6.05                                                      09/23/2016  17:07:17  PAGE 302


  D:00E0H         SYMBOL        ACC
  C:78ECH         SYMBOL        ASDFSFSDF
  N:009CH         SYMBOL        BRT
  B:0020H.0       SYMBOL        BUSY
  N:00FAH         SYMBOL        CCAP0H
  N:00EAH         SYMBOL        CCAP0L
  N:00FBH         SYMBOL        CCAP1H
  N:00EBH         SYMBOL        CCAP1L
  N:00FCH         SYMBOL        CCAP2H
  N:00ECH         SYMBOL        CCAP2L
  N:00FDH         SYMBOL        CCAP3H
  N:00EDH         SYMBOL        CCAP3L
  N:00FEH         SYMBOL        CCAP4H
  N:00EEH         SYMBOL        CCAP4L
  N:00FFH         SYMBOL        CCAP5H
  N:00EFH         SYMBOL        CCAP5L
  N:00DAH         SYMBOL        CCAPM0
  N:00DBH         SYMBOL        CCAPM1
  N:00DCH         SYMBOL        CCAPM2
  N:00DDH         SYMBOL        CCAPM3
  N:00DEH         SYMBOL        CCAPM4
  N:00DFH         SYMBOL        CCAPM5
  B:00D8H.0       SYMBOL        CCF0
  B:00D8H.1       SYMBOL        CCF1
  B:00D8H.2       SYMBOL        CCF2
  B:00D8H.3       SYMBOL        CCF3
  B:00D8H.4       SYMBOL        CCF4
  B:00D8H.5       SYMBOL        CCF5
  N:00D8H         SYMBOL        CCON
  B:00D8H.7       SYMBOL        CF
  N:00F9H         SYMBOL        CH
  N:00E9H         SYMBOL        CL
  N:00D9H         SYMBOL        CMOD
  N:0002H         SYMBOL        CONST_ACTIONTYPE_GETRAND
  N:0000H         SYMBOL        CONST_ACTIONTYPE_GETSECURE
  N:0004H         SYMBOL        CONST_ACTIONTYPE_SETMMI
  N:0001H         SYMBOL        CONST_ACTIONTYPE_SETSECURE
  N:0003H         SYMBOL        CONST_ACTIONTYPE_TRANSFERCHANNEL
  N:0003H         SYMBOL        CONST_ACT_H
  N:0001H         SYMBOL        CONST_ACT_H_H
  N:0000H         SYMBOL        CONST_ACT_H_L
  N:0001H         SYMBOL        CONST_ACT_L
  N:0006H         SYMBOL        CONST_ACT_L_H
  N:000AH         SYMBOL        CONST_ACT_L_L
  N:0002H         SYMBOL        CONST_ACT_M
  N:0000H         SYMBOL        CONST_ACT_M_H
  N:0006H         SYMBOL        CONST_ACT_M_L
  N:0002H         SYMBOL        CONST_ACT_V
  N:0002H         SYMBOL        CONST_BAUD_115200
  N:0003H         SYMBOL        CONST_BAUD_115200PC
  N:0004H         SYMBOL        CONST_BAUD_230000
  N:0001H         SYMBOL        CONST_BAUD_38400
  N:0005H         SYMBOL        CONST_BAUD_38400PC
  N:0000H         SYMBOL        CONST_BAUD_9600
  N:0006H         SYMBOL        CONST_BAUD_9600PC
  N:000CH         SYMBOL        CONST_BAUD_BITFULL12
  N:000EH         SYMBOL        CONST_BAUD_BITFULL20
BL51 BANKED LINKER/LOCATER V6.05                                                      09/23/2016  17:07:17  PAGE 303


  N:0010H         SYMBOL        CONST_BAUD_BITFULL28
  N:000BH         SYMBOL        CONST_BAUD_BITFULL8
  N:000CH         SYMBOL        CONST_BAUD_BITHALF12
  N:00B3H         SYMBOL        CONST_BAUD_CURRENTBITFULL
  N:0058H         SYMBOL        CONST_BAUD_CURRENTBITHALF
  N:001DH         SYMBOL        CONST_BAUD_FULL115200
  N:000FH         SYMBOL        CONST_BAUD_FULL230000
  N:005DH         SYMBOL        CONST_BAUD_FULL38400
  N:00B3H         SYMBOL        CONST_BAUD_FULL9600
  N:000DH         SYMBOL        CONST_BAUD_HALF115200
  N:0008H         SYMBOL        CONST_BAUD_HALF230000
  N:002DH         SYMBOL        CONST_BAUD_HALF38400
  N:0058H         SYMBOL        CONST_BAUD_HALF9600
  N:00F8H         SYMBOL        CONST_BAUD_HAND115200
  N:00F3H         SYMBOL        CONST_BAUD_HAND115200PC
  N:00FCH         SYMBOL        CONST_BAUD_HAND230000
  N:00E9H         SYMBOL        CONST_BAUD_HAND38400
  N:00D8H         SYMBOL        CONST_BAUD_HAND38400PC
  N:00A3H         SYMBOL        CONST_BAUD_HAND9600
  N:0060H         SYMBOL        CONST_BAUD_HAND9600PC
  N:00FFH         SYMBOL        CONST_BLACK_H
  N:00FFH         SYMBOL        CONST_BLACK_L
  N:0014H         SYMBOL        CONST_BLUETOOTH_WORKTIME
  N:0020H         SYMBOL        CONST_BSTLIMIT
  N:0064H         SYMBOL        CONST_BSTLIMIT02
  N:0016H         SYMBOL        CONST_CARD_CONSUME
  N:0017H         SYMBOL        CONST_CARD_PASS
  N:0000H         SYMBOL        CONST_CELLFILE_H
  N:0009H         SYMBOL        CONST_CELLFILE_L
  N:0001H         SYMBOL        CONST_DPH_NORMAL
  N:0001H         SYMBOL        CONST_DPH_ONE
  N:0003H         SYMBOL        CONST_DPH_SERX
  N:0000H         SYMBOL        CONST_DPH_SETX
  N:0003H         SYMBOL        CONST_DPH_THREE
  N:0002H         SYMBOL        CONST_DPH_TWO
  N:0000H         SYMBOL        CONST_DPH_ZERO
  N:0007H         SYMBOL        CONST_DSRC_ACTION
  N:0009H         SYMBOL        CONST_DSRC_ACTIONTYPE
  N:0001H         SYMBOL        CONST_DSRC_CHANNELIDICC
  N:0002H         SYMBOL        CONST_DSRC_CHANNELIDSAM
  N:000AH         SYMBOL        CONST_DSRC_CONTAIN
  N:0008H         SYMBOL        CONST_DSRC_DID
  N:0000H         SYMBOL        CONST_DSRC_FILDIDAPPKEY
  N:0002H         SYMBOL        CONST_DSRC_FILDIDCONSUME
  N:0003H         SYMBOL        CONST_DSRC_FILDIDHOLD
  N:0001H         SYMBOL        CONST_DSRC_FILDIDVEHICLE
  N:000BH         SYMBOL        CONST_DSRC_FILL
  N:0006H         SYMBOL        CONST_DSRC_HEAD
  N:0005H         SYMBOL        CONST_DSRC_LLCCTRL
  N:0004H         SYMBOL        CONST_DSRC_MACCTRL
  N:0003H         SYMBOL        CONST_ETC_INPUT
  N:0002H         SYMBOL        CONST_FALSH_PREFLAG02H
  N:00F4H         SYMBOL        CONST_FALSH_PREFLAG02L
  N:0002H         SYMBOL        CONST_FALSH_PREFLAG03H
  N:00F5H         SYMBOL        CONST_FALSH_PREFLAG03L
  N:0002H         SYMBOL        CONST_FALSH_PREFLAG04H
  N:00F6H         SYMBOL        CONST_FALSH_PREFLAG04L
BL51 BANKED LINKER/LOCATER V6.05                                                      09/23/2016  17:07:17  PAGE 304


  N:0002H         SYMBOL        CONST_FALSH_PREFLAGH
  N:00F3H         SYMBOL        CONST_FALSH_PREFLAGL
  N:0001H         SYMBOL        CONST_FALSH_PREFLAGLEN
  N:0004H         SYMBOL        CONST_FLASHADD_BEACONIDUNIXTIMEH
  N:0000H         SYMBOL        CONST_FLASHADD_BEACONIDUNIXTIMEL
  N:0002H         SYMBOL        CONST_FLASH_0002H
  N:0058H         SYMBOL        CONST_FLASH_0002L
  N:0004H         SYMBOL        CONST_FLASH_0002LEN
  N:0002H         SYMBOL        CONST_FLASH_0012H
  N:005CH         SYMBOL        CONST_FLASH_0012L
  N:0028H         SYMBOL        CONST_FLASH_0012LEN
  N:0002H         SYMBOL        CONST_FLASH_0015H
  N:0084H         SYMBOL        CONST_FLASH_0015L
  N:0032H         SYMBOL        CONST_FLASH_0015LEN
  N:002BH         SYMBOL        CONST_FLASH_0015LENOLD
  N:002BH         SYMBOL        CONST_FLASH_0019GBLEN
  N:0002H         SYMBOL        CONST_FLASH_0019H
  N:00B6H         SYMBOL        CONST_FLASH_0019L
  N:003CH         SYMBOL        CONST_FLASH_0019LEN
  N:003FH         SYMBOL        CONST_FLASH_0019NEWGDLEN
  N:0004H         SYMBOL        CONST_FLASH_BEACONIDUNIXTIMEH
  N:0000H         SYMBOL        CONST_FLASH_BEACONIDUNIXTIMEL
  N:0008H         SYMBOL        CONST_FLASH_BEACONIDUNIXTIMELEN
  N:0002H         SYMBOL        CONST_FLASH_BLOCK01
  N:0001H         SYMBOL        CONST_FLASH_CARDTYPELEN
  N:00F3H         SYMBOL        CONST_FLASH_FILELEN
  N:0002H         SYMBOL        CONST_FLASH_LASTCARDH
  N:00F2H         SYMBOL        CONST_FLASH_LASTCARDL
  N:0002H         SYMBOL        CONST_FLASH_STARTHIGH
  N:0000H         SYMBOL        CONST_FLASH_STARTLOW
  N:0002H         SYMBOL        CONST_FLASH_SYSINFOH
  N:0000H         SYMBOL        CONST_FLASH_SYSINFOL
  N:0058H         SYMBOL        CONST_FLASH_SYSINFOLEN
  N:0002H         SYMBOL        CONST_GDO2_MCSM2
  N:0046H         SYMBOL        CONST_GDO2_VALUE
  N:00F0H         SYMBOL        CONST_GSM_MAXNUM
  N:0008H         SYMBOL        CONST_GSM_NUM
  N:0014H         SYMBOL        CONST_GSM_PJNUM
  N:0015H         SYMBOL        CONST_HANDSECOND
  N:0002H         SYMBOL        CONST_LHX_FLAG
  N:0005H         SYMBOL        CONST_MAX_RXNUM
  N:0008H         SYMBOL        CONST_MCU_WKCTH
  N:00FFH         SYMBOL        CONST_MCU_WKCTL
  N:0002H         SYMBOL        CONST_MF_DECREMENT
  N:0003H         SYMBOL        CONST_MF_INCREMENT
  N:00C0H         SYMBOL        CONST_MF_RC500DECREMENT
  N:00C1H         SYMBOL        CONST_MF_RC500INCREMENT
  N:0000H         SYMBOL        CONST_MF_READ
  N:0004H         SYMBOL        CONST_MF_RESTOR
  N:0001H         SYMBOL        CONST_MF_WRITE
  N:0001H         SYMBOL        CONST_MTC_INPUT
  N:0018H         SYMBOL        CONST_PPS_115200
  N:0096H         SYMBOL        CONST_PPS_230000
  N:0013H         SYMBOL        CONST_PPS_38400
  N:0010H         SYMBOL        CONST_PPS_9600
  N:0001H         SYMBOL        CONST_PRO_4SPEED
  N:00FAH         SYMBOL        CONST_PRO_OVERTIME2S
BL51 BANKED LINKER/LOCATER V6.05                                                      09/23/2016  17:07:17  PAGE 305


  N:0090H         SYMBOL        CONST_RTCOVERFLOW
  N:00FFH         SYMBOL        CONST_RTC_OFF
  N:0055H         SYMBOL        CONST_RTC_ON
  N:000AH         SYMBOL        CONST_SE_CHANNEL
  N:0000H         SYMBOL        CONST_SE_RXBUF
  N:0000H         SYMBOL        CONST_SE_TXBUF
  N:0000H         SYMBOL        CONST_SOF
  N:0014H         SYMBOL        CONST_SOFTBYTESP
  N:0010H         SYMBOL        CONST_SOFTFIRSTSCANTIME
  N:00FFH         SYMBOL        CONST_SOFTFIRSTSCANTIMEXX
  N:0070H         SYMBOL        CONST_SOFTSECOND
  N:000CH         SYMBOL        CONST_SSRC_FID
  N:0007H         SYMBOL        CONST_STATE_5823INIER
  N:0008H         SYMBOL        CONST_STATE_5823SLEEPER
  N:0003H         SYMBOL        CONST_STATE_ACCEPTOVER
  N:0004H         SYMBOL        CONST_STATE_ACCEPTOVERLEN
  N:0006H         SYMBOL        CONST_STATE_ACTCARDINVALID
  N:0004H         SYMBOL        CONST_STATE_ACTIVEFAIL
  N:0006H         SYMBOL        CONST_STATE_AUTHER
  N:001DH         SYMBOL        CONST_STATE_BASE01ANTICOLL
  N:0015H         SYMBOL        CONST_STATE_BASE01CONTACT
  N:0014H         SYMBOL        CONST_STATE_BASE01ESAMDF01
  N:001FH         SYMBOL        CONST_STATE_BASE01RATS
  N:001CH         SYMBOL        CONST_STATE_BASE01RE
  N:001EH         SYMBOL        CONST_STATE_BASE01SEL
  N:0019H         SYMBOL        CONST_STATE_BASE02ANTICOLL
  N:0016H         SYMBOL        CONST_STATE_BASE02CONTACT
  N:001BH         SYMBOL        CONST_STATE_BASE02RATS
  N:0018H         SYMBOL        CONST_STATE_BASE02RE
  N:001AH         SYMBOL        CONST_STATE_BASE02SEL
  N:000BH         SYMBOL        CONST_STATE_BASEESAMDF01
  N:0013H         SYMBOL        CONST_STATE_BASEN01INIT
  N:000AH         SYMBOL        CONST_STATE_BASENINIT
  N:000DH         SYMBOL        CONST_STATE_CARDPREDEAL0002
  N:000EH         SYMBOL        CONST_STATE_CARDPREDEAL0012
  N:000FH         SYMBOL        CONST_STATE_CARDPREDEAL0015
  N:0010H         SYMBOL        CONST_STATE_CARDPREDEAL0019
  N:000CH         SYMBOL        CONST_STATE_CARDPREDEAL1001
  N:0011H         SYMBOL        CONST_STATE_CARDPREDEAL3F00
  N:0012H         SYMBOL        CONST_STATE_CARDPREDEAL81
  N:0023H         SYMBOL        CONST_STATE_ESAMER
  N:0021H         SYMBOL        CONST_STATE_EXMEMORYER
  N:0022H         SYMBOL        CONST_STATE_EXMEMORYER02
  N:00FFH         SYMBOL        CONST_STATE_FALSE
  N:0009H         SYMBOL        CONST_STATE_GETSECURESELFILEER
  N:0005H         SYMBOL        CONST_STATE_ILLEGALACTCARD
  N:0002H         SYMBOL        CONST_STATE_ILLEGALINPUTCARD
  N:0003H         SYMBOL        CONST_STATE_INPUTCARDINVALID
  N:0001H         SYMBOL        CONST_STATE_INPUTFAIL
  N:0020H         SYMBOL        CONST_STATE_MEMORYER
  N:0005H         SYMBOL        CONST_STATE_RSTCPUER
  N:0001H         SYMBOL        CONST_STATE_SERIALACCPET
  N:0002H         SYMBOL        CONST_STATE_SERIALOVERTIME
  N:0017H         SYMBOL        CONST_STATE_TEST
  N:0000H         SYMBOL        CONST_STATE_TRUE
  N:0055H         SYMBOL        CONST_SYS_55
  N:00AAH         SYMBOL        CONST_SYS_AA
BL51 BANKED LINKER/LOCATER V6.05                                                      09/23/2016  17:07:17  PAGE 306


  N:0004H         SYMBOL        CONST_SYS_OBUIDLEN
  N:000AH         SYMBOL        CONST_SYS_POWERONTIMER
  N:0088H         SYMBOL        CONST_SYS_PREFLAG
  N:0064H         SYMBOL        CONST_SYS_RTCOVERTIME
  N:00FFH         SYMBOL        CONST_SYS_TRADECONFINE
  N:0001H         SYMBOL        CONST_TIMEER02
  N:00FEH         SYMBOL        CONST_TIMEER03
  N:0001H         SYMBOL        CONST_TIMEER04
  N:00FFH         SYMBOL        CONST_VSTLIMIT
  N:0000H         SYMBOL        CONST_WHITE_H
  N:0031H         SYMBOL        CONST_WHITE_L
  N:0000H         SYMBOL        CONST_WORKSTAION_0
  N:0001H         SYMBOL        CONST_WORKSTAION_1
  N:0002H         SYMBOL        CONST_WORKSTAION_2
  N:0003H         SYMBOL        CONST_WORKSTAION_3
  N:0000H         SYMBOL        CONST_XDATA_TXBUF02
  N:0080H         SYMBOL        CONST_XDATA_TXBUF02LEN
  B:00D8H.6       SYMBOL        CR
  B:00A8H.6       SYMBOL        EPCAI
  B:00A8H.6       SYMBOL        EPCA_LVD
  D:00A8H         SYMBOL        IE
  N:00AFH         SYMBOL        IE2
  N:00B7H         SYMBOL        IPH
  N:00C7H         SYMBOL        ISP_CONTR
  C:78E3H         SYMBOL        OBUMAIN_WAVEACTIVE_BFLOOP
  C:78E3H         SYMBOL        OBUMAIN_WAVEACTIVE_LYLOOP
  C:78C6H         SYMBOL        OO0KK
  C:78D3H         SYMBOL        OO0KK02
  C:78CFH         SYMBOL        OO0KK2
  D:0080H         SYMBOL        P0
  D:0090H         SYMBOL        P1
  D:00A0H         SYMBOL        P2
  D:00B0H         SYMBOL        P3
  N:00C0H         SYMBOL        P4
  N:00F2H         SYMBOL        PCA_PWM0
  N:00F3H         SYMBOL        PCA_PWM1
  N:00F4H         SYMBOL        PCA_PWM2
  N:00F5H         SYMBOL        PCA_PWM3
  N:00F6H         SYMBOL        PCA_PWM4
  N:00F7H         SYMBOL        PCA_PWM5
  B:0080H.4       SYMBOL        PIN_522_MISO
  B:0080H.5       SYMBOL        PIN_522_MOSI
  B:00C0H.6       SYMBOL        PIN_522_RST
  B:0080H.7       SYMBOL        PIN_522_SCLK
  B:0080H.6       SYMBOL        PIN_522_SS
  B:0090H.0       SYMBOL        PIN_5823BK_CS
  B:0090H.2       SYMBOL        PIN_5823BK_IRQ
  B:0080H.0       SYMBOL        PIN_5823BK_MISO
  B:0080H.1       SYMBOL        PIN_5823BK_MOSI
  B:00C0H.2       SYMBOL        PIN_5823BK_SCLK
  B:0080H.3       SYMBOL        PIN_BELL_01
  B:0080H.2       SYMBOL        PIN_BELL_02
  B:0090H.1       SYMBOL        PIN_BK_CE
  B:00B0H.3       SYMBOL        PIN_CARD_EXIST
  B:0090H.6       SYMBOL        PIN_CC1101_GDO2
  B:00B0H.7       SYMBOL        PIN_CC1101_MISO
  B:00A0H.3       SYMBOL        PIN_CC1101_MOSI
BL51 BANKED LINKER/LOCATER V6.05                                                      09/23/2016  17:07:17  PAGE 307


  B:00A0H.2       SYMBOL        PIN_CC1101_SCLK
  B:00B0H.6       SYMBOL        PIN_CC1101_SS
  B:00A0H.5       SYMBOL        PIN_ESAM_RST
  B:00A0H.6       SYMBOL        PIN_ESAM_RX
  B:00A0H.6       SYMBOL        PIN_ESAM_TX
  B:00C0H.5       SYMBOL        PIN_GRE
  B:0090H.4       SYMBOL        PIN_LCD_CS
  B:0090H.7       SYMBOL        PIN_LCD_DC
  B:0090H.5       SYMBOL        PIN_LCD_RST
  B:00B0H.4       SYMBOL        PIN_LCD_SCL
  B:00C0H.3       SYMBOL        PIN_LCD_SDA
  B:00A0H.7       SYMBOL        PIN_PWRDWN
  B:0090H.3       SYMBOL        PIN_PWRDWN_LCD
  B:00A0H.4       SYMBOL        PIN_PWR_GSM
  B:00A0H.1       SYMBOL        PIN_PWR_LOWIO
  B:00C0H.1       SYMBOL        PIN_RED
  B:00B0H.0       SYMBOL        PIN_SOFTSERIALRX
  B:00B0H.1       SYMBOL        PIN_SOFTSERIALTXH
  B:00B0H.5       SYMBOL        PIN_UNFIX
  B:00A0H.0       SYMBOL        PIN_WAVE_CHANNEL1
  N:00C0H         SYMBOL        READ_BURST
  N:00A2H         SYMBOL        REG_51_AUXR1
  N:008EH         SYMBOL        REG_5412AD_AUXR
  N:0094H         SYMBOL        REG_5412AD_P0M0
  N:0093H         SYMBOL        REG_5412AD_P0M1
  N:0092H         SYMBOL        REG_5412AD_P1M0
  N:0091H         SYMBOL        REG_5412AD_P1M1
  N:0096H         SYMBOL        REG_5412AD_P2M0
  N:0095H         SYMBOL        REG_5412AD_P2M1
  N:00B2H         SYMBOL        REG_5412AD_P3M0
  N:00B1H         SYMBOL        REG_5412AD_P3M1
  N:00B4H         SYMBOL        REG_5412AD_P4M0
  N:00B3H         SYMBOL        REG_5412AD_P4M1
  N:00BBH         SYMBOL        REG_5412AD_P4SW
  N:0085H         SYMBOL        REG_5412AD_SPCTL
  N:0086H         SYMBOL        REG_5412AD_SPDAT
  N:0084H         SYMBOL        REG_5412AD_SPSTAT
  N:00ABH         SYMBOL        REG_MCU_WKCTH
  N:00AAH         SYMBOL        REG_MCU_WKCTL
  N:000DH         SYMBOL        REG_RC522_BITFRAMINGREG
  N:000EH         SYMBOL        REG_RC522_COLLREG
  N:0002H         SYMBOL        REG_RC522_COMIENREG
  N:0004H         SYMBOL        REG_RC522_COMIRQREG
  N:0001H         SYMBOL        REG_RC522_COMMANDREG
  N:000CH         SYMBOL        REG_RC522_CONTROLREG
  N:0021H         SYMBOL        REG_RC522_CRCRESULTREGH
  N:0022H         SYMBOL        REG_RC522_CRCRESULTREGL
  N:0028H         SYMBOL        REG_RC522_CWGSPREG
  N:0019H         SYMBOL        REG_RC522_DEMODREG
  N:0003H         SYMBOL        REG_RC522_DIVIENREG
  N:0005H         SYMBOL        REG_RC522_DIVIRQREG
  N:0006H         SYMBOL        REG_RC522_ERRORREG
  N:0009H         SYMBOL        REG_RC522_FIFODATAREG
  N:000AH         SYMBOL        REG_RC522_FIFOLEVELREG
  N:0027H         SYMBOL        REG_RC522_GSNREG
  N:001CH         SYMBOL        REG_RC522_MIFAREREG
  N:0011H         SYMBOL        REG_RC522_MODEREG
BL51 BANKED LINKER/LOCATER V6.05                                                      09/23/2016  17:07:17  PAGE 308


  N:0029H         SYMBOL        REG_RC522_MODGSPREG
  N:0024H         SYMBOL        REG_RC522_MODWIDTHREG
  N:0000H         SYMBOL        REG_RC522_RC522PAGE
  N:0026H         SYMBOL        REG_RC522_RFCFGREG
  N:000FH         SYMBOL        REG_RC522_RFU
  N:0013H         SYMBOL        REG_RC522_RXMODEREG
  N:0017H         SYMBOL        REG_RC522_RXSELREG
  N:0018H         SYMBOL        REG_RC522_RXTHRESHOLDREG
  N:001FH         SYMBOL        REG_RC522_SERIALSPEEDREG
  N:0007H         SYMBOL        REG_RC522_STATUS1REG
  N:0008H         SYMBOL        REG_RC522_STATUS2REG
  N:002EH         SYMBOL        REG_RC522_TCOUNTERVALUEREGH
  N:002FH         SYMBOL        REG_RC522_TCOUNTERVALUEREGL
  N:002AH         SYMBOL        REG_RC522_TMODEREG
  N:002BH         SYMBOL        REG_RC522_TPRESCALERREG
  N:002CH         SYMBOL        REG_RC522_TRELOADREGH
  N:002DH         SYMBOL        REG_RC522_TRELOADREGL
  N:0015H         SYMBOL        REG_RC522_TXAUTOREG
  N:0014H         SYMBOL        REG_RC522_TXCONTROLREG
  N:0012H         SYMBOL        REG_RC522_TXMODEREG
  N:0016H         SYMBOL        REG_RC522_TXSELREG
  N:000BH         SYMBOL        REG_RC522_WATERLEVELREG
  N:009CH         SYMBOL        REG_SYS_BRT
  N:008FH         SYMBOL        REG_WAKECLK0
  B:00D8H.4       SYMBOL        REG_WAKECLK_04
  B:00D8H.5       SYMBOL        REG_WAKECLK_05
  N:00C1H         SYMBOL        REG_WDT_CONTR
  N:00EAH         SYMBOL        RELOAD2_CONTR
  N:009BH         SYMBOL        S2BUF
  N:009AH         SYMBOL        S2CON
  C:78EAH         SYMBOL        SDFSFSDFS
  C:78D2H         SYMBOL        SFDSDFDSCCC6
  C:0000H         SYMBOL        STR_CONTACT_DATA
  C:0000H         SYMBOL        STR_CONTACT_DATA2
  C:0000H         SYMBOL        STR_CONTACT_RDFILE
  C:0000H         SYMBOL        STR_DSRC_VST02
  C:0000H         SYMBOL        STR_ERRTX
  C:0000H         SYMBOL        STR_TEST_HV
  N:0000H         SYMBOL        TEST
  C:78FCH         SYMBOL        TEST_5823_RXLOOP02
  C:78D6H         SYMBOL        TEST_BEEP_LOOP
  C:78EBH         SYMBOL        TEST_CARD02_OVER
  C:78F9H         SYMBOL        TEST_CC1101_03OVER
  C:78FAH         SYMBOL        TEST_CC1101_04OVER
  C:78F7H         SYMBOL        TEST_CC1101_S
  C:78F7H         SYMBOL        TEST_CC1101_S_OVER
  C:78E0H         SYMBOL        TEST_FB_OVER
  C:78E7H         SYMBOL        TEST_GSM02_LOOP
  C:78E7H         SYMBOL        TEST_GSM02_LOOP01
  C:78F2H         SYMBOL        TEST_GSMRX_OVER
  C:78F0H         SYMBOL        TEST_GSMTX_OVER
  C:78E6H         SYMBOL        TEST_GSM_LOOP
  C:78E6H         SYMBOL        TEST_GSM_LOOP01
  C:78E5H         SYMBOL        TEST_HDLCTX_LOOP
  C:78E8H         SYMBOL        TEST_HDLC_LOOP01
  C:78E8H         SYMBOL        TEST_HDLC_LOOP02
  C:7975H         SYMBOL        TEST_MASTER_OVER
BL51 BANKED LINKER/LOCATER V6.05                                                      09/23/2016  17:07:17  PAGE 309


  C:78E2H         SYMBOL        TEST_RANDDELAYLOOP
  C:78E4H         SYMBOL        TEST_TXPRO02_LOOP
  C:78E1H         SYMBOL        TEST_TZ_LOOP
  C:78AEH         SYMBOL        TEST_UARTDISPLAY_OVER
  C:78AEH         SYMBOL        TEST_UARTDISPLAY_RETURN
  C:78AEH         SYMBOL        TEST_UARTDISPLAY_STOP
  C:78AEH         SYMBOL        TEST_UARTDISPLAY_XDATA
  C:78F5H         SYMBOL        TEST_WAVEET6601TX_LOOP
  C:78F4H         SYMBOL        TEST_WAVEET6601ZB_LOOP
  N:0009H         SYMBOL        TI_CCXXX0_ADDR
  N:001DH         SYMBOL        TI_CCXXX0_AGCCTRL0
  N:001CH         SYMBOL        TI_CCXXX0_AGCCTRL1
  N:001BH         SYMBOL        TI_CCXXX0_AGCCTRL2
  N:002BH         SYMBOL        TI_CCXXX0_AGCTEST
  N:001AH         SYMBOL        TI_CCXXX0_BSCFG
  N:000AH         SYMBOL        TI_CCXXX0_CHANNR
  N:0015H         SYMBOL        TI_CCXXX0_DEVIATN
  N:0003H         SYMBOL        TI_CCXXX0_FIFOTHR
  N:0019H         SYMBOL        TI_CCXXX0_FOCCFG
  N:0022H         SYMBOL        TI_CCXXX0_FREND0
  N:0021H         SYMBOL        TI_CCXXX0_FREND1
  N:000FH         SYMBOL        TI_CCXXX0_FREQ0
  N:000EH         SYMBOL        TI_CCXXX0_FREQ1
  N:000DH         SYMBOL        TI_CCXXX0_FREQ2
  N:0032H         SYMBOL        TI_CCXXX0_FREQEST
  N:0026H         SYMBOL        TI_CCXXX0_FSCAL0
  N:0025H         SYMBOL        TI_CCXXX0_FSCAL1
  N:0024H         SYMBOL        TI_CCXXX0_FSCAL2
  N:0023H         SYMBOL        TI_CCXXX0_FSCAL3
  N:000CH         SYMBOL        TI_CCXXX0_FSCTRL0
  N:000BH         SYMBOL        TI_CCXXX0_FSCTRL1
  N:0029H         SYMBOL        TI_CCXXX0_FSTEST
  N:0002H         SYMBOL        TI_CCXXX0_IOCFG0
  N:0001H         SYMBOL        TI_CCXXX0_IOCFG1
  N:0000H         SYMBOL        TI_CCXXX0_IOCFG2
  N:0033H         SYMBOL        TI_CCXXX0_LQI
  N:0035H         SYMBOL        TI_CCXXX0_MARCSTATE
  N:0018H         SYMBOL        TI_CCXXX0_MCSM0
  N:0017H         SYMBOL        TI_CCXXX0_MCSM1
  N:0016H         SYMBOL        TI_CCXXX0_MCSM2
  N:0014H         SYMBOL        TI_CCXXX0_MDMCFG0
  N:0013H         SYMBOL        TI_CCXXX0_MDMCFG1
  N:0012H         SYMBOL        TI_CCXXX0_MDMCFG2
  N:0011H         SYMBOL        TI_CCXXX0_MDMCFG3
  N:0010H         SYMBOL        TI_CCXXX0_MDMCFG4
  N:007FH         SYMBOL        TI_CCXXX0_NUM_RXBYTES
  N:0030H         SYMBOL        TI_CCXXX0_PARTNUM
  N:003EH         SYMBOL        TI_CCXXX0_PATABLE
  N:0008H         SYMBOL        TI_CCXXX0_PKTCTRL0
  N:0007H         SYMBOL        TI_CCXXX0_PKTCTRL1
  N:0006H         SYMBOL        TI_CCXXX0_PKTLEN
  N:0038H         SYMBOL        TI_CCXXX0_PKTSTATUS
  N:002AH         SYMBOL        TI_CCXXX0_PTEST
  N:0028H         SYMBOL        TI_CCXXX0_RCCTRL0
  N:0027H         SYMBOL        TI_CCXXX0_RCCTRL1
  N:0034H         SYMBOL        TI_CCXXX0_RSSI
  N:003BH         SYMBOL        TI_CCXXX0_RXBYTES
BL51 BANKED LINKER/LOCATER V6.05                                                      09/23/2016  17:07:17  PAGE 310


  N:003FH         SYMBOL        TI_CCXXX0_RXFIFO
  N:0037H         SYMBOL        TI_CCXXX0_SAFC
  N:0033H         SYMBOL        TI_CCXXX0_SCAL
  N:003AH         SYMBOL        TI_CCXXX0_SFRX
  N:003BH         SYMBOL        TI_CCXXX0_SFTX
  N:0036H         SYMBOL        TI_CCXXX0_SIDLE
  N:003DH         SYMBOL        TI_CCXXX0_SNOP
  N:0039H         SYMBOL        TI_CCXXX0_SPWD
  N:0030H         SYMBOL        TI_CCXXX0_SRES
  N:0034H         SYMBOL        TI_CCXXX0_SRX
  N:0035H         SYMBOL        TI_CCXXX0_STX
  N:0038H         SYMBOL        TI_CCXXX0_SWOR
  N:003CH         SYMBOL        TI_CCXXX0_SWORRST
  N:0032H         SYMBOL        TI_CCXXX0_SXOFF
  N:0005H         SYMBOL        TI_CCXXX0_SYNC0
  N:0004H         SYMBOL        TI_CCXXX0_SYNC1
  N:002EH         SYMBOL        TI_CCXXX0_TEST0
  N:002DH         SYMBOL        TI_CCXXX0_TEST1
  N:002CH         SYMBOL        TI_CCXXX0_TEST2
  N:003AH         SYMBOL        TI_CCXXX0_TXBYTES
  N:003FH         SYMBOL        TI_CCXXX0_TXFIFO
  N:0039H         SYMBOL        TI_CCXXX0_VCO_VC_DAC
  N:0031H         SYMBOL        TI_CCXXX0_VERSION
  N:0020H         SYMBOL        TI_CCXXX0_WORCTRL
  N:001FH         SYMBOL        TI_CCXXX0_WOREVT0
  N:001EH         SYMBOL        TI_CCXXX0_WOREVT1
  N:0037H         SYMBOL        TI_CCXXX0_WORTIME0
  N:0036H         SYMBOL        TI_CCXXX0_WORTIME1
  N:008FH         SYMBOL        WAKE_CLKO
  B:00B0H.2       SYMBOL        WKO_BK
  C:78DDH         SYMBOL        _FUN_TEST_230KTX
  C:78E3H         SYMBOL        _FUN_TEST_BF
  C:78EAH         SYMBOL        _FUN_TEST_CARD
  C:78EBH         SYMBOL        _FUN_TEST_CARD02
  C:78F7H         SYMBOL        _FUN_TEST_CC1101
  C:78F8H         SYMBOL        _FUN_TEST_CC1101_02
  C:78F9H         SYMBOL        _FUN_TEST_CC1101_03
  C:78FAH         SYMBOL        _FUN_TEST_CC1101_04
  C:78EDH         SYMBOL        _FUN_TEST_CONTACT
  C:78FFH         SYMBOL        _FUN_TEST_CURRENT
  C:78E0H         SYMBOL        _FUN_TEST_FB
  C:78E6H         SYMBOL        _FUN_TEST_GSM
  C:78E7H         SYMBOL        _FUN_TEST_GSM02
  C:78F1H         SYMBOL        _FUN_TEST_GSMRX
  C:78E8H         SYMBOL        _FUN_TEST_HDLC
  C:78E9H         SYMBOL        _FUN_TEST_HDLC02
  C:78E5H         SYMBOL        _FUN_TEST_HDLCTX
  C:78FDH         SYMBOL        _FUN_TEST_HVHV
  C:78FEH         SYMBOL        _FUN_TEST_HVHV02
  C:78DEH         SYMBOL        _FUN_TEST_INITCARD
  C:78F3H         SYMBOL        _FUN_TEST_INT
  C:78DCH         SYMBOL        _FUN_TEST_ISSUERX
  C:78DBH         SYMBOL        _FUN_TEST_ISSUETX
  C:78ECH         SYMBOL        _FUN_TEST_LCD
  C:78DFH         SYMBOL        _FUN_TEST_LCDACT
  C:78EEH         SYMBOL        _FUN_TEST_LOOP
  C:78FFH         SYMBOL        _FUN_TEST_LOW
BL51 BANKED LINKER/LOCATER V6.05                                                      09/23/2016  17:07:17  PAGE 311


  C:78D7H         SYMBOL        _FUN_TEST_PCSERIAL
  C:78DAH         SYMBOL        _FUN_TEST_PCSERIAL2
  C:78E2H         SYMBOL        _FUN_TEST_RANDDELAY
  C:78F6H         SYMBOL        _FUN_TEST_RTCMODE
  C:78D8H         SYMBOL        _FUN_TEST_TESTSOFTTX
  C:78D9H         SYMBOL        _FUN_TEST_TESTSOFTTX2
  C:78E4H         SYMBOL        _FUN_TEST_TXPRO02
  C:78E1H         SYMBOL        _FUN_TEST_TZ
  C:78FBH         SYMBOL        _FUN_TEST_UARTDEBUG
  C:78EEH         SYMBOL        _FUN_TEST_WAVEET6601
  C:78EFH         SYMBOL        _FUN_TEST_WAVEET6601RX
  C:78F5H         SYMBOL        _FUN_TEST_WAVEET6601TX
  C:78F4H         SYMBOL        _FUN_TEST_WAVEET6601ZB
  C:7972H         LINE#         106
  C:7975H         LINE#         108
  C:7977H         LINE#         110
  C:78AEH         LINE#         172
  C:78AFH         LINE#         179
  C:78B1H         LINE#         180
  C:78B4H         LINE#         181
  C:78B6H         LINE#         183
  C:78B9H         LINE#         184
  C:78BCH         LINE#         185
  C:78BFH         LINE#         186
  C:78C1H         LINE#         187
  C:78C3H         LINE#         188
  C:78C6H         LINE#         192
  C:78C9H         LINE#         193
  C:78CCH         LINE#         194
  C:78CEH         LINE#         196
  C:78CFH         LINE#         220
  C:78D0H         LINE#         240
  C:78D1H         LINE#         269
  C:78D2H         LINE#         272
  C:78D3H         LINE#         304
  C:78D5H         LINE#         309
  C:78D6H         LINE#         318
  C:78D7H         LINE#         352
  C:78D8H         LINE#         381
  C:78D9H         LINE#         391
  C:78DAH         LINE#         428
  C:78DBH         LINE#         455
  C:78DCH         LINE#         478
  C:78DDH         LINE#         529
  C:78DEH         LINE#         571
  C:78DFH         LINE#         577
  C:78E0H         LINE#         590
  C:78E1H         LINE#         613
  C:78E2H         LINE#         630
  C:78E3H         LINE#         691
  C:78E4H         LINE#         775
  C:78E5H         LINE#         795
  C:78E6H         LINE#         830
  C:78E7H         LINE#         871
  C:78E8H         LINE#         935
  C:78E9H         LINE#         993
  C:78EAH         LINE#         1023
BL51 BANKED LINKER/LOCATER V6.05                                                      09/23/2016  17:07:17  PAGE 312


  C:78EBH         LINE#         1112
  C:78ECH         LINE#         1183
  C:78EDH         LINE#         1227
  C:78EEH         LINE#         1286
  C:78EFH         LINE#         1327
  C:78F0H         LINE#         1373
  C:78F1H         LINE#         1377
  C:78F2H         LINE#         1414
  C:78F3H         LINE#         1418
  C:78F4H         LINE#         1433
  C:78F5H         LINE#         1464
  C:78F6H         LINE#         1476
  C:78F7H         LINE#         1563
  C:78F8H         LINE#         1608
  C:78F9H         LINE#         1687
  C:78FAH         LINE#         1693
  C:78FBH         LINE#         1706
  C:78FCH         LINE#         1760
  C:78FDH         LINE#         1787
  C:78FEH         LINE#         1817
  C:78FFH         LINE#         1871
  -------         ENDMOD        TEST

  -------         MODULE        LCD_SPACE
  C:63BEH         SEGMENT       ?PR?LCD?MATER
  C:0034H         SEGMENT       ?CO?LCD?FONTLIB
  C:6705H         PUBLIC        FUN_LCD_HVTRANSFER
  C:25C5H         PUBLIC        STR_ACTCARDINVALID
  C:2592H         PUBLIC        STR_ACTIVEFAIL
  C:2589H         PUBLIC        STR_ACTIVEOK
  C:2568H         PUBLIC        STR_ALREADYWRIN
  C:243DH         PUBLIC        STR_CAP
  C:24EBH         PUBLIC        STR_CARD1_MISS
  C:24E3H         PUBLIC        STR_CARD_MISS
  C:247BH         PUBLIC        STR_CFL
  C:2511H         PUBLIC        STR_CHANG
  C:24A5H         PUBLIC        STR_CLR
  C:25D2H         PUBLIC        STR_COLOR256_1
  C:25D7H         PUBLIC        STR_COLOR256_2
  C:25CDH         PUBLIC        STR_COLOR_1
  C:2662H         PUBLIC        STR_CONYUNSHANG
  C:251CH         PUBLIC        STR_CPBF
  C:2467H         PUBLIC        STR_CSP
  C:2453H         PUBLIC        STR_CST
  C:254FH         PUBLIC        STR_ERRCARD
  C:2524H         PUBLIC        STR_ERRESAMCARD
  C:24C5H         PUBLIC        STR_ERROR
  C:1F34H         PUBLIC        STR_FONTLIB_0
  C:1F54H         PUBLIC        STR_FONTLIB_1
  C:0EB4H         PUBLIC        STR_FONTLIB_108
  C:1F74H         PUBLIC        STR_FONTLIB_2
  C:1F94H         PUBLIC        STR_FONTLIB_3
  C:1FB4H         PUBLIC        STR_FONTLIB_4
  C:1FD4H         PUBLIC        STR_FONTLIB_5
  C:1FF4H         PUBLIC        STR_FONTLIB_6
  C:2014H         PUBLIC        STR_FONTLIB_7
  C:2034H         PUBLIC        STR_FONTLIB_8
BL51 BANKED LINKER/LOCATER V6.05                                                      09/23/2016  17:07:17  PAGE 313


  C:2054H         PUBLIC        STR_FONTLIB_9
  C:25DCH         PUBLIC        STR_HV
  C:25E8H         PUBLIC        STR_HV02
  C:252DH         PUBLIC        STR_ICON_BJ
  C:25BDH         PUBLIC        STR_ILLEGALACTCARD
  C:25ADH         PUBLIC        STR_ILLEGALINPUTCARD
  C:2561H         PUBLIC        STR_INFLAG
  C:25B5H         PUBLIC        STR_INPUTCARDINVALID
  C:25A4H         PUBLIC        STR_INPUTFAIL
  C:259BH         PUBLIC        STR_INPUTOK
  C:266AH         PUBLIC        STR_INSERTCARD
  C:253DH         PUBLIC        STR_ISNOTSC
  C:24F3H         PUBLIC        STR_LOGCARD
  C:2577H         PUBLIC        STR_LOWV
  C:256FH         PUBLIC        STR_LOWVO
  C:248FH         PUBLIC        STR_MONEY
  C:2506H         PUBLIC        STR_MOVECARD
  C:24B0H         PUBLIC        STR_NOCARD
  C:24BBH         PUBLIC        STR_NOXCARD
  C:25FEH         PUBLIC        STR_OPENBLUE
  C:2659H         PUBLIC        STR_OPREERR
  C:24D0H         PUBLIC        STR_PASS
  C:2546H         PUBLIC        STR_PRESSCD
  C:25F5H         PUBLIC        STR_REWROK
  C:2558H         PUBLIC        STR_RXCARDER
  C:249AH         PUBLIC        STR_SET
  C:2580H         PUBLIC        STR_SETMMIER
  C:2434H         PUBLIC        STR_TEST
  C:24DAH         PUBLIC        STR_UNFIX
  C:24FDH         PUBLIC        STR_VHDIF
  C:640CH         PUBLIC        _DSPERRNUM
  C:63E5H         PUBLIC        _DSPMONEY
  C:63BEH         PUBLIC        _DSPMONEY_SET
  C:6589H         PUBLIC        _FUNC_LCD_DISPLAY
  C:64A0H         PUBLIC        _FUNC_LCD_INIT
  C:6513H         PUBLIC        _FUN_DISPLAY_CLR
  C:6575H         PUBLIC        _FUN_LCD_DISPLAYEXCHINA
  C:653BH         PUBLIC        _FUN_LCD_DISPLAYEXMONEY
  C:6649H         PUBLIC        _FUN_LCD_ICON
  D:00E0H         SYMBOL        ACC
  D:00F0H         SYMBOL        B
  N:009CH         SYMBOL        BRT
  B:0020H.0       SYMBOL        BUSY
  N:00FAH         SYMBOL        CCAP0H
  N:00EAH         SYMBOL        CCAP0L
  N:00FBH         SYMBOL        CCAP1H
  N:00EBH         SYMBOL        CCAP1L
  N:00FCH         SYMBOL        CCAP2H
  N:00ECH         SYMBOL        CCAP2L
  N:00FDH         SYMBOL        CCAP3H
  N:00EDH         SYMBOL        CCAP3L
  N:00FEH         SYMBOL        CCAP4H
  N:00EEH         SYMBOL        CCAP4L
  N:00FFH         SYMBOL        CCAP5H
  N:00EFH         SYMBOL        CCAP5L
  N:00DAH         SYMBOL        CCAPM0
  N:00DBH         SYMBOL        CCAPM1
BL51 BANKED LINKER/LOCATER V6.05                                                      09/23/2016  17:07:17  PAGE 314


  N:00DCH         SYMBOL        CCAPM2
  N:00DDH         SYMBOL        CCAPM3
  N:00DEH         SYMBOL        CCAPM4
  N:00DFH         SYMBOL        CCAPM5
  B:00D8H.0       SYMBOL        CCF0
  B:00D8H.1       SYMBOL        CCF1
  B:00D8H.2       SYMBOL        CCF2
  B:00D8H.3       SYMBOL        CCF3
  B:00D8H.4       SYMBOL        CCF4
  B:00D8H.5       SYMBOL        CCF5
  N:00D8H         SYMBOL        CCON
  B:00D8H.7       SYMBOL        CF
  N:00F9H         SYMBOL        CH
  N:00E9H         SYMBOL        CL
  C:647CH         SYMBOL        CLEAR
  C:6482H         SYMBOL        CLEAR12
  C:6491H         SYMBOL        CLEAR13
  C:6493H         SYMBOL        CLEAR14
  N:00D9H         SYMBOL        CMOD
  C:2434H         SYMBOL        COLOR256_STR_FONTLIB_0
  C:2434H         SYMBOL        COLOR_STR_FONTLIB_0
  N:0002H         SYMBOL        CONST_ACTIONTYPE_GETRAND
  N:0000H         SYMBOL        CONST_ACTIONTYPE_GETSECURE
  N:0004H         SYMBOL        CONST_ACTIONTYPE_SETMMI
  N:0001H         SYMBOL        CONST_ACTIONTYPE_SETSECURE
  N:0003H         SYMBOL        CONST_ACTIONTYPE_TRANSFERCHANNEL
  N:0003H         SYMBOL        CONST_ACT_H
  N:0001H         SYMBOL        CONST_ACT_H_H
  N:0000H         SYMBOL        CONST_ACT_H_L
  N:0001H         SYMBOL        CONST_ACT_L
  N:0006H         SYMBOL        CONST_ACT_L_H
  N:000AH         SYMBOL        CONST_ACT_L_L
  N:0002H         SYMBOL        CONST_ACT_M
  N:0000H         SYMBOL        CONST_ACT_M_H
  N:0006H         SYMBOL        CONST_ACT_M_L
  N:0002H         SYMBOL        CONST_ACT_V
  N:0002H         SYMBOL        CONST_BAUD_115200
  N:0003H         SYMBOL        CONST_BAUD_115200PC
  N:0004H         SYMBOL        CONST_BAUD_230000
  N:0001H         SYMBOL        CONST_BAUD_38400
  N:0005H         SYMBOL        CONST_BAUD_38400PC
  N:0000H         SYMBOL        CONST_BAUD_9600
  N:0006H         SYMBOL        CONST_BAUD_9600PC
  N:000CH         SYMBOL        CONST_BAUD_BITFULL12
  N:000EH         SYMBOL        CONST_BAUD_BITFULL20
  N:0010H         SYMBOL        CONST_BAUD_BITFULL28
  N:000BH         SYMBOL        CONST_BAUD_BITFULL8
  N:000CH         SYMBOL        CONST_BAUD_BITHALF12
  N:00B3H         SYMBOL        CONST_BAUD_CURRENTBITFULL
  N:0058H         SYMBOL        CONST_BAUD_CURRENTBITHALF
  N:001DH         SYMBOL        CONST_BAUD_FULL115200
  N:000FH         SYMBOL        CONST_BAUD_FULL230000
  N:005DH         SYMBOL        CONST_BAUD_FULL38400
  N:00B3H         SYMBOL        CONST_BAUD_FULL9600
  N:000DH         SYMBOL        CONST_BAUD_HALF115200
  N:0008H         SYMBOL        CONST_BAUD_HALF230000
  N:002DH         SYMBOL        CONST_BAUD_HALF38400
BL51 BANKED LINKER/LOCATER V6.05                                                      09/23/2016  17:07:17  PAGE 315


  N:0058H         SYMBOL        CONST_BAUD_HALF9600
  N:00F8H         SYMBOL        CONST_BAUD_HAND115200
  N:00F3H         SYMBOL        CONST_BAUD_HAND115200PC
  N:00FCH         SYMBOL        CONST_BAUD_HAND230000
  N:00E9H         SYMBOL        CONST_BAUD_HAND38400
  N:00D8H         SYMBOL        CONST_BAUD_HAND38400PC
  N:00A3H         SYMBOL        CONST_BAUD_HAND9600
  N:0060H         SYMBOL        CONST_BAUD_HAND9600PC
  N:00FFH         SYMBOL        CONST_BLACK_H
  N:00FFH         SYMBOL        CONST_BLACK_L
  N:0014H         SYMBOL        CONST_BLUETOOTH_WORKTIME
  N:0020H         SYMBOL        CONST_BSTLIMIT
  N:0064H         SYMBOL        CONST_BSTLIMIT02
  N:0016H         SYMBOL        CONST_CARD_CONSUME
  N:0017H         SYMBOL        CONST_CARD_PASS
  N:0000H         SYMBOL        CONST_CELLFILE_H
  N:0009H         SYMBOL        CONST_CELLFILE_L
  N:0001H         SYMBOL        CONST_DPH_NORMAL
  N:0001H         SYMBOL        CONST_DPH_ONE
  N:0003H         SYMBOL        CONST_DPH_SERX
  N:0000H         SYMBOL        CONST_DPH_SETX
  N:0003H         SYMBOL        CONST_DPH_THREE
  N:0002H         SYMBOL        CONST_DPH_TWO
  N:0000H         SYMBOL        CONST_DPH_ZERO
  N:0007H         SYMBOL        CONST_DSRC_ACTION
  N:0009H         SYMBOL        CONST_DSRC_ACTIONTYPE
  N:0001H         SYMBOL        CONST_DSRC_CHANNELIDICC
  N:0002H         SYMBOL        CONST_DSRC_CHANNELIDSAM
  N:000AH         SYMBOL        CONST_DSRC_CONTAIN
  N:0008H         SYMBOL        CONST_DSRC_DID
  N:0000H         SYMBOL        CONST_DSRC_FILDIDAPPKEY
  N:0002H         SYMBOL        CONST_DSRC_FILDIDCONSUME
  N:0003H         SYMBOL        CONST_DSRC_FILDIDHOLD
  N:0001H         SYMBOL        CONST_DSRC_FILDIDVEHICLE
  N:000BH         SYMBOL        CONST_DSRC_FILL
  N:0006H         SYMBOL        CONST_DSRC_HEAD
  N:0005H         SYMBOL        CONST_DSRC_LLCCTRL
  N:0004H         SYMBOL        CONST_DSRC_MACCTRL
  N:0003H         SYMBOL        CONST_ETC_INPUT
  N:0002H         SYMBOL        CONST_FALSH_PREFLAG02H
  N:00F4H         SYMBOL        CONST_FALSH_PREFLAG02L
  N:0002H         SYMBOL        CONST_FALSH_PREFLAG03H
  N:00F5H         SYMBOL        CONST_FALSH_PREFLAG03L
  N:0002H         SYMBOL        CONST_FALSH_PREFLAG04H
  N:00F6H         SYMBOL        CONST_FALSH_PREFLAG04L
  N:0002H         SYMBOL        CONST_FALSH_PREFLAGH
  N:00F3H         SYMBOL        CONST_FALSH_PREFLAGL
  N:0001H         SYMBOL        CONST_FALSH_PREFLAGLEN
  N:0004H         SYMBOL        CONST_FLASHADD_BEACONIDUNIXTIMEH
  N:0000H         SYMBOL        CONST_FLASHADD_BEACONIDUNIXTIMEL
  N:0002H         SYMBOL        CONST_FLASH_0002H
  N:0058H         SYMBOL        CONST_FLASH_0002L
  N:0004H         SYMBOL        CONST_FLASH_0002LEN
  N:0002H         SYMBOL        CONST_FLASH_0012H
  N:005CH         SYMBOL        CONST_FLASH_0012L
  N:0028H         SYMBOL        CONST_FLASH_0012LEN
  N:0002H         SYMBOL        CONST_FLASH_0015H
BL51 BANKED LINKER/LOCATER V6.05                                                      09/23/2016  17:07:17  PAGE 316


  N:0084H         SYMBOL        CONST_FLASH_0015L
  N:0032H         SYMBOL        CONST_FLASH_0015LEN
  N:002BH         SYMBOL        CONST_FLASH_0015LENOLD
  N:002BH         SYMBOL        CONST_FLASH_0019GBLEN
  N:0002H         SYMBOL        CONST_FLASH_0019H
  N:00B6H         SYMBOL        CONST_FLASH_0019L
  N:003CH         SYMBOL        CONST_FLASH_0019LEN
  N:003FH         SYMBOL        CONST_FLASH_0019NEWGDLEN
  N:0004H         SYMBOL        CONST_FLASH_BEACONIDUNIXTIMEH
  N:0000H         SYMBOL        CONST_FLASH_BEACONIDUNIXTIMEL
  N:0008H         SYMBOL        CONST_FLASH_BEACONIDUNIXTIMELEN
  N:0002H         SYMBOL        CONST_FLASH_BLOCK01
  N:0001H         SYMBOL        CONST_FLASH_CARDTYPELEN
  N:00F3H         SYMBOL        CONST_FLASH_FILELEN
  N:0002H         SYMBOL        CONST_FLASH_LASTCARDH
  N:00F2H         SYMBOL        CONST_FLASH_LASTCARDL
  N:0002H         SYMBOL        CONST_FLASH_STARTHIGH
  N:0000H         SYMBOL        CONST_FLASH_STARTLOW
  N:0002H         SYMBOL        CONST_FLASH_SYSINFOH
  N:0000H         SYMBOL        CONST_FLASH_SYSINFOL
  N:0058H         SYMBOL        CONST_FLASH_SYSINFOLEN
  N:0002H         SYMBOL        CONST_GDO2_MCSM2
  N:0046H         SYMBOL        CONST_GDO2_VALUE
  N:00F0H         SYMBOL        CONST_GSM_MAXNUM
  N:0008H         SYMBOL        CONST_GSM_NUM
  N:0014H         SYMBOL        CONST_GSM_PJNUM
  N:0015H         SYMBOL        CONST_HANDSECOND
  N:0002H         SYMBOL        CONST_LHX_FLAG
  N:0005H         SYMBOL        CONST_MAX_RXNUM
  N:0008H         SYMBOL        CONST_MCU_WKCTH
  N:00FFH         SYMBOL        CONST_MCU_WKCTL
  N:0002H         SYMBOL        CONST_MF_DECREMENT
  N:0003H         SYMBOL        CONST_MF_INCREMENT
  N:00C0H         SYMBOL        CONST_MF_RC500DECREMENT
  N:00C1H         SYMBOL        CONST_MF_RC500INCREMENT
  N:0000H         SYMBOL        CONST_MF_READ
  N:0004H         SYMBOL        CONST_MF_RESTOR
  N:0001H         SYMBOL        CONST_MF_WRITE
  N:0001H         SYMBOL        CONST_MTC_INPUT
  N:0018H         SYMBOL        CONST_PPS_115200
  N:0096H         SYMBOL        CONST_PPS_230000
  N:0013H         SYMBOL        CONST_PPS_38400
  N:0010H         SYMBOL        CONST_PPS_9600
  N:0001H         SYMBOL        CONST_PRO_4SPEED
  N:00FAH         SYMBOL        CONST_PRO_OVERTIME2S
  N:0090H         SYMBOL        CONST_RTCOVERFLOW
  N:00FFH         SYMBOL        CONST_RTC_OFF
  N:0055H         SYMBOL        CONST_RTC_ON
  N:000AH         SYMBOL        CONST_SE_CHANNEL
  N:0000H         SYMBOL        CONST_SE_RXBUF
  N:0000H         SYMBOL        CONST_SE_TXBUF
  N:0000H         SYMBOL        CONST_SOF
  N:0014H         SYMBOL        CONST_SOFTBYTESP
  N:0010H         SYMBOL        CONST_SOFTFIRSTSCANTIME
  N:00FFH         SYMBOL        CONST_SOFTFIRSTSCANTIMEXX
  N:0070H         SYMBOL        CONST_SOFTSECOND
  N:000CH         SYMBOL        CONST_SSRC_FID
BL51 BANKED LINKER/LOCATER V6.05                                                      09/23/2016  17:07:17  PAGE 317


  N:0007H         SYMBOL        CONST_STATE_5823INIER
  N:0008H         SYMBOL        CONST_STATE_5823SLEEPER
  N:0003H         SYMBOL        CONST_STATE_ACCEPTOVER
  N:0004H         SYMBOL        CONST_STATE_ACCEPTOVERLEN
  N:0006H         SYMBOL        CONST_STATE_ACTCARDINVALID
  N:0004H         SYMBOL        CONST_STATE_ACTIVEFAIL
  N:0006H         SYMBOL        CONST_STATE_AUTHER
  N:001DH         SYMBOL        CONST_STATE_BASE01ANTICOLL
  N:0015H         SYMBOL        CONST_STATE_BASE01CONTACT
  N:0014H         SYMBOL        CONST_STATE_BASE01ESAMDF01
  N:001FH         SYMBOL        CONST_STATE_BASE01RATS
  N:001CH         SYMBOL        CONST_STATE_BASE01RE
  N:001EH         SYMBOL        CONST_STATE_BASE01SEL
  N:0019H         SYMBOL        CONST_STATE_BASE02ANTICOLL
  N:0016H         SYMBOL        CONST_STATE_BASE02CONTACT
  N:001BH         SYMBOL        CONST_STATE_BASE02RATS
  N:0018H         SYMBOL        CONST_STATE_BASE02RE
  N:001AH         SYMBOL        CONST_STATE_BASE02SEL
  N:000BH         SYMBOL        CONST_STATE_BASEESAMDF01
  N:0013H         SYMBOL        CONST_STATE_BASEN01INIT
  N:000AH         SYMBOL        CONST_STATE_BASENINIT
  N:000DH         SYMBOL        CONST_STATE_CARDPREDEAL0002
  N:000EH         SYMBOL        CONST_STATE_CARDPREDEAL0012
  N:000FH         SYMBOL        CONST_STATE_CARDPREDEAL0015
  N:0010H         SYMBOL        CONST_STATE_CARDPREDEAL0019
  N:000CH         SYMBOL        CONST_STATE_CARDPREDEAL1001
  N:0011H         SYMBOL        CONST_STATE_CARDPREDEAL3F00
  N:0012H         SYMBOL        CONST_STATE_CARDPREDEAL81
  N:0023H         SYMBOL        CONST_STATE_ESAMER
  N:0021H         SYMBOL        CONST_STATE_EXMEMORYER
  N:0022H         SYMBOL        CONST_STATE_EXMEMORYER02
  N:00FFH         SYMBOL        CONST_STATE_FALSE
  N:0009H         SYMBOL        CONST_STATE_GETSECURESELFILEER
  N:0005H         SYMBOL        CONST_STATE_ILLEGALACTCARD
  N:0002H         SYMBOL        CONST_STATE_ILLEGALINPUTCARD
  N:0003H         SYMBOL        CONST_STATE_INPUTCARDINVALID
  N:0001H         SYMBOL        CONST_STATE_INPUTFAIL
  N:0020H         SYMBOL        CONST_STATE_MEMORYER
  N:0005H         SYMBOL        CONST_STATE_RSTCPUER
  N:0001H         SYMBOL        CONST_STATE_SERIALACCPET
  N:0002H         SYMBOL        CONST_STATE_SERIALOVERTIME
  N:0017H         SYMBOL        CONST_STATE_TEST
  N:0000H         SYMBOL        CONST_STATE_TRUE
  N:0055H         SYMBOL        CONST_SYS_55
  N:00AAH         SYMBOL        CONST_SYS_AA
  N:0004H         SYMBOL        CONST_SYS_OBUIDLEN
  N:000AH         SYMBOL        CONST_SYS_POWERONTIMER
  N:0088H         SYMBOL        CONST_SYS_PREFLAG
  N:0064H         SYMBOL        CONST_SYS_RTCOVERTIME
  N:00FFH         SYMBOL        CONST_SYS_TRADECONFINE
  N:0001H         SYMBOL        CONST_TIMEER02
  N:00FEH         SYMBOL        CONST_TIMEER03
  N:0001H         SYMBOL        CONST_TIMEER04
  N:00FFH         SYMBOL        CONST_VSTLIMIT
  N:0000H         SYMBOL        CONST_WHITE_H
  N:0031H         SYMBOL        CONST_WHITE_L
  N:0000H         SYMBOL        CONST_WORKSTAION_0
BL51 BANKED LINKER/LOCATER V6.05                                                      09/23/2016  17:07:17  PAGE 318


  N:0001H         SYMBOL        CONST_WORKSTAION_1
  N:0002H         SYMBOL        CONST_WORKSTAION_2
  N:0003H         SYMBOL        CONST_WORKSTAION_3
  N:0000H         SYMBOL        CONST_XDATA_TXBUF02
  N:0080H         SYMBOL        CONST_XDATA_TXBUF02LEN
  B:00D8H.6       SYMBOL        CR
  C:6530H         SYMBOL        DISPLAY_CLR_LOOP
  D:0083H         SYMBOL        DPH
  D:0082H         SYMBOL        DPL
  B:00A8H.6       SYMBOL        EPCAI
  B:00A8H.6       SYMBOL        EPCA_LVD
  D:00A8H         SYMBOL        IE
  N:00AFH         SYMBOL        IE2
  N:00B7H         SYMBOL        IPH
  N:00C7H         SYMBOL        ISP_CONTR
  C:657EH         SYMBOL        LCD_DISPLAYEXCHINA_LOOP
  C:654AH         SYMBOL        LCD_DISPLAYEXMONEY_LOOP
  C:6567H         SYMBOL        LCD_DISPLAYEXMONEY_LOOP02
  C:67F5H         SYMBOL        LCD_DISPLAYEXMONEY_LOOPSET02
  C:6618H         SYMBOL        LCD_DISPLAY_BYTELINEBYTELOOP12
  C:6614H         SYMBOL        LCD_DISPLAY_BYTELINEBYTELOOP12START
  C:6605H         SYMBOL        LCD_DISPLAY_BYTELINEBYTELOOP24
  C:6625H         SYMBOL        LCD_DISPLAY_BYTELINEBYTEOVER
  C:65DEH         SYMBOL        LCD_DISPLAY_BYTELINELOOP
  C:65A3H         SYMBOL        LCD_DISPLAY_BYTELOOP
  C:6633H         SYMBOL        LCD_DISPLAY_DB
  C:65AEH         SYMBOL        LCD_DISPLAY_FONTBYTE
  C:65C5H         SYMBOL        LCD_DISPLAY_FONTCHINA
  C:65DAH         SYMBOL        LCD_DISPLAY_FONTOVER
  C:6639H         SYMBOL        LCD_DISPLAY_OVER
  C:6595H         SYMBOL        LCD_DISPLAY_STARTLOOP
  C:659BH         SYMBOL        LCD_DISPLAY_STARTLOOPOVER
  C:6642H         SYMBOL        LCD_DISPLAY_TMP001
  C:6644H         SYMBOL        LCD_DISPLAY_TMP002
  C:65A0H         SYMBOL        LCD_DISPLAY_TMP003
  C:67A8H         SYMBOL        LCD_HVTRANSFER_CPOVER
  C:6775H         SYMBOL        LCD_HVTRANSFER_ERRCP
  C:6736H         SYMBOL        LCD_HVTRANSFER_LOOP
  C:67A8H         SYMBOL        LCD_HVTRANSFER_LOOP02
  C:67BEH         SYMBOL        LCD_HVTRANSFER_LOOP02DZ
  C:67CEH         SYMBOL        LCD_HVTRANSFER_LOOP02JZ
  C:67E1H         SYMBOL        LCD_HVTRANSFER_LOOP02NEXT
  C:67AEH         SYMBOL        LCD_HVTRANSFER_LOOP02SZ
  C:67DEH         SYMBOL        LCD_HVTRANSFER_LOOP02WX
  C:676AH         SYMBOL        LCD_HVTRANSFER_LOOPDIF
  C:676EH         SYMBOL        LCD_HVTRANSFER_LOOPOVER
  C:6792H         SYMBOL        LCD_HVTRANSFER_RICP
  C:6670H         SYMBOL        LCD_ICON_C
  C:6665H         SYMBOL        LCD_ICON_DISSIGNAL
  C:6704H         SYMBOL        LCD_ICON_OVER
  C:66B4H         SYMBOL        LCD_ICON_POWER
  C:6704H         SYMBOL        LCD_ICON_POWER01
  C:6704H         SYMBOL        LCD_ICON_POWER02
  C:6704H         SYMBOL        LCD_ICON_POWER03
  C:664AH         SYMBOL        LCD_ICON_SIGNAL
  C:6692H         SYMBOL        LCD_ICON_T
  C:66DDH         SYMBOL        LCD_INIT_DISPOWER1
BL51 BANKED LINKER/LOCATER V6.05                                                      09/23/2016  17:07:17  PAGE 319


  C:66EDH         SYMBOL        LCD_INIT_DISPOWER2
  C:66FDH         SYMBOL        LCD_INIT_DISPOWER3
  N:0000H         SYMBOL        LCD_SPACE
  C:646DH         SYMBOL        LCD_WDATA_LOOPSEND
  D:0080H         SYMBOL        P0
  D:0090H         SYMBOL        P1
  D:00A0H         SYMBOL        P2
  D:00B0H         SYMBOL        P3
  N:00C0H         SYMBOL        P4
  N:00F2H         SYMBOL        PCA_PWM0
  N:00F3H         SYMBOL        PCA_PWM1
  N:00F4H         SYMBOL        PCA_PWM2
  N:00F5H         SYMBOL        PCA_PWM3
  N:00F6H         SYMBOL        PCA_PWM4
  N:00F7H         SYMBOL        PCA_PWM5
  B:0080H.4       SYMBOL        PIN_522_MISO
  B:0080H.5       SYMBOL        PIN_522_MOSI
  B:00C0H.6       SYMBOL        PIN_522_RST
  B:0080H.7       SYMBOL        PIN_522_SCLK
  B:0080H.6       SYMBOL        PIN_522_SS
  B:0090H.0       SYMBOL        PIN_5823BK_CS
  B:0090H.2       SYMBOL        PIN_5823BK_IRQ
  B:0080H.0       SYMBOL        PIN_5823BK_MISO
  B:0080H.1       SYMBOL        PIN_5823BK_MOSI
  B:00C0H.2       SYMBOL        PIN_5823BK_SCLK
  B:0080H.3       SYMBOL        PIN_BELL_01
  B:0080H.2       SYMBOL        PIN_BELL_02
  B:0090H.1       SYMBOL        PIN_BK_CE
  B:00B0H.3       SYMBOL        PIN_CARD_EXIST
  B:0090H.6       SYMBOL        PIN_CC1101_GDO2
  B:00B0H.7       SYMBOL        PIN_CC1101_MISO
  B:00A0H.3       SYMBOL        PIN_CC1101_MOSI
  B:00A0H.2       SYMBOL        PIN_CC1101_SCLK
  B:00B0H.6       SYMBOL        PIN_CC1101_SS
  B:00A0H.5       SYMBOL        PIN_ESAM_RST
  B:00A0H.6       SYMBOL        PIN_ESAM_RX
  B:00A0H.6       SYMBOL        PIN_ESAM_TX
  B:00C0H.5       SYMBOL        PIN_GRE
  B:0090H.4       SYMBOL        PIN_LCD_CS
  B:0090H.7       SYMBOL        PIN_LCD_DC
  B:0090H.5       SYMBOL        PIN_LCD_RST
  B:00B0H.4       SYMBOL        PIN_LCD_SCL
  B:00C0H.3       SYMBOL        PIN_LCD_SDA
  B:00A0H.7       SYMBOL        PIN_PWRDWN
  B:0090H.3       SYMBOL        PIN_PWRDWN_LCD
  B:00A0H.4       SYMBOL        PIN_PWR_GSM
  B:00A0H.1       SYMBOL        PIN_PWR_LOWIO
  B:00C0H.1       SYMBOL        PIN_RED
  B:00B0H.0       SYMBOL        PIN_SOFTSERIALRX
  B:00B0H.1       SYMBOL        PIN_SOFTSERIALTXH
  B:00B0H.5       SYMBOL        PIN_UNFIX
  B:00A0H.0       SYMBOL        PIN_WAVE_CHANNEL1
  N:00C0H         SYMBOL        READ_BURST
  N:00A2H         SYMBOL        REG_51_AUXR1
  N:008EH         SYMBOL        REG_5412AD_AUXR
  N:0094H         SYMBOL        REG_5412AD_P0M0
  N:0093H         SYMBOL        REG_5412AD_P0M1
BL51 BANKED LINKER/LOCATER V6.05                                                      09/23/2016  17:07:17  PAGE 320


  N:0092H         SYMBOL        REG_5412AD_P1M0
  N:0091H         SYMBOL        REG_5412AD_P1M1
  N:0096H         SYMBOL        REG_5412AD_P2M0
  N:0095H         SYMBOL        REG_5412AD_P2M1
  N:00B2H         SYMBOL        REG_5412AD_P3M0
  N:00B1H         SYMBOL        REG_5412AD_P3M1
  N:00B4H         SYMBOL        REG_5412AD_P4M0
  N:00B3H         SYMBOL        REG_5412AD_P4M1
  N:00BBH         SYMBOL        REG_5412AD_P4SW
  N:0085H         SYMBOL        REG_5412AD_SPCTL
  N:0086H         SYMBOL        REG_5412AD_SPDAT
  N:0084H         SYMBOL        REG_5412AD_SPSTAT
  N:00ABH         SYMBOL        REG_MCU_WKCTH
  N:00AAH         SYMBOL        REG_MCU_WKCTL
  N:000DH         SYMBOL        REG_RC522_BITFRAMINGREG
  N:000EH         SYMBOL        REG_RC522_COLLREG
  N:0002H         SYMBOL        REG_RC522_COMIENREG
  N:0004H         SYMBOL        REG_RC522_COMIRQREG
  N:0001H         SYMBOL        REG_RC522_COMMANDREG
  N:000CH         SYMBOL        REG_RC522_CONTROLREG
  N:0021H         SYMBOL        REG_RC522_CRCRESULTREGH
  N:0022H         SYMBOL        REG_RC522_CRCRESULTREGL
  N:0028H         SYMBOL        REG_RC522_CWGSPREG
  N:0019H         SYMBOL        REG_RC522_DEMODREG
  N:0003H         SYMBOL        REG_RC522_DIVIENREG
  N:0005H         SYMBOL        REG_RC522_DIVIRQREG
  N:0006H         SYMBOL        REG_RC522_ERRORREG
  N:0009H         SYMBOL        REG_RC522_FIFODATAREG
  N:000AH         SYMBOL        REG_RC522_FIFOLEVELREG
  N:0027H         SYMBOL        REG_RC522_GSNREG
  N:001CH         SYMBOL        REG_RC522_MIFAREREG
  N:0011H         SYMBOL        REG_RC522_MODEREG
  N:0029H         SYMBOL        REG_RC522_MODGSPREG
  N:0024H         SYMBOL        REG_RC522_MODWIDTHREG
  N:0000H         SYMBOL        REG_RC522_RC522PAGE
  N:0026H         SYMBOL        REG_RC522_RFCFGREG
  N:000FH         SYMBOL        REG_RC522_RFU
  N:0013H         SYMBOL        REG_RC522_RXMODEREG
  N:0017H         SYMBOL        REG_RC522_RXSELREG
  N:0018H         SYMBOL        REG_RC522_RXTHRESHOLDREG
  N:001FH         SYMBOL        REG_RC522_SERIALSPEEDREG
  N:0007H         SYMBOL        REG_RC522_STATUS1REG
  N:0008H         SYMBOL        REG_RC522_STATUS2REG
  N:002EH         SYMBOL        REG_RC522_TCOUNTERVALUEREGH
  N:002FH         SYMBOL        REG_RC522_TCOUNTERVALUEREGL
  N:002AH         SYMBOL        REG_RC522_TMODEREG
  N:002BH         SYMBOL        REG_RC522_TPRESCALERREG
  N:002CH         SYMBOL        REG_RC522_TRELOADREGH
  N:002DH         SYMBOL        REG_RC522_TRELOADREGL
  N:0015H         SYMBOL        REG_RC522_TXAUTOREG
  N:0014H         SYMBOL        REG_RC522_TXCONTROLREG
  N:0012H         SYMBOL        REG_RC522_TXMODEREG
  N:0016H         SYMBOL        REG_RC522_TXSELREG
  N:000BH         SYMBOL        REG_RC522_WATERLEVELREG
  N:009CH         SYMBOL        REG_SYS_BRT
  N:008FH         SYMBOL        REG_WAKECLK0
  B:00D8H.4       SYMBOL        REG_WAKECLK_04
BL51 BANKED LINKER/LOCATER V6.05                                                      09/23/2016  17:07:17  PAGE 321


  B:00D8H.5       SYMBOL        REG_WAKECLK_05
  N:00C1H         SYMBOL        REG_WDT_CONTR
  N:00EAH         SYMBOL        RELOAD2_CONTR
  N:009BH         SYMBOL        S2BUF
  N:009AH         SYMBOL        S2CON
  C:0E34H         SYMBOL        STR_FONTLIB106
  C:2074H         SYMBOL        STR_FONTLIB_10
  C:0CB4H         SYMBOL        STR_FONTLIB_100
  C:0CF4H         SYMBOL        STR_FONTLIB_101
  C:0D34H         SYMBOL        STR_FONTLIB_102
  C:0D74H         SYMBOL        STR_FONTLIB_103
  C:0DB4H         SYMBOL        STR_FONTLIB_104
  C:0DF4H         SYMBOL        STR_FONTLIB_105
  C:0E74H         SYMBOL        STR_FONTLIB_107
  C:0EF4H         SYMBOL        STR_FONTLIB_109
  C:2094H         SYMBOL        STR_FONTLIB_11
  C:0F34H         SYMBOL        STR_FONTLIB_110
  C:0F74H         SYMBOL        STR_FONTLIB_111
  C:0FB4H         SYMBOL        STR_FONTLIB_112
  C:0FF4H         SYMBOL        STR_FONTLIB_113
  C:1034H         SYMBOL        STR_FONTLIB_114
  C:1074H         SYMBOL        STR_FONTLIB_115
  C:10B4H         SYMBOL        STR_FONTLIB_116
  C:10F4H         SYMBOL        STR_FONTLIB_117
  C:1134H         SYMBOL        STR_FONTLIB_118
  C:1174H         SYMBOL        STR_FONTLIB_119
  C:20B4H         SYMBOL        STR_FONTLIB_12
  C:11B4H         SYMBOL        STR_FONTLIB_120
  C:11F4H         SYMBOL        STR_FONTLIB_121
  C:1234H         SYMBOL        STR_FONTLIB_122
  C:20D4H         SYMBOL        STR_FONTLIB_13
  C:20F4H         SYMBOL        STR_FONTLIB_14
  C:1C74H         SYMBOL        STR_FONTLIB_163
  C:1CB4H         SYMBOL        STR_FONTLIB_164
  C:1CF4H         SYMBOL        STR_FONTLIB_165
  C:1D34H         SYMBOL        STR_FONTLIB_166
  C:1D74H         SYMBOL        STR_FONTLIB_167
  C:1DB4H         SYMBOL        STR_FONTLIB_168
  C:1DF4H         SYMBOL        STR_FONTLIB_169
  C:1E34H         SYMBOL        STR_FONTLIB_170
  C:1E74H         SYMBOL        STR_FONTLIB_171
  C:1EB4H         SYMBOL        STR_FONTLIB_172
  C:1EF4H         SYMBOL        STR_FONTLIB_173
  C:0034H         SYMBOL        STR_FONTLIB_50
  C:0074H         SYMBOL        STR_FONTLIB_51
  C:00B4H         SYMBOL        STR_FONTLIB_52
  C:00F4H         SYMBOL        STR_FONTLIB_53
  C:0134H         SYMBOL        STR_FONTLIB_54
  C:0174H         SYMBOL        STR_FONTLIB_55
  C:01B4H         SYMBOL        STR_FONTLIB_56
  C:01F4H         SYMBOL        STR_FONTLIB_57
  C:0234H         SYMBOL        STR_FONTLIB_58
  C:0274H         SYMBOL        STR_FONTLIB_59
  C:02B4H         SYMBOL        STR_FONTLIB_60
  C:02F4H         SYMBOL        STR_FONTLIB_61
  C:0334H         SYMBOL        STR_FONTLIB_62
  C:0374H         SYMBOL        STR_FONTLIB_63
BL51 BANKED LINKER/LOCATER V6.05                                                      09/23/2016  17:07:17  PAGE 322


  C:03B4H         SYMBOL        STR_FONTLIB_64
  C:03F4H         SYMBOL        STR_FONTLIB_65
  C:0434H         SYMBOL        STR_FONTLIB_66
  C:0474H         SYMBOL        STR_FONTLIB_67
  C:04B4H         SYMBOL        STR_FONTLIB_68
  C:04F4H         SYMBOL        STR_FONTLIB_69
  C:0534H         SYMBOL        STR_FONTLIB_70
  C:0574H         SYMBOL        STR_FONTLIB_71
  C:05B4H         SYMBOL        STR_FONTLIB_72
  C:05F4H         SYMBOL        STR_FONTLIB_73
  C:0634H         SYMBOL        STR_FONTLIB_74
  C:0674H         SYMBOL        STR_FONTLIB_75
  C:06B4H         SYMBOL        STR_FONTLIB_76
  C:06F4H         SYMBOL        STR_FONTLIB_77
  C:0734H         SYMBOL        STR_FONTLIB_78
  C:0774H         SYMBOL        STR_FONTLIB_79
  C:07B4H         SYMBOL        STR_FONTLIB_80
  C:07F4H         SYMBOL        STR_FONTLIB_81
  C:0834H         SYMBOL        STR_FONTLIB_82
  C:0874H         SYMBOL        STR_FONTLIB_83
  C:08B4H         SYMBOL        STR_FONTLIB_84
  C:08F4H         SYMBOL        STR_FONTLIB_85
  C:0934H         SYMBOL        STR_FONTLIB_86
  C:0974H         SYMBOL        STR_FONTLIB_87
  C:09B4H         SYMBOL        STR_FONTLIB_88
  C:09F4H         SYMBOL        STR_FONTLIB_89
  C:0A34H         SYMBOL        STR_FONTLIB_90
  C:0A74H         SYMBOL        STR_FONTLIB_91
  C:0AB4H         SYMBOL        STR_FONTLIB_92
  C:0AF4H         SYMBOL        STR_FONTLIB_93
  C:0B34H         SYMBOL        STR_FONTLIB_94
  C:0B74H         SYMBOL        STR_FONTLIB_95
  C:0BB4H         SYMBOL        STR_FONTLIB_96
  C:0BF4H         SYMBOL        STR_FONTLIB_97
  C:0C34H         SYMBOL        STR_FONTLIB_98
  C:0C74H         SYMBOL        STR_FONTLIB_99
  C:2607H         SYMBOL        STR_S_CODE
  N:0009H         SYMBOL        TI_CCXXX0_ADDR
  N:001DH         SYMBOL        TI_CCXXX0_AGCCTRL0
  N:001CH         SYMBOL        TI_CCXXX0_AGCCTRL1
  N:001BH         SYMBOL        TI_CCXXX0_AGCCTRL2
  N:002BH         SYMBOL        TI_CCXXX0_AGCTEST
  N:001AH         SYMBOL        TI_CCXXX0_BSCFG
  N:000AH         SYMBOL        TI_CCXXX0_CHANNR
  N:0015H         SYMBOL        TI_CCXXX0_DEVIATN
  N:0003H         SYMBOL        TI_CCXXX0_FIFOTHR
  N:0019H         SYMBOL        TI_CCXXX0_FOCCFG
  N:0022H         SYMBOL        TI_CCXXX0_FREND0
  N:0021H         SYMBOL        TI_CCXXX0_FREND1
  N:000FH         SYMBOL        TI_CCXXX0_FREQ0
  N:000EH         SYMBOL        TI_CCXXX0_FREQ1
  N:000DH         SYMBOL        TI_CCXXX0_FREQ2
  N:0032H         SYMBOL        TI_CCXXX0_FREQEST
  N:0026H         SYMBOL        TI_CCXXX0_FSCAL0
  N:0025H         SYMBOL        TI_CCXXX0_FSCAL1
  N:0024H         SYMBOL        TI_CCXXX0_FSCAL2
  N:0023H         SYMBOL        TI_CCXXX0_FSCAL3
BL51 BANKED LINKER/LOCATER V6.05                                                      09/23/2016  17:07:17  PAGE 323


  N:000CH         SYMBOL        TI_CCXXX0_FSCTRL0
  N:000BH         SYMBOL        TI_CCXXX0_FSCTRL1
  N:0029H         SYMBOL        TI_CCXXX0_FSTEST
  N:0002H         SYMBOL        TI_CCXXX0_IOCFG0
  N:0001H         SYMBOL        TI_CCXXX0_IOCFG1
  N:0000H         SYMBOL        TI_CCXXX0_IOCFG2
  N:0033H         SYMBOL        TI_CCXXX0_LQI
  N:0035H         SYMBOL        TI_CCXXX0_MARCSTATE
  N:0018H         SYMBOL        TI_CCXXX0_MCSM0
  N:0017H         SYMBOL        TI_CCXXX0_MCSM1
  N:0016H         SYMBOL        TI_CCXXX0_MCSM2
  N:0014H         SYMBOL        TI_CCXXX0_MDMCFG0
  N:0013H         SYMBOL        TI_CCXXX0_MDMCFG1
  N:0012H         SYMBOL        TI_CCXXX0_MDMCFG2
  N:0011H         SYMBOL        TI_CCXXX0_MDMCFG3
  N:0010H         SYMBOL        TI_CCXXX0_MDMCFG4
  N:007FH         SYMBOL        TI_CCXXX0_NUM_RXBYTES
  N:0030H         SYMBOL        TI_CCXXX0_PARTNUM
  N:003EH         SYMBOL        TI_CCXXX0_PATABLE
  N:0008H         SYMBOL        TI_CCXXX0_PKTCTRL0
  N:0007H         SYMBOL        TI_CCXXX0_PKTCTRL1
  N:0006H         SYMBOL        TI_CCXXX0_PKTLEN
  N:0038H         SYMBOL        TI_CCXXX0_PKTSTATUS
  N:002AH         SYMBOL        TI_CCXXX0_PTEST
  N:0028H         SYMBOL        TI_CCXXX0_RCCTRL0
  N:0027H         SYMBOL        TI_CCXXX0_RCCTRL1
  N:0034H         SYMBOL        TI_CCXXX0_RSSI
  N:003BH         SYMBOL        TI_CCXXX0_RXBYTES
  N:003FH         SYMBOL        TI_CCXXX0_RXFIFO
  N:0037H         SYMBOL        TI_CCXXX0_SAFC
  N:0033H         SYMBOL        TI_CCXXX0_SCAL
  N:003AH         SYMBOL        TI_CCXXX0_SFRX
  N:003BH         SYMBOL        TI_CCXXX0_SFTX
  N:0036H         SYMBOL        TI_CCXXX0_SIDLE
  N:003DH         SYMBOL        TI_CCXXX0_SNOP
  N:0039H         SYMBOL        TI_CCXXX0_SPWD
  N:0030H         SYMBOL        TI_CCXXX0_SRES
  N:0034H         SYMBOL        TI_CCXXX0_SRX
  N:0035H         SYMBOL        TI_CCXXX0_STX
  N:0038H         SYMBOL        TI_CCXXX0_SWOR
  N:003CH         SYMBOL        TI_CCXXX0_SWORRST
  N:0032H         SYMBOL        TI_CCXXX0_SXOFF
  N:0005H         SYMBOL        TI_CCXXX0_SYNC0
  N:0004H         SYMBOL        TI_CCXXX0_SYNC1
  N:002EH         SYMBOL        TI_CCXXX0_TEST0
  N:002DH         SYMBOL        TI_CCXXX0_TEST1
  N:002CH         SYMBOL        TI_CCXXX0_TEST2
  N:003AH         SYMBOL        TI_CCXXX0_TXBYTES
  N:003FH         SYMBOL        TI_CCXXX0_TXFIFO
  N:0039H         SYMBOL        TI_CCXXX0_VCO_VC_DAC
  N:0031H         SYMBOL        TI_CCXXX0_VERSION
  N:0020H         SYMBOL        TI_CCXXX0_WORCTRL
  N:001FH         SYMBOL        TI_CCXXX0_WOREVT0
  N:001EH         SYMBOL        TI_CCXXX0_WOREVT1
  N:0037H         SYMBOL        TI_CCXXX0_WORTIME0
  N:0036H         SYMBOL        TI_CCXXX0_WORTIME1
  N:008FH         SYMBOL        WAKE_CLKO
BL51 BANKED LINKER/LOCATER V6.05                                                      09/23/2016  17:07:17  PAGE 324


  B:00B0H.2       SYMBOL        WKO_BK
  C:642AH         SYMBOL        _DSPERRNUM1
  C:6403H         SYMBOL        _DSPMONEY1
  C:63DCH         SYMBOL        _DSPMONEYSET1
  C:6433H         SYMBOL        _FDIV10
  C:6436H         SYMBOL        _FDIV10A
  C:643BH         SYMBOL        _FDIV10B
  C:645DH         SYMBOL        _FDIV10D
  C:6460H         SYMBOL        _FDIV10E
  C:6463H         SYMBOL        _FUNC_LCD_WDATA
  C:6558H         SYMBOL        _FUN_LCD_DISPLAYEXMONEY02
  C:67E6H         SYMBOL        _FUN_LCD_DISPLAYEXMONEYSET
  C:63BEH         LINE#         29
  C:63C0H         LINE#         30
  C:63C1H         LINE#         32
  C:63C3H         LINE#         33
  C:63C4H         LINE#         37
  C:63C6H         LINE#         38
  C:63C8H         LINE#         39
  C:63CAH         LINE#         40
  C:63CCH         LINE#         42
  C:63CEH         LINE#         43
  C:63CFH         LINE#         44
  C:63D2H         LINE#         45
  C:63D4H         LINE#         46
  C:63D6H         LINE#         47
  C:63D8H         LINE#         48
  C:63DAH         LINE#         49
  C:63DCH         LINE#         52
  C:63DFH         LINE#         53
  C:63E1H         LINE#         54
  C:63E4H         LINE#         56
  C:63E5H         LINE#         59
  C:63E7H         LINE#         60
  C:63E8H         LINE#         62
  C:63EAH         LINE#         63
  C:63EBH         LINE#         67
  C:63EDH         LINE#         68
  C:63EFH         LINE#         69
  C:63F1H         LINE#         70
  C:63F3H         LINE#         72
  C:63F5H         LINE#         73
  C:63F6H         LINE#         74
  C:63F9H         LINE#         75
  C:63FBH         LINE#         76
  C:63FDH         LINE#         77
  C:63FFH         LINE#         78
  C:6401H         LINE#         79
  C:6403H         LINE#         82
  C:6406H         LINE#         83
  C:6408H         LINE#         84
  C:640BH         LINE#         86
  C:640CH         LINE#         90
  C:640EH         LINE#         91
  C:640FH         LINE#         93
  C:6411H         LINE#         94
  C:6412H         LINE#         98
BL51 BANKED LINKER/LOCATER V6.05                                                      09/23/2016  17:07:17  PAGE 325


  C:6414H         LINE#         99
  C:6416H         LINE#         100
  C:6418H         LINE#         101
  C:641AH         LINE#         103
  C:641CH         LINE#         104
  C:641DH         LINE#         105
  C:6420H         LINE#         106
  C:6422H         LINE#         107
  C:6424H         LINE#         108
  C:6426H         LINE#         109
  C:6428H         LINE#         110
  C:642AH         LINE#         113
  C:642DH         LINE#         114
  C:642FH         LINE#         115
  C:6432H         LINE#         117
  C:6433H         LINE#         122
  C:6434H         LINE#         123
  C:6435H         LINE#         124
  C:6436H         LINE#         126
  C:6438H         LINE#         127
  C:643AH         LINE#         128
  C:643BH         LINE#         130
  C:643CH         LINE#         131
  C:643DH         LINE#         132
  C:643EH         LINE#         133
  C:6441H         LINE#         134
  C:6442H         LINE#         135
  C:6443H         LINE#         136
  C:6444H         LINE#         137
  C:6445H         LINE#         138
  C:6447H         LINE#         139
  C:6448H         LINE#         140
  C:644BH         LINE#         141
  C:644CH         LINE#         142
  C:644DH         LINE#         143
  C:644FH         LINE#         144
  C:6450H         LINE#         145
  C:6452H         LINE#         147
  C:6453H         LINE#         149
  C:6454H         LINE#         151
  C:6455H         LINE#         152
  C:6456H         LINE#         153
  C:6457H         LINE#         154
  C:6458H         LINE#         155
  C:645AH         LINE#         157
  C:645CH         LINE#         159
  C:645DH         LINE#         161
  C:645FH         LINE#         163
  C:6460H         LINE#         165
  C:6462H         LINE#         166
  C:6463H         LINE#         179
  C:6464H         LINE#         180
  C:6465H         LINE#         181
  C:6466H         LINE#         182
  C:6468H         LINE#         184
  C:646AH         LINE#         185
  C:646CH         LINE#         186
BL51 BANKED LINKER/LOCATER V6.05                                                      09/23/2016  17:07:17  PAGE 326


  C:646DH         LINE#         188
  C:646FH         LINE#         189
  C:6470H         LINE#         190
  C:6471H         LINE#         191
  C:6473H         LINE#         192
  C:6475H         LINE#         193
  C:6477H         LINE#         194
  C:6479H         LINE#         202
  C:647BH         LINE#         205
  C:647CH         LINE#         208
  C:647EH         LINE#         209
  C:6480H         LINE#         210
  C:6482H         LINE#         211
  C:6483H         LINE#         212
  C:6484H         LINE#         213
  C:6487H         LINE#         214
  C:6489H         LINE#         215
  C:648CH         LINE#         216
  C:648EH         LINE#         217
  C:6491H         LINE#         218
  C:6493H         LINE#         219
  C:6495H         LINE#         220
  C:6497H         LINE#         221
  C:649AH         LINE#         223
  C:649CH         LINE#         224
  C:649DH         LINE#         225
  C:649FH         LINE#         226
  C:64A0H         LINE#         236
  C:64A2H         LINE#         237
  C:64A4H         LINE#         238
  C:64A7H         LINE#         239
  C:64A9H         LINE#         240
  C:64ABH         LINE#         241
  C:64ADH         LINE#         242
  C:64AFH         LINE#         243
  C:64B1H         LINE#         244
  C:64B3H         LINE#         245
  C:64B5H         LINE#         247
  C:64B7H         LINE#         248
  C:64B9H         LINE#         250
  C:64BBH         LINE#         251
  C:64BDH         LINE#         253
  C:64BFH         LINE#         272
  C:64C1H         LINE#         273
  C:64C3H         LINE#         274
  C:64C6H         LINE#         276
  C:64C8H         LINE#         277
  C:64CBH         LINE#         279
  C:64CDH         LINE#         280
  C:64D0H         LINE#         282
  C:64D2H         LINE#         283
  C:64D5H         LINE#         291
  C:64D7H         LINE#         292
  C:64DAH         LINE#         295
  C:64DCH         LINE#         296
  C:64DFH         LINE#         301
  C:64E1H         LINE#         303
BL51 BANKED LINKER/LOCATER V6.05                                                      09/23/2016  17:07:17  PAGE 327


  C:64E4H         LINE#         305
  C:64E6H         LINE#         306
  C:64E9H         LINE#         308
  C:64EBH         LINE#         309
  C:64EEH         LINE#         312
  C:64F0H         LINE#         313
  C:64F3H         LINE#         321
  C:64F5H         LINE#         322
  C:64F8H         LINE#         324
  C:64FAH         LINE#         325
  C:64FDH         LINE#         327
  C:64FFH         LINE#         328
  C:6502H         LINE#         330
  C:6504H         LINE#         331
  C:6507H         LINE#         336
  C:6509H         LINE#         338
  C:650BH         LINE#         340
  C:650DH         LINE#         342
  C:650FH         LINE#         345
  C:6512H         LINE#         350
  C:6513H         LINE#         360
  C:6516H         LINE#         362
  C:6518H         LINE#         363
  C:651AH         LINE#         364
  C:651BH         LINE#         365
  C:651CH         LINE#         366
  C:651FH         LINE#         368
  C:6521H         LINE#         369
  C:6523H         LINE#         370
  C:6524H         LINE#         371
  C:6527H         LINE#         373
  C:6529H         LINE#         374
  C:652BH         LINE#         375
  C:652EH         LINE#         377
  C:6530H         LINE#         379
  C:6532H         LINE#         380
  C:6534H         LINE#         381
  C:6535H         LINE#         382
  C:6538H         LINE#         383
  C:653AH         LINE#         385
  C:653BH         LINE#         397
  C:653EH         LINE#         398
  C:6540H         LINE#         399
  C:6541H         LINE#         400
  C:6543H         LINE#         401
  C:6544H         LINE#         404
  C:6547H         LINE#         405
  C:6548H         LINE#         407
  C:654AH         LINE#         409
  C:654BH         LINE#         410
  C:654CH         LINE#         411
  C:654DH         LINE#         412
  C:654EH         LINE#         413
  C:6550H         LINE#         414
  C:6552H         LINE#         416
  C:6554H         LINE#         417
  C:6556H         LINE#         418
BL51 BANKED LINKER/LOCATER V6.05                                                      09/23/2016  17:07:17  PAGE 328


  C:6558H         LINE#         429
  C:655BH         LINE#         430
  C:655DH         LINE#         431
  C:655EH         LINE#         432
  C:6560H         LINE#         433
  C:6561H         LINE#         436
  C:6564H         LINE#         437
  C:6565H         LINE#         439
  C:6567H         LINE#         441
  C:6568H         LINE#         442
  C:6569H         LINE#         443
  C:656AH         LINE#         444
  C:656BH         LINE#         445
  C:656DH         LINE#         446
  C:656FH         LINE#         448
  C:6571H         LINE#         449
  C:6573H         LINE#         450
  C:6575H         LINE#         459
  C:6578H         LINE#         461
  C:657AH         LINE#         462
  C:657BH         LINE#         463
  C:657CH         LINE#         464
  C:657EH         LINE#         466
  C:657FH         LINE#         467
  C:6580H         LINE#         468
  C:6581H         LINE#         470
  C:6582H         LINE#         471
  C:6583H         LINE#         473
  C:6585H         LINE#         475
  C:6587H         LINE#         477
  C:6589H         LINE#         498
  C:658CH         LINE#         501
  C:658EH         LINE#         502
  C:6591H         LINE#         503
  C:6592H         LINE#         504
  C:6593H         LINE#         505
  C:6595H         LINE#         507
  C:6596H         LINE#         508
  C:6598H         LINE#         509
  C:6599H         LINE#         510
  C:659BH         LINE#         514
  C:659CH         LINE#         515
  C:659EH         LINE#         516
  C:65A0H         LINE#         518
  C:65A3H         LINE#         525
  C:65A5H         LINE#         526
  C:65A6H         LINE#         527
  C:65A7H         LINE#         528
  C:65AAH         LINE#         529
  C:65ACH         LINE#         530
  C:65AEH         LINE#         533
  C:65B0H         LINE#         534
  C:65B1H         LINE#         535
  C:65B2H         LINE#         536
  C:65B4H         LINE#         538
  C:65B7H         LINE#         539
  C:65B8H         LINE#         541
BL51 BANKED LINKER/LOCATER V6.05                                                      09/23/2016  17:07:17  PAGE 329


  C:65BAH         LINE#         542
  C:65BCH         LINE#         543
  C:65BDH         LINE#         544
  C:65BFH         LINE#         545
  C:65C1H         LINE#         546
  C:65C3H         LINE#         548
  C:65C5H         LINE#         552
  C:65C7H         LINE#         553
  C:65C8H         LINE#         554
  C:65C9H         LINE#         555
  C:65CBH         LINE#         557
  C:65CEH         LINE#         558
  C:65CFH         LINE#         560
  C:65D1H         LINE#         561
  C:65D3H         LINE#         562
  C:65D4H         LINE#         563
  C:65D6H         LINE#         564
  C:65D8H         LINE#         565
  C:65DAH         LINE#         570
  C:65DCH         LINE#         571
  C:65DEH         LINE#         574
  C:65E0H         LINE#         575
  C:65E2H         LINE#         576
  C:65E3H         LINE#         577
  C:65E4H         LINE#         578
  C:65E7H         LINE#         580
  C:65E9H         LINE#         581
  C:65EAH         LINE#         582
  C:65EBH         LINE#         583
  C:65EDH         LINE#         584
  C:65EFH         LINE#         585
  C:65F0H         LINE#         586
  C:65F3H         LINE#         588
  C:65F5H         LINE#         589
  C:65F6H         LINE#         590
  C:65F8H         LINE#         591
  C:65F9H         LINE#         592
  C:65FCH         LINE#         595
  C:65FFH         LINE#         596
  C:6601H         LINE#         597
  C:6603H         LINE#         599
  C:6605H         LINE#         601
  C:6607H         LINE#         602
  C:6608H         LINE#         603
  C:6609H         LINE#         604
  C:660AH         LINE#         605
  C:660DH         LINE#         606
  C:660EH         LINE#         607
  C:6610H         LINE#         608
  C:6612H         LINE#         609
  C:6614H         LINE#         616
  C:6616H         LINE#         618
  C:6618H         LINE#         620
  C:661AH         LINE#         621
  C:661BH         LINE#         622
  C:661CH         LINE#         623
  C:661DH         LINE#         624
BL51 BANKED LINKER/LOCATER V6.05                                                      09/23/2016  17:07:17  PAGE 330


  C:6620H         LINE#         625
  C:6621H         LINE#         627
  C:6623H         LINE#         628
  C:6625H         LINE#         634
  C:6626H         LINE#         635
  C:6629H         LINE#         638
  C:662CH         LINE#         639
  C:662EH         LINE#         640
  C:662FH         LINE#         641
  C:6630H         LINE#         643
  C:6632H         LINE#         644
  C:6633H         LINE#         646
  C:6634H         LINE#         648
  C:6636H         LINE#         649
  C:6637H         LINE#         650
  C:6639H         LINE#         653
  C:663BH         LINE#         654
  C:663EH         LINE#         656
  C:6641H         LINE#         658
  C:6642H         LINE#         661
  C:6644H         LINE#         663
  C:6645H         LINE#         664
  C:6648H         LINE#         668
  C:6649H         LINE#         689
  C:664AH         LINE#         693
  C:664DH         LINE#         694
  C:664FH         LINE#         696
  C:6651H         LINE#         697
  C:6653H         LINE#         698
  C:6655H         LINE#         699
  C:6656H         LINE#         700
  C:6659H         LINE#         703
  C:665BH         LINE#         704
  C:665EH         LINE#         707
  C:6660H         LINE#         708
  C:6663H         LINE#         710
  C:6665H         LINE#         712
  C:6667H         LINE#         713
  C:6669H         LINE#         714
  C:666CH         LINE#         715
  C:666EH         LINE#         717
  C:6670H         LINE#         720
  C:6673H         LINE#         721
  C:6675H         LINE#         723
  C:6677H         LINE#         724
  C:6679H         LINE#         725
  C:667BH         LINE#         726
  C:667CH         LINE#         727
  C:667FH         LINE#         730
  C:6681H         LINE#         731
  C:6684H         LINE#         734
  C:6686H         LINE#         735
  C:6689H         LINE#         737
  C:668BH         LINE#         738
  C:668DH         LINE#         739
  C:6690H         LINE#         741
  C:6692H         LINE#         744
BL51 BANKED LINKER/LOCATER V6.05                                                      09/23/2016  17:07:17  PAGE 331


  C:6695H         LINE#         745
  C:6697H         LINE#         747
  C:6699H         LINE#         748
  C:669BH         LINE#         749
  C:669DH         LINE#         750
  C:669EH         LINE#         751
  C:66A1H         LINE#         753
  C:66A3H         LINE#         754
  C:66A6H         LINE#         757
  C:66A8H         LINE#         758
  C:66ABH         LINE#         760
  C:66ADH         LINE#         761
  C:66AFH         LINE#         762
  C:66B2H         LINE#         764
  C:66B4H         LINE#         769
  C:66B7H         LINE#         771
  C:66B9H         LINE#         772
  C:66BBH         LINE#         773
  C:66BDH         LINE#         774
  C:66BEH         LINE#         775
  C:66C1H         LINE#         777
  C:66C3H         LINE#         778
  C:66C6H         LINE#         780
  C:66C8H         LINE#         781
  C:66CBH         LINE#         786
  C:66CDH         LINE#         787
  C:66CFH         LINE#         788
  C:66D2H         LINE#         789
  C:66D4H         LINE#         791
  C:66D6H         LINE#         792
  C:66D8H         LINE#         793
  C:66DBH         LINE#         794
  C:66DDH         LINE#         796
  C:66DFH         LINE#         797
  C:66E2H         LINE#         798
  C:66E4H         LINE#         800
  C:66E6H         LINE#         801
  C:66E8H         LINE#         802
  C:66EBH         LINE#         803
  C:66EDH         LINE#         805
  C:66EFH         LINE#         806
  C:66F2H         LINE#         807
  C:66F4H         LINE#         809
  C:66F6H         LINE#         810
  C:66F8H         LINE#         811
  C:66FBH         LINE#         812
  C:66FDH         LINE#         814
  C:66FFH         LINE#         815
  C:6702H         LINE#         816
  C:6704H         LINE#         880
  C:6705H         LINE#         897
  C:6707H         LINE#         898
  C:6709H         LINE#         903
  C:670CH         LINE#         904
  C:670FH         LINE#         905
  C:6710H         LINE#         906
  C:6713H         LINE#         907
BL51 BANKED LINKER/LOCATER V6.05                                                      09/23/2016  17:07:17  PAGE 332


  C:6715H         LINE#         908
  C:6717H         LINE#         912
  C:671AH         LINE#         914
  C:671BH         LINE#         915
  C:671CH         LINE#         917
  C:671DH         LINE#         918
  C:671FH         LINE#         919
  C:6720H         LINE#         921
  C:6722H         LINE#         922
  C:6724H         LINE#         926
  C:6727H         LINE#         928
  C:672AH         LINE#         929
  C:672CH         LINE#         930
  C:672DH         LINE#         931
  C:672FH         LINE#         942
  C:6732H         LINE#         943
  C:6734H         LINE#         944
  C:6736H         LINE#         946
  C:6737H         LINE#         947
  C:6738H         LINE#         948
  C:673AH         LINE#         949
  C:673CH         LINE#         951
  C:673DH         LINE#         953
  C:673FH         LINE#         954
  C:6741H         LINE#         956
  C:6744H         LINE#         957
  C:6746H         LINE#         958
  C:6747H         LINE#         959
  C:6749H         LINE#         960
  C:674BH         LINE#         961
  C:674DH         LINE#         963
  C:674EH         LINE#         964
  C:674FH         LINE#         965
  C:6750H         LINE#         966
  C:6752H         LINE#         967
  C:6754H         LINE#         968
  C:6755H         LINE#         970
  C:6756H         LINE#         972
  C:6758H         LINE#         973
  C:675AH         LINE#         974
  C:675DH         LINE#         975
  C:675FH         LINE#         976
  C:6760H         LINE#         977
  C:6762H         LINE#         978
  C:6764H         LINE#         979
  C:6766H         LINE#         981
  C:6768H         LINE#         982
  C:676AH         LINE#         985
  C:676BH         LINE#         986
  C:676CH         LINE#         987
  C:676EH         LINE#         990
  C:6770H         LINE#         991
  C:6772H         LINE#         996
  C:6773H         LINE#         998
  C:6775H         LINE#         1006
  C:6777H         LINE#         1007
  C:6779H         LINE#         1008
BL51 BANKED LINKER/LOCATER V6.05                                                      09/23/2016  17:07:17  PAGE 333


  C:677CH         LINE#         1009
  C:677FH         LINE#         1010
  C:6780H         LINE#         1011
  C:6781H         LINE#         1013
  C:6784H         LINE#         1014
  C:6786H         LINE#         1015
  C:6788H         LINE#         1022
  C:678AH         LINE#         1023
  C:678DH         LINE#         1024
  C:6790H         LINE#         1026
  C:6792H         LINE#         1029
  C:6794H         LINE#         1030
  C:6796H         LINE#         1031
  C:6797H         LINE#         1032
  C:6799H         LINE#         1035
  C:679AH         LINE#         1036
  C:679CH         LINE#         1038
  C:679FH         LINE#         1039
  C:67A0H         LINE#         1040
  C:67A1H         LINE#         1042
  C:67A4H         LINE#         1043
  C:67A5H         LINE#         1044
  C:67A6H         LINE#         1046
  C:67A8H         LINE#         1054
  C:67ABH         LINE#         1055
  C:67ADH         LINE#         1056
  C:67AEH         LINE#         1060
  C:67B1H         LINE#         1061
  C:67B3H         LINE#         1063
  C:67B6H         LINE#         1064
  C:67B8H         LINE#         1066
  C:67B9H         LINE#         1067
  C:67BBH         LINE#         1068
  C:67BCH         LINE#         1070
  C:67BEH         LINE#         1075
  C:67C1H         LINE#         1076
  C:67C3H         LINE#         1078
  C:67C6H         LINE#         1079
  C:67C8H         LINE#         1081
  C:67C9H         LINE#         1082
  C:67CBH         LINE#         1083
  C:67CCH         LINE#         1085
  C:67CEH         LINE#         1089
  C:67D1H         LINE#         1090
  C:67D3H         LINE#         1092
  C:67D6H         LINE#         1093
  C:67D8H         LINE#         1095
  C:67D9H         LINE#         1096
  C:67DBH         LINE#         1097
  C:67DCH         LINE#         1099
  C:67DEH         LINE#         1102
  C:67E0H         LINE#         1103
  C:67E1H         LINE#         1105
  C:67E2H         LINE#         1106
  C:67E3H         LINE#         1107
  C:67E5H         LINE#         1109
  C:67E6H         LINE#         1115
BL51 BANKED LINKER/LOCATER V6.05                                                      09/23/2016  17:07:17  PAGE 334


  C:67E9H         LINE#         1116
  C:67EBH         LINE#         1117
  C:67ECH         LINE#         1118
  C:67EEH         LINE#         1119
  C:67EFH         LINE#         1122
  C:67F2H         LINE#         1123
  C:67F3H         LINE#         1125
  C:67F5H         LINE#         1127
  C:67F6H         LINE#         1128
  C:67F7H         LINE#         1129
  C:67F8H         LINE#         1130
  C:67F9H         LINE#         1131
  C:67FBH         LINE#         1132
  C:67FDH         LINE#         1134
  C:67FFH         LINE#         1135
  C:6801H         LINE#         1136
  -------         ENDMOD        LCD_SPACE

Program Size: data=256.0 xdata=256 code=31082
LINK/LOCATE RUN COMPLETE.  0 WARNING(S),  0 ERROR(S)
